 reaper_drivenbymoss

 Timestamp is 6123872b (Mon Aug 23 13:31:55 2021)

 Preferred load address is 0000000180000000

 Start         Length     Name                   Class
 0001:00000000 000000d0H .text$di                CODE
 0001:000000d0 00059c10H .text$mn                CODE
 0001:00059ce0 00000040H .text$mn$00             CODE
 0001:00059d20 00002e70H .text$x                 CODE
 0001:0005cb90 000001b4H .text$yd                CODE
 0002:00000000 00000330H .idata$5                DATA
 0002:00000330 00000028H .00cfg                  DATA
 0002:00000358 00000008H .CRT$XCA                DATA
 0002:00000360 00000018H .CRT$XCC                DATA
 0002:00000378 00000010H .CRT$XCL                DATA
 0002:00000388 00000018H .CRT$XCU                DATA
 0002:000003a0 00000008H .CRT$XCZ                DATA
 0002:000003a8 00000008H .CRT$XIA                DATA
 0002:000003b0 00000030H .CRT$XIC                DATA
 0002:000003e0 00000008H .CRT$XIZ                DATA
 0002:000003e8 00000008H .CRT$XPA                DATA
 0002:000003f0 00000010H .CRT$XPX                DATA
 0002:00000400 00000008H .CRT$XPXA               DATA
 0002:00000408 00000008H .CRT$XPZ                DATA
 0002:00000410 00000008H .CRT$XTA                DATA
 0002:00000418 00000008H .CRT$XTZ                DATA
 0002:00000420 00000000H .gehcont$y              DATA
 0002:00000420 00000000H .gfids$y                DATA
 0002:00000420 000196e0H .rdata                  DATA
 0002:00019b00 00000000H .rdata$CastGuardVftablesA DATA
 0002:00019b00 00000000H .rdata$CastGuardVftablesC DATA
 0002:00019b00 00002facH .rdata$r                DATA
 0002:0001caac 0000013cH .rdata$voltmd           DATA
 0002:0001cbe8 000003f0H .rdata$zzzdbg           DATA
 0002:0001cfd8 00000008H .rtc$IAA                DATA
 0002:0001cfe0 00000008H .rtc$IZZ                DATA
 0002:0001cfe8 00000008H .rtc$TAA                DATA
 0002:0001cff0 00000008H .rtc$TZZ                DATA
 0002:0001cff8 00006708H .xdata                  DATA
 0002:00023700 000004e0H .xdata$x                DATA
 0002:00023be0 0000005cH .edata                  DATA
 0002:00023c3c 00000028H .idata$2                DATA
 0002:00023c64 00000014H .idata$3                DATA
 0002:00023c78 00000330H .idata$4                DATA
 0002:00023fa8 000007a4H .idata$6                DATA
 0003:00000000 00000cd0H .data                   DATA
 0003:00000cd0 000003f0H .data$r                 DATA
 0003:000010c0 000010f0H .data$rs                DATA
 0003:000021b0 000031ecH .bss                    DATA
 0004:00000000 00003f24H .pdata                  DATA
 0005:00000000 000000f4H _RDATA                  DATA
 0006:00000000 00000160H .rsrc$01                DATA
 0006:00000160 000005c8H .rsrc$02                DATA

  Address         Publics by Value              Rva+Base               Lib:Object

 0000:00000000       __x64_code_ranges_to_entry_points_count 0000000000000000     <absolute>
 0000:00000000       __arm64x_redirection_metadata 0000000000000000     <absolute>
 0000:00000000       __guard_iat_table          0000000000000000     <absolute>
 0000:00000000       __guard_longjmp_table      0000000000000000     <absolute>
 0000:00000000       __x64_code_ranges_to_entry_points 0000000000000000     <absolute>
 0000:00000000       __guard_iat_count          0000000000000000     <absolute>
 0000:00000000       __guard_longjmp_count      0000000000000000     <absolute>
 0000:00000000       __dynamic_value_reloc_table 0000000000000000     <absolute>
 0000:00000000       __guard_fids_count         0000000000000000     <absolute>
 0000:00000000       ___safe_se_handler_table   0000000000000000     <absolute>
 0000:00000000       __hybrid_auxiliary_iat     0000000000000000     <absolute>
 0000:00000000       __hybrid_auxiliary_iat_copy 0000000000000000     <absolute>
 0000:00000000       __arm64x_extra_rfe_table   0000000000000000     <absolute>
 0000:00000000       __hybrid_code_map          0000000000000000     <absolute>
 0000:00000000       __arm64x_extra_rfe_table_size 0000000000000000     <absolute>
 0000:00000000       ___safe_se_handler_count   0000000000000000     <absolute>
 0000:00000000       __AbsoluteZero             0000000000000000     <absolute>
 0000:00000000       __guard_check_icall_a64n_fptr 0000000000000000     <absolute>
 0000:00000000       __guard_fids_table         0000000000000000     <absolute>
 0000:00000000       __guard_eh_cont_count      0000000000000000     <absolute>
 0000:00000000       __arm64x_redirection_metadata_count 0000000000000000     <absolute>
 0000:00000000       __enclave_config           0000000000000000     <absolute>
 0000:00000000       __guard_eh_cont_table      0000000000000000     <absolute>
 0000:00000000       __arm64x_native_entrypoint 0000000000000000     <absolute>
 0000:00000000       __hybrid_code_map_count    0000000000000000     <absolute>
 0000:00000100       __guard_flags              0000000000000100     <absolute>
 0000:00000000       __ImageBase                0000000180000000     <linker-defined>
 0001:000000d0       __local_stdio_printf_options 00000001800010d0 f i ActionProcessor.obj
 0001:000000e0       sprintf_s                  00000001800010e0 f i ActionProcessor.obj
 0001:00000140       ??0exception@std@@QEAA@AEBV01@@Z 0000000180001140 f i ActionProcessor.obj
 0001:00000180       ?what@exception@std@@UEBAPEBDXZ 0000000180001180 f i ActionProcessor.obj
 0001:000001a0       ??_Gbad_exception@std@@UEAAPEAXI@Z 00000001800011a0 f i libvcruntime:frame.obj
 0001:000001a0       ??_Ebad_array_new_length@std@@UEAAPEAXI@Z 00000001800011a0 f i * CIL library *:* CIL module *
 0001:000001a0       ??_Eout_of_range@std@@UEAAPEAXI@Z 00000001800011a0 f i libcpmt:xthrow.obj
 0001:000001a0       ??_Ebad_exception@std@@UEAAPEAXI@Z 00000001800011a0 f i libvcruntime:frame.obj
 0001:000001a0       ??_Ebad_alloc@std@@UEAAPEAXI@Z 00000001800011a0 f i * CIL library *:* CIL module *
 0001:000001a0       ??_Eruntime_error@std@@UEAAPEAXI@Z 00000001800011a0 f i * CIL library *:* CIL module *
 0001:000001a0       ??_Gbad_cast@std@@UEAAPEAXI@Z 00000001800011a0 f i ActionProcessor.obj
 0001:000001a0       ??_Ebad_function_call@std@@UEAAPEAXI@Z 00000001800011a0 f i libcpmt:xthrow.obj
 0001:000001a0       ??_Gbad_alloc@std@@UEAAPEAXI@Z 00000001800011a0 f i ActionProcessor.obj
 0001:000001a0       ??_Gbad_function_call@std@@UEAAPEAXI@Z 00000001800011a0 f i libcpmt:xthrow.obj
 0001:000001a0       ??_Ebad_cast@std@@UEAAPEAXI@Z 00000001800011a0 f i * CIL library *:* CIL module *
 0001:000001a0       ??_Glength_error@std@@UEAAPEAXI@Z 00000001800011a0 f i libcpmt:xthrow.obj
 0001:000001a0       ??_Elogic_error@std@@UEAAPEAXI@Z 00000001800011a0 f i libcpmt:xthrow.obj
 0001:000001a0       ??_Elength_error@std@@UEAAPEAXI@Z 00000001800011a0 f i libcpmt:xthrow.obj
 0001:000001a0       ??_Eexception@std@@UEAAPEAXI@Z 00000001800011a0 f i * CIL library *:* CIL module *
 0001:000001a0       ??_Gbad_array_new_length@std@@UEAAPEAXI@Z 00000001800011a0 f i ActionProcessor.obj
 0001:000001a0       ??_Gexception@std@@UEAAPEAXI@Z 00000001800011a0 f i ActionProcessor.obj
 0001:000001a0       ??_Glogic_error@std@@UEAAPEAXI@Z 00000001800011a0 f i libcpmt:xthrow.obj
 0001:000001a0       ??_Gruntime_error@std@@UEAAPEAXI@Z 00000001800011a0 f i ActionProcessor.obj
 0001:000001a0       ??_Gout_of_range@std@@UEAAPEAXI@Z 00000001800011a0 f i libcpmt:xthrow.obj
 0001:000001f0       ??1bad_function_call@std@@UEAA@XZ 00000001800011f0 f i libcpmt:xthrow.obj
 0001:000001f0       ??1bad_exception@std@@UEAA@XZ 00000001800011f0 f i libvcruntime:frame.obj
 0001:000001f0       ??1failure@ios_base@std@@UEAA@XZ 00000001800011f0 f i ActionProcessor.obj
 0001:000001f0       ??1out_of_range@std@@UEAA@XZ 00000001800011f0 f i libcpmt:xthrow.obj
 0001:000001f0       ??1length_error@std@@UEAA@XZ 00000001800011f0 f i libcpmt:xthrow.obj
 0001:000001f0       ??1bad_cast@std@@UEAA@XZ   00000001800011f0 f i ActionProcessor.obj
 0001:000001f0       ??1system_error@std@@UEAA@XZ 00000001800011f0 f i ActionProcessor.obj
 0001:000001f0       ??1bad_array_new_length@std@@UEAA@XZ 00000001800011f0 f i ActionProcessor.obj
 0001:000001f0       ??1runtime_error@std@@UEAA@XZ 00000001800011f0 f i ActionProcessor.obj
 0001:000001f0       ??1bad_alloc@std@@UEAA@XZ  00000001800011f0 f i ActionProcessor.obj
 0001:000001f0       ??1regex_error@std@@UEAA@XZ 00000001800011f0 f i libcpmt:xthrow.obj
 0001:00000210       ??0bad_array_new_length@std@@QEAA@XZ 0000000180001210 f i ActionProcessor.obj
 0001:00000240       ?_Throw_bad_array_new_length@std@@YAXXZ 0000000180001240 f i ActionProcessor.obj
 0001:00000240       ?__scrt_throw_std_bad_array_new_length@@YAXXZ 0000000180001240 f i LIBCMT:throw_bad_alloc.obj
 0001:00000260       ??0bad_array_new_length@std@@QEAA@AEBV01@@Z 0000000180001260 f i ActionProcessor.obj
 0001:000002a0       ??0bad_alloc@std@@QEAA@AEBV01@@Z 00000001800012a0 f i ActionProcessor.obj
 0001:000002e0       ?_Xlen_string@std@@YAXXZ   00000001800012e0 f i ActionProcessor.obj
 0001:00000300       ??0runtime_error@std@@QEAA@AEBV01@@Z 0000000180001300 f i ActionProcessor.obj
 0001:00000340       ?default_error_condition@error_category@std@@UEBA?AVerror_condition@2@H@Z 0000000180001340 f i ActionProcessor.obj
 0001:00000350       ?equivalent@error_category@std@@UEBA_NHAEBVerror_condition@2@@Z 0000000180001350 f i ActionProcessor.obj
 0001:00000390       ?equivalent@error_category@std@@UEBA_NAEBVerror_code@2@H@Z 0000000180001390 f i ActionProcessor.obj
 0001:000003b0       ?make_error_code@std@@YA?AVerror_code@1@W4io_errc@1@@Z 00000001800013b0 f i ActionProcessor.obj
 0001:000003d0       ??0_System_error@std@@IEAA@Verror_code@1@AEBV?$basic_string@DU?$char_traits@D@std@@V?$allocator@D@2@@1@@Z 00000001800013d0 f i ActionProcessor.obj
 0001:00000570       ??_Efailure@ios_base@std@@UEAAPEAXI@Z 0000000180001570 f i * CIL library *:* CIL module *
 0001:00000570       ??_Gsystem_error@std@@UEAAPEAXI@Z 0000000180001570 f i ActionProcessor.obj
 0001:00000570       ??_G_System_error@std@@UEAAPEAXI@Z 0000000180001570 f i ActionProcessor.obj
 0001:00000570       ??_E_System_error@std@@UEAAPEAXI@Z 0000000180001570 f i * CIL library *:* CIL module *
 0001:00000570       ??_Gfailure@ios_base@std@@UEAAPEAXI@Z 0000000180001570 f i ActionProcessor.obj
 0001:00000570       ??_Esystem_error@std@@UEAAPEAXI@Z 0000000180001570 f i * CIL library *:* CIL module *
 0001:000005c0       ??0system_error@std@@QEAA@AEBV01@@Z 00000001800015c0 f i ActionProcessor.obj
 0001:00000620       ??0_System_error@std@@QEAA@AEBV01@@Z 0000000180001620 f i ActionProcessor.obj
 0001:00000670       ?name@_Iostream_error_category2@std@@UEBAPEBDXZ 0000000180001670 f i ActionProcessor.obj
 0001:00000680       ?message@_Iostream_error_category2@std@@UEBA?AV?$basic_string@DU?$char_traits@D@std@@V?$allocator@D@2@@2@H@Z 0000000180001680 f i ActionProcessor.obj
 0001:00000700       ??_E_Generic_error_category@std@@UEAAPEAXI@Z 0000000180001700 f i libcpmt:thread0.obj
 0001:00000700       ??_G_Generic_error_category@std@@UEAAPEAXI@Z 0000000180001700 f i libcpmt:thread0.obj
 0001:00000700       ??_G_Iostream_error_category2@std@@UEAAPEAXI@Z 0000000180001700 f i ActionProcessor.obj
 0001:00000700       ??_E_Iostream_error_category2@std@@UEAAPEAXI@Z 0000000180001700 f i * CIL library *:* CIL module *
 0001:00000730       ??0bad_cast@std@@QEAA@XZ   0000000180001730 f i ActionProcessor.obj
 0001:00000760       ?_Throw_bad_cast@std@@YAXXZ 0000000180001760 f i ActionProcessor.obj
 0001:00000780       ??0bad_cast@std@@QEAA@AEBV01@@Z 0000000180001780 f i ActionProcessor.obj
 0001:000007c0       ??_E_Facet_base@std@@UEAAPEAXI@Z 00000001800017c0 f i * CIL library *:* CIL module *
 0001:000007c0       ??_G_Facet_base@std@@UEAAPEAXI@Z 00000001800017c0 f i ActionProcessor.obj
 0001:000007f0       ??1_Locinfo@std@@QEAA@XZ   00000001800017f0 f i ActionProcessor.obj
 0001:00000890       ?_Incref@facet@locale@std@@UEAAXXZ 0000000180001890 f i ActionProcessor.obj
 0001:000008a0       ?_Decref@facet@locale@std@@UEAAPEAV_Facet_base@3@XZ 00000001800018a0 f i ActionProcessor.obj
 0001:000008b0       ??1facet@locale@std@@MEAA@XZ 00000001800018b0 f i ActionProcessor.obj
 0001:000008c0       ??1locale@std@@QEAA@XZ     00000001800018c0 f i ActionProcessor.obj
 0001:000008f0       ?_Getcat@?$ctype@D@std@@SA_KPEAPEBVfacet@locale@2@PEBV42@@Z 00000001800018f0 f i ActionProcessor.obj
 0001:00000a80       ?do_tolower@?$ctype@D@std@@MEBADD@Z 0000000180001a80 f i ActionProcessor.obj
 0001:00000a90       ?do_tolower@?$ctype@D@std@@MEBAPEBDPEADPEBD@Z 0000000180001a90 f i ActionProcessor.obj
 0001:00000ae0       ?do_toupper@?$ctype@D@std@@MEBADD@Z 0000000180001ae0 f i ActionProcessor.obj
 0001:00000af0       ?do_toupper@?$ctype@D@std@@MEBAPEBDPEADPEBD@Z 0000000180001af0 f i ActionProcessor.obj
 0001:00000b40       ?do_narrow@?$ctype@D@std@@MEBADDD@Z 0000000180001b40 f i ActionProcessor.obj
 0001:00000b40       ?do_widen@?$ctype@D@std@@MEBADD@Z 0000000180001b40 f i ActionProcessor.obj
 0001:00000b50       ?do_widen@?$ctype@D@std@@MEBAPEBDPEBD0PEAD@Z 0000000180001b50 f i ActionProcessor.obj
 0001:00000b70       ?do_narrow@?$ctype@D@std@@MEBAPEBDPEBD0DPEAD@Z 0000000180001b70 f i ActionProcessor.obj
 0001:00000b90       ??_E?$ctype@D@std@@MEAAPEAXI@Z 0000000180001b90 f i * CIL library *:* CIL module *
 0001:00000b90       ??_G?$ctype@D@std@@MEAAPEAXI@Z 0000000180001b90 f i ActionProcessor.obj
 0001:00000c00       ??0failure@ios_base@std@@QEAA@PEBDAEBVerror_code@2@@Z 0000000180001c00 f i ActionProcessor.obj
 0001:00000ce0       ?clear@ios_base@std@@QEAAXH_N@Z 0000000180001ce0 f i ActionProcessor.obj
 0001:00000d60       ??0failure@ios_base@std@@QEAA@AEBV012@@Z 0000000180001d60 f i ActionProcessor.obj
 0001:00000dc0       ??_E_Node_base@std@@UEAAPEAXI@Z 0000000180001dc0 f i * CIL library *:* CIL module *
 0001:00000dc0       ??_G_Node_base@std@@UEAAPEAXI@Z 0000000180001dc0 f i ActionProcessor.obj
 0001:00000dc0       ??_G_Node_endif@std@@UEAAPEAXI@Z 0000000180001dc0 f i ActionProcessor.obj
 0001:00000dc0       ??_E_Node_endif@std@@UEAAPEAXI@Z 0000000180001dc0 f i * CIL library *:* CIL module *
 0001:00000df0       ??_G_Root_node@std@@UEAAPEAXI@Z 0000000180001df0 f i ActionProcessor.obj
 0001:00000df0       ??_E_Root_node@std@@UEAAPEAXI@Z 0000000180001df0 f i * CIL library *:* CIL module *
 0001:00000e20       ??_E_Node_end_group@std@@UEAAPEAXI@Z 0000000180001e20 f i * CIL library *:* CIL module *
 0001:00000e20       ??_G_Node_back@std@@UEAAPEAXI@Z 0000000180001e20 f i ActionProcessor.obj
 0001:00000e20       ??_E_Node_back@std@@UEAAPEAXI@Z 0000000180001e20 f i * CIL library *:* CIL module *
 0001:00000e20       ??_E_Node_capture@std@@UEAAPEAXI@Z 0000000180001e20 f i * CIL library *:* CIL module *
 0001:00000e20       ??_G_Node_capture@std@@UEAAPEAXI@Z 0000000180001e20 f i ActionProcessor.obj
 0001:00000e20       ??_E_Node_end_rep@std@@UEAAPEAXI@Z 0000000180001e20 f i * CIL library *:* CIL module *
 0001:00000e20       ??_G_Node_end_group@std@@UEAAPEAXI@Z 0000000180001e20 f i ActionProcessor.obj
 0001:00000e20       ??_G_Node_end_rep@std@@UEAAPEAXI@Z 0000000180001e20 f i ActionProcessor.obj
 0001:00000e50       ??_G_Node_assert@std@@UEAAPEAXI@Z 0000000180001e50 f i ActionProcessor.obj
 0001:00000e50       ??_E_Node_assert@std@@UEAAPEAXI@Z 0000000180001e50 f i * CIL library *:* CIL module *
 0001:00000ee0       ??_E_Node_if@std@@UEAAPEAXI@Z 0000000180001ee0 f i * CIL library *:* CIL module *
 0001:00000ee0       ??_G_Node_if@std@@UEAAPEAXI@Z 0000000180001ee0 f i ActionProcessor.obj
 0001:00000fa0       ??_E_Node_rep@std@@UEAAPEAXI@Z 0000000180001fa0 f i * CIL library *:* CIL module *
 0001:00000fa0       ??_G_Node_rep@std@@UEAAPEAXI@Z 0000000180001fa0 f i ActionProcessor.obj
 0001:00000fd0       ?_Calculate_loop_simplicity@std@@YAXPEAV_Node_base@1@0PEAV_Node_rep@1@@Z 0000000180001fd0 f i ActionProcessor.obj
 0001:000010b0       ?SetSurfaceRecArm@DrivenByMossSurface@@UEAAXPEAVMediaTrack@@_N@Z 00000001800020b0 f i DrivenByMossSurface.obj
 0001:000010b0       ?SetSurfaceVolume@IReaperControlSurface@@UEAAXPEAVMediaTrack@@N@Z 00000001800020b0 f i DrivenByMossSurface.obj
 0001:000010b0       ?destroy@stl_critical_section_win7@details@Concurrency@@UEAAXXZ 00000001800020b0 f i libcpmt:mutex.obj
 0001:000010b0       ?_Unlock@?$basic_streambuf@DU?$char_traits@D@std@@@std@@UEAAXXZ 00000001800020b0 f i DataCollector.obj
 0001:000010b0       ?SetSurfacePan@DrivenByMossSurface@@UEAAXPEAVMediaTrack@@N@Z 00000001800020b0 f i DrivenByMossSurface.obj
 0001:000010b0       ?ResetCachedVolPanStates@IReaperControlSurface@@UEAAXXZ 00000001800020b0 f i DrivenByMossSurface.obj
 0001:000010b0       ?SetSurfaceSolo@IReaperControlSurface@@UEAAXPEAVMediaTrack@@_N@Z 00000001800020b0 f i DrivenByMossSurface.obj
 0001:000010b0       ?OnTrackSelection@IReaperControlSurface@@UEAAXPEAVMediaTrack@@@Z 00000001800020b0 f i DrivenByMossSurface.obj
 0001:000010b0       ?OnTrackSelection@DrivenByMossSurface@@UEAAXPEAVMediaTrack@@@Z 00000001800020b0 f i DrivenByMossSurface.obj
 0001:000010b0       ?SetRepeatState@IReaperControlSurface@@UEAAX_N@Z 00000001800020b0 f i DrivenByMossSurface.obj
 0001:000010b0       ?SetPlayState@DrivenByMossSurface@@UEAAX_N00@Z 00000001800020b0 f i DrivenByMossSurface.obj
 0001:000010b0       ?SetTrackTitle@DrivenByMossSurface@@UEAAXPEAVMediaTrack@@PEBD@Z 00000001800020b0 f i DrivenByMossSurface.obj
 0001:000010b0       ?SetAutoMode@DrivenByMossSurface@@UEAAXH@Z 00000001800020b0 f i DrivenByMossSurface.obj
 0001:000010b0       ?SetSurfaceRecArm@IReaperControlSurface@@UEAAXPEAVMediaTrack@@_N@Z 00000001800020b0 f i DrivenByMossSurface.obj
 0001:000010b0       ?Run@IReaperControlSurface@@UEAAXXZ 00000001800020b0 f i DrivenByMossSurface.obj
 0001:000010b0       ?Process@OscProcessor@@UEAAXAEAV?$deque@V?$basic_string@DU?$char_traits@D@std@@V?$allocator@D@2@@std@@V?$allocator@V?$basic_string@DU?$char_traits@D@std@@V?$allocator@D@2@@std@@@2@@std@@@Z 00000001800020b0 f i ActionProcessor.obj
 0001:000010b0       ?Process@OscProcessor@@UEAAXAEAV?$deque@V?$basic_string@DU?$char_traits@D@std@@V?$allocator@D@2@@std@@V?$allocator@V?$basic_string@DU?$char_traits@D@std@@V?$allocator@D@2@@std@@@2@@std@@AEBV?$basic_string@DU?$char_traits@D@std@@V?$allocator@D@2@@3@@Z 00000001800020b0 f i ActionProcessor.obj
 0001:000010b0       ?SetTrackListChange@DrivenByMossSurface@@UEAAXXZ 00000001800020b0 f i DrivenByMossSurface.obj
 0001:000010b0       ?_Lock@?$basic_streambuf@DU?$char_traits@D@std@@@std@@UEAAXXZ 00000001800020b0 f i DataCollector.obj
 0001:000010b0       ?SetTrackListChange@IReaperControlSurface@@UEAAXXZ 00000001800020b0 f i DrivenByMossSurface.obj
 0001:000010b0       ?Process@OscProcessor@@UEAAXAEAV?$deque@V?$basic_string@DU?$char_traits@D@std@@V?$allocator@D@2@@std@@V?$allocator@V?$basic_string@DU?$char_traits@D@std@@V?$allocator@D@2@@std@@@2@@std@@N@Z 00000001800020b0 f i ActionProcessor.obj
 0001:000010b0       ?SetSurfacePan@IReaperControlSurface@@UEAAXPEAVMediaTrack@@N@Z 00000001800020b0 f i DrivenByMossSurface.obj
 0001:000010b0       ?SetRepeatState@DrivenByMossSurface@@UEAAX_N@Z 00000001800020b0 f i DrivenByMossSurface.obj
 0001:000010b0       ?SetSurfaceSolo@DrivenByMossSurface@@UEAAXPEAVMediaTrack@@_N@Z 00000001800020b0 f i DrivenByMossSurface.obj
 0001:000010b0       _guard_check_icall_nop     00000001800020b0 f i LIBCMT:guard_support.obj
 0001:000010b0       ?SetSurfaceVolume@DrivenByMossSurface@@UEAAXPEAVMediaTrack@@N@Z 00000001800020b0 f i DrivenByMossSurface.obj
 0001:000010b0       ?imbue@?$basic_streambuf@DU?$char_traits@D@std@@@std@@MEAAXAEBVlocale@2@@Z 00000001800020b0 f i DataCollector.obj
 0001:000010b0       ?CloseNoReset@IReaperControlSurface@@UEAAXXZ 00000001800020b0 f i DrivenByMossSurface.obj
 0001:000010b0       ?SetSurfaceMute@IReaperControlSurface@@UEAAXPEAVMediaTrack@@_N@Z 00000001800020b0 f i DrivenByMossSurface.obj
 0001:000010b0       ?SetSurfaceSelected@DrivenByMossSurface@@UEAAXPEAVMediaTrack@@_N@Z 00000001800020b0 f i DrivenByMossSurface.obj
 0001:000010b0       ?ResetCachedVolPanStates@DrivenByMossSurface@@UEAAXXZ 00000001800020b0 f i DrivenByMossSurface.obj
 0001:000010b0       ?SetAutoMode@IReaperControlSurface@@UEAAXH@Z 00000001800020b0 f i DrivenByMossSurface.obj
 0001:000010b0       ?SetSurfaceMute@DrivenByMossSurface@@UEAAXPEAVMediaTrack@@_N@Z 00000001800020b0 f i DrivenByMossSurface.obj
 0001:000010b0       ?SetPlayState@IReaperControlSurface@@UEAAX_N00@Z 00000001800020b0 f i DrivenByMossSurface.obj
 0001:000010b0       ?SetSurfaceSelected@IReaperControlSurface@@UEAAXPEAVMediaTrack@@_N@Z 00000001800020b0 f i DrivenByMossSurface.obj
 0001:000010b0       ?SetTrackTitle@IReaperControlSurface@@UEAAXPEAVMediaTrack@@PEBD@Z 00000001800020b0 f i DrivenByMossSurface.obj
 0001:000010c0       ?Process@OscProcessor@@UEAAXAEAV?$deque@V?$basic_string@DU?$char_traits@D@std@@V?$allocator@D@2@@std@@V?$allocator@V?$basic_string@DU?$char_traits@D@std@@V?$allocator@D@2@@std@@@2@@std@@H@Z 00000001800020c0 f i ActionProcessor.obj
 0001:000010d0       ?Process@OscProcessor@@UEAAXAEAV?$deque@V?$basic_string@DU?$char_traits@D@std@@V?$allocator@D@2@@std@@V?$allocator@V?$basic_string@DU?$char_traits@D@std@@V?$allocator@D@2@@std@@@2@@std@@M@Z 00000001800020d0 f i ActionProcessor.obj
 0001:000010e0       ?safeGet@OscProcessor@@IEAAPEBDAEAV?$deque@V?$basic_string@DU?$char_traits@D@std@@V?$allocator@D@2@@std@@V?$allocator@V?$basic_string@DU?$char_traits@D@std@@V?$allocator@D@2@@std@@@2@@std@@H@Z 00000001800020e0 f i ActionProcessor.obj
 0001:00001160       ??_ERecordProcessor@@UEAAPEAXI@Z 0000000180002160 f i * CIL library *:* CIL module *
 0001:00001160       ??_GMastertrackProcessor@@UEAAPEAXI@Z 0000000180002160 f i MastertrackProcessor.obj
 0001:00001160       ??_GNoteRepeatProcessor@@UEAAPEAXI@Z 0000000180002160 f i NoteRepeatProcessor.obj
 0001:00001160       ??_ECursorProcessor@@UEAAPEAXI@Z 0000000180002160 f i * CIL library *:* CIL module *
 0001:00001160       ??_GDeviceProcessor@@UEAAPEAXI@Z 0000000180002160 f i DeviceProcessor.obj
 0001:00001160       ??_EDeviceProcessor@@UEAAPEAXI@Z 0000000180002160 f i * CIL library *:* CIL module *
 0001:00001160       ??_ERepeatProcessor@@UEAAPEAXI@Z 0000000180002160 f i * CIL library *:* CIL module *
 0001:00001160       ??_ERedoProcessor@@UEAAPEAXI@Z 0000000180002160 f i * CIL library *:* CIL module *
 0001:00001160       ??_GClipProcessor@@UEAAPEAXI@Z 0000000180002160 f i ClipProcessor.obj
 0001:00001160       ??_EOscProcessor@@UEAAPEAXI@Z 0000000180002160 f i * CIL library *:* CIL module *
 0001:00001160       ??_GRefreshProcessor@@UEAAPEAXI@Z 0000000180002160 f i OscParser.obj
 0001:00001160       ??_ETimeProcessor@@UEAAPEAXI@Z 0000000180002160 f i * CIL library *:* CIL module *
 0001:00001160       ??_EQuantizeProcessor@@UEAAPEAXI@Z 0000000180002160 f i * CIL library *:* CIL module *
 0001:00001160       ??_GCursorProcessor@@UEAAPEAXI@Z 0000000180002160 f i OscParser.obj
 0001:00001160       ??_GProjectProcessor@@UEAAPEAXI@Z 0000000180002160 f i OscParser.obj
 0001:00001160       ??_EClipProcessor@@UEAAPEAXI@Z 0000000180002160 f i * CIL library *:* CIL module *
 0001:00001160       ??_ENoteRepeatProcessor@@UEAAPEAXI@Z 0000000180002160 f i * CIL library *:* CIL module *
 0001:00001160       ??_EIniFileProcessor@@UEAAPEAXI@Z 0000000180002160 f i * CIL library *:* CIL module *
 0001:00001160       ??_ETempoProcessor@@UEAAPEAXI@Z 0000000180002160 f i * CIL library *:* CIL module *
 0001:00001160       ??_GUndoProcessor@@UEAAPEAXI@Z 0000000180002160 f i OscParser.obj
 0001:00001160       ??_GMetronomeVolumeProcessor@@UEAAPEAXI@Z 0000000180002160 f i OscParser.obj
 0001:00001160       ??_EStopProcessor@@UEAAPEAXI@Z 0000000180002160 f i * CIL library *:* CIL module *
 0001:00001160       ??_GTimeProcessor@@UEAAPEAXI@Z 0000000180002160 f i OscParser.obj
 0001:00001160       ??_GTempoProcessor@@UEAAPEAXI@Z 0000000180002160 f i OscParser.obj
 0001:00001160       ??_EPlayProcessor@@UEAAPEAXI@Z 0000000180002160 f i * CIL library *:* CIL module *
 0001:00001160       ??_ETrackProcessor@@UEAAPEAXI@Z 0000000180002160 f i * CIL library *:* CIL module *
 0001:00001160       ??_ESceneProcessor@@UEAAPEAXI@Z 0000000180002160 f i * CIL library *:* CIL module *
 0001:00001160       ??_GPlayProcessor@@UEAAPEAXI@Z 0000000180002160 f i DrivenByMossSurface.obj
 0001:00001160       ??_GIniFileProcessor@@UEAAPEAXI@Z 0000000180002160 f i IniFileProcessor.obj
 0001:00001160       ??_GQuantizeProcessor@@UEAAPEAXI@Z 0000000180002160 f i OscParser.obj
 0001:00001160       ??_GSceneProcessor@@UEAAPEAXI@Z 0000000180002160 f i SceneProcessor.obj
 0001:00001160       ??_EMetronomeVolumeProcessor@@UEAAPEAXI@Z 0000000180002160 f i * CIL library *:* CIL module *
 0001:00001160       ??_GOscProcessor@@UEAAPEAXI@Z 0000000180002160 f i ActionProcessor.obj
 0001:00001160       ??_EUndoProcessor@@UEAAPEAXI@Z 0000000180002160 f i * CIL library *:* CIL module *
 0001:00001160       ??_GStopProcessor@@UEAAPEAXI@Z 0000000180002160 f i DrivenByMossSurface.obj
 0001:00001160       ??_GGrooveProcessor@@UEAAPEAXI@Z 0000000180002160 f i GrooveProcessor.obj
 0001:00001160       ??_EProjectProcessor@@UEAAPEAXI@Z 0000000180002160 f i * CIL library *:* CIL module *
 0001:00001160       ??_GRecordProcessor@@UEAAPEAXI@Z 0000000180002160 f i OscParser.obj
 0001:00001160       ??_EMarkerProcessor@@UEAAPEAXI@Z 0000000180002160 f i * CIL library *:* CIL module *
 0001:00001160       ??_GTrackProcessor@@UEAAPEAXI@Z 0000000180002160 f i TrackProcessor.obj
 0001:00001160       ??_GRedoProcessor@@UEAAPEAXI@Z 0000000180002160 f i OscParser.obj
 0001:00001160       ??_EGrooveProcessor@@UEAAPEAXI@Z 0000000180002160 f i * CIL library *:* CIL module *
 0001:00001160       ??_GMarkerProcessor@@UEAAPEAXI@Z 0000000180002160 f i MarkerProcessor.obj
 0001:00001160       ??_GRepeatProcessor@@UEAAPEAXI@Z 0000000180002160 f i OscParser.obj
 0001:00001160       ??_ERefreshProcessor@@UEAAPEAXI@Z 0000000180002160 f i * CIL library *:* CIL module *
 0001:00001160       ??_EMastertrackProcessor@@UEAAPEAXI@Z 0000000180002160 f i * CIL library *:* CIL module *
 0001:000011d0       ?CollectIntValue@Collectors@@SAHAEAV?$basic_ostringstream@DU?$char_traits@D@std@@V?$allocator@D@2@@std@@AEBV?$basic_string@DU?$char_traits@D@std@@V?$allocator@D@2@@3@AEBH2AEB_N@Z 00000001800021d0 f i ActionProcessor.obj
 0001:00001240       ??_EActionProcessor@@UEAAPEAXI@Z 0000000180002240 f i * CIL library *:* CIL module *
 0001:00001240       ??_GActionProcessor@@UEAAPEAXI@Z 0000000180002240 f i ActionProcessor.obj
 0001:000012b0       ??1ClipProcessor@@UEAA@XZ  00000001800022b0 f i ClipProcessor.obj
 0001:000012b0       ??1ProjectProcessor@@UEAA@XZ 00000001800022b0 f i DrivenByMossSurface.obj
 0001:000012b0       ??1RefreshProcessor@@UEAA@XZ 00000001800022b0 f i DrivenByMossSurface.obj
 0001:000012b0       ??1TimeProcessor@@UEAA@XZ  00000001800022b0 f i DrivenByMossSurface.obj
 0001:000012b0       ??1RecordProcessor@@UEAA@XZ 00000001800022b0 f i DrivenByMossSurface.obj
 0001:000012b0       ??1SceneProcessor@@UEAA@XZ 00000001800022b0 f i DrivenByMossSurface.obj
 0001:000012b0       ??1RepeatProcessor@@UEAA@XZ 00000001800022b0 f i DrivenByMossSurface.obj
 0001:000012b0       ??1MarkerProcessor@@UEAA@XZ 00000001800022b0 f i DrivenByMossSurface.obj
 0001:000012b0       ??1StopProcessor@@UEAA@XZ  00000001800022b0 f i DrivenByMossSurface.obj
 0001:000012b0       ??1UndoProcessor@@UEAA@XZ  00000001800022b0 f i DrivenByMossSurface.obj
 0001:000012b0       ??1RedoProcessor@@UEAA@XZ  00000001800022b0 f i DrivenByMossSurface.obj
 0001:000012b0       ??1QuantizeProcessor@@UEAA@XZ 00000001800022b0 f i DrivenByMossSurface.obj
 0001:000012b0       ??1DeviceProcessor@@UEAA@XZ 00000001800022b0 f i DeviceProcessor.obj
 0001:000012b0       ??1IniFileProcessor@@UEAA@XZ 00000001800022b0 f i DrivenByMossSurface.obj
 0001:000012b0       ??1GrooveProcessor@@UEAA@XZ 00000001800022b0 f i DrivenByMossSurface.obj
 0001:000012b0       ??1PlayProcessor@@UEAA@XZ  00000001800022b0 f i DrivenByMossSurface.obj
 0001:000012b0       ??1NoteRepeatProcessor@@UEAA@XZ 00000001800022b0 f i DrivenByMossSurface.obj
 0001:000012b0       ??1CursorProcessor@@UEAA@XZ 00000001800022b0 f i DrivenByMossSurface.obj
 0001:000012b0       ??1MastertrackProcessor@@UEAA@XZ 00000001800022b0 f i DrivenByMossSurface.obj
 0001:000012b0       ??1MetronomeVolumeProcessor@@UEAA@XZ 00000001800022b0 f i DrivenByMossSurface.obj
 0001:000012b0       ??1TempoProcessor@@UEAA@XZ 00000001800022b0 f i DrivenByMossSurface.obj
 0001:000012b0       ??1ActionProcessor@@UEAA@XZ 00000001800022b0 f i ActionProcessor.obj
 0001:000012b0       ??1TrackProcessor@@UEAA@XZ 00000001800022b0 f i DrivenByMossSurface.obj
 0001:00001300       ?Process@ActionProcessor@@UEAAXAEAV?$deque@V?$basic_string@DU?$char_traits@D@std@@V?$allocator@D@2@@std@@V?$allocator@V?$basic_string@DU?$char_traits@D@std@@V?$allocator@D@2@@std@@@2@@std@@@Z 0000000180002300 f   ActionProcessor.obj
 0001:00001370       ?Process@ActionProcessor@@UEAAXAEAV?$deque@V?$basic_string@DU?$char_traits@D@std@@V?$allocator@D@2@@std@@V?$allocator@V?$basic_string@DU?$char_traits@D@std@@V?$allocator@D@2@@std@@@2@@std@@H@Z 0000000180002370 f   ActionProcessor.obj
 0001:000013a0       ?Process@ActionProcessor@@UEAAXAEAV?$deque@V?$basic_string@DU?$char_traits@D@std@@V?$allocator@D@2@@std@@V?$allocator@V?$basic_string@DU?$char_traits@D@std@@V?$allocator@D@2@@std@@@2@@std@@AEBV?$basic_string@DU?$char_traits@D@std@@V?$allocator@D@2@@3@@Z 00000001800023a0 f   ActionProcessor.obj
 0001:00001410       ?CollectData@ActionProcessor@@QEAAXAEAV?$basic_ostringstream@DU?$char_traits@D@std@@V?$allocator@D@2@@std@@@Z 0000000180002410 f   ActionProcessor.obj
 0001:00001880       ??6?$basic_ostream@DU?$char_traits@D@std@@@std@@QEAAAEAV01@H@Z 0000000180002880 f i ActionProcessor.obj
 0001:00001a30       ??0?$basic_regex@DV?$regex_traits@D@std@@@std@@QEAA@PEBDW4syntax_option_type@regex_constants@1@@Z 0000000180002a30 f i ActionProcessor.obj
 0001:00001bb0       ??1?$_Yarn@D@std@@QEAA@XZ  0000000180002bb0 f i ActionProcessor.obj
 0001:00001bb0       ??1?$_Yarn@_W@std@@QEAA@XZ 0000000180002bb0 f i ActionProcessor.obj
 0001:00001be0       ?c_str@?$basic_string@DU?$char_traits@D@std@@V?$allocator@D@2@@std@@QEBAPEBDXZ 0000000180002be0 f i ActionProcessor.obj
 0001:00001bf0       ??A?$basic_string@DU?$char_traits@D@std@@V?$allocator@D@2@@std@@QEAAAEAD_K@Z 0000000180002bf0 f i ActionProcessor.obj
 0001:00001c10       ?assign@?$basic_string@DU?$char_traits@D@std@@V?$allocator@D@2@@std@@QEAAAEAV12@QEBD@Z 0000000180002c10 f i ActionProcessor.obj
 0001:00001c30       ??1?$basic_string@DU?$char_traits@D@std@@V?$allocator@D@2@@std@@QEAA@XZ 0000000180002c30 f i ActionProcessor.obj
 0001:00001c90       ??4?$basic_string@DU?$char_traits@D@std@@V?$allocator@D@2@@std@@QEAAAEAV01@$$QEAV01@@Z 0000000180002c90 f i ActionProcessor.obj
 0001:00001d20       ??0?$basic_string@DU?$char_traits@D@std@@V?$allocator@D@2@@std@@QEAA@QEBD@Z 0000000180002d20 f i ActionProcessor.obj
 0001:00001d60       ??0?$basic_string@DU?$char_traits@D@std@@V?$allocator@D@2@@std@@QEAA@AEBV01@@Z 0000000180002d60 f i ActionProcessor.obj
 0001:00001e40       ??1?$regex_traits@D@std@@QEAA@XZ 0000000180002e40 f i ActionProcessor.obj
 0001:00001e70       ?do_put@?$num_put@DV?$ostreambuf_iterator@DU?$char_traits@D@std@@@std@@@std@@MEBA?AV?$ostreambuf_iterator@DU?$char_traits@D@std@@@2@V32@AEAVios_base@2@DPEBX@Z 0000000180002e70 f i ActionProcessor.obj
 0001:00001f10       ?do_put@?$num_put@DV?$ostreambuf_iterator@DU?$char_traits@D@std@@@std@@@std@@MEBA?AV?$ostreambuf_iterator@DU?$char_traits@D@std@@@2@V32@AEAVios_base@2@DO@Z 0000000180002f10 f i ActionProcessor.obj
 0001:000021f0       ?do_put@?$num_put@DV?$ostreambuf_iterator@DU?$char_traits@D@std@@@std@@@std@@MEBA?AV?$ostreambuf_iterator@DU?$char_traits@D@std@@@2@V32@AEAVios_base@2@DN@Z 00000001800031f0 f i ActionProcessor.obj
 0001:000024c0       ?do_put@?$num_put@DV?$ostreambuf_iterator@DU?$char_traits@D@std@@@std@@@std@@MEBA?AV?$ostreambuf_iterator@DU?$char_traits@D@std@@@2@V32@AEAVios_base@2@D_K@Z 00000001800034c0 f i ActionProcessor.obj
 0001:000025e0       ?do_put@?$num_put@DV?$ostreambuf_iterator@DU?$char_traits@D@std@@@std@@@std@@MEBA?AV?$ostreambuf_iterator@DU?$char_traits@D@std@@@2@V32@AEAVios_base@2@D_J@Z 00000001800035e0 f i ActionProcessor.obj
 0001:00002700       ?do_put@?$num_put@DV?$ostreambuf_iterator@DU?$char_traits@D@std@@@std@@@std@@MEBA?AV?$ostreambuf_iterator@DU?$char_traits@D@std@@@2@V32@AEAVios_base@2@DK@Z 0000000180003700 f i ActionProcessor.obj
 0001:00002820       ?do_put@?$num_put@DV?$ostreambuf_iterator@DU?$char_traits@D@std@@@std@@@std@@MEBA?AV?$ostreambuf_iterator@DU?$char_traits@D@std@@@2@V32@AEAVios_base@2@DJ@Z 0000000180003820 f i ActionProcessor.obj
 0001:00002940       ?do_put@?$num_put@DV?$ostreambuf_iterator@DU?$char_traits@D@std@@@std@@@std@@MEBA?AV?$ostreambuf_iterator@DU?$char_traits@D@std@@@2@V32@AEAVios_base@2@D_N@Z 0000000180003940 f i ActionProcessor.obj
 0001:00002ca0       ??1sentry@?$basic_ostream@DU?$char_traits@D@std@@@std@@QEAA@XZ 0000000180003ca0 f i ActionProcessor.obj
 0001:00002ce0       ??0sentry@?$basic_ostream@DU?$char_traits@D@std@@@std@@QEAA@AEAV12@@Z 0000000180003ce0 f i ActionProcessor.obj
 0001:00002d60       ?_Pnavail@?$basic_streambuf@DU?$char_traits@D@std@@@std@@IEBA_JXZ 0000000180003d60 f i ActionProcessor.obj
 0001:00002d80       ?_Xran@?$deque@V?$basic_string@DU?$char_traits@D@std@@V?$allocator@D@2@@std@@V?$allocator@V?$basic_string@DU?$char_traits@D@std@@V?$allocator@D@2@@std@@@2@@std@@AEBAXXZ 0000000180003d80 f i ActionProcessor.obj
 0001:00002da0       ?_Tidy@?$basic_regex@DV?$regex_traits@D@std@@@std@@AEAAXXZ 0000000180003da0 f i ActionProcessor.obj
 0001:00002e20       ?assign@?$basic_string@DU?$char_traits@D@std@@V?$allocator@D@2@@std@@QEAAAEAV12@_KD@Z 0000000180003e20 f i ActionProcessor.obj
 0001:00002f90       ?assign@?$basic_string@DU?$char_traits@D@std@@V?$allocator@D@2@@std@@QEAAAEAV12@QEBD_K@Z 0000000180003f90 f i ActionProcessor.obj
 0001:000030f0       ?append@?$basic_string@DU?$char_traits@D@std@@V?$allocator@D@2@@std@@QEAAAEAV12@QEBD_K@Z 00000001800040f0 f i ActionProcessor.obj
 0001:00003170       ??_G?$num_put@DV?$ostreambuf_iterator@DU?$char_traits@D@std@@@std@@@std@@MEAAPEAXI@Z 0000000180004170 f i ActionProcessor.obj
 0001:00003170       ??_E?$num_put@DV?$ostreambuf_iterator@DU?$char_traits@D@std@@@std@@@std@@MEAAPEAXI@Z 0000000180004170 f i * CIL library *:* CIL module *
 0001:00003170       ??_G?$codecvt@DDU_Mbstatet@@@std@@MEAAPEAXI@Z 0000000180004170 f i DataCollector.obj
 0001:00003170       ??_E?$codecvt@DDU_Mbstatet@@@std@@MEAAPEAXI@Z 0000000180004170 f i * CIL library *:* CIL module *
 0001:000031a0       ?do_truename@?$numpunct@D@std@@MEBA?AV?$basic_string@DU?$char_traits@D@std@@V?$allocator@D@2@@2@XZ 00000001800041a0 f i ActionProcessor.obj
 0001:000031f0       ?do_falsename@?$numpunct@D@std@@MEBA?AV?$basic_string@DU?$char_traits@D@std@@V?$allocator@D@2@@2@XZ 00000001800041f0 f i ActionProcessor.obj
 0001:00003240       ?do_grouping@?$numpunct@D@std@@MEBA?AV?$basic_string@DU?$char_traits@D@std@@V?$allocator@D@2@@2@XZ 0000000180004240 f i ActionProcessor.obj
 0001:00003290       ?do_thousands_sep@?$numpunct@D@std@@MEBADXZ 0000000180004290 f i ActionProcessor.obj
 0001:000032a0       ?do_decimal_point@?$numpunct@D@std@@MEBADXZ 00000001800042a0 f i ActionProcessor.obj
 0001:000032b0       ?_Iput@?$num_put@DV?$ostreambuf_iterator@DU?$char_traits@D@std@@@std@@@std@@AEBA?AV?$ostreambuf_iterator@DU?$char_traits@D@std@@@2@V32@AEAVios_base@2@DPEAD_K@Z 00000001800042b0 f i ActionProcessor.obj
 0001:00003930       ?_Fput@?$num_put@DV?$ostreambuf_iterator@DU?$char_traits@D@std@@@std@@@std@@AEBA?AV?$ostreambuf_iterator@DU?$char_traits@D@std@@@2@V32@AEAVios_base@2@DPEBD_K@Z 0000000180004930 f i ActionProcessor.obj
 0001:00004030       ??1_Sentry_base@?$basic_istream@DU?$char_traits@D@std@@@std@@QEAA@XZ 0000000180005030 f i DataCollector.obj
 0001:00004030       ??1_Sentry_base@?$basic_ostream@DU?$char_traits@D@std@@@std@@QEAA@XZ 0000000180005030 f i ActionProcessor.obj
 0001:00004060       ?flush@?$basic_ostream@DU?$char_traits@D@std@@@std@@QEAAAEAV12@XZ 0000000180005060 f i ActionProcessor.obj
 0001:00004100       ?_Osfx@?$basic_ostream@DU?$char_traits@D@std@@@std@@QEAAXXZ 0000000180005100 f i ActionProcessor.obj
 0001:00004150       ??_E?$numpunct@D@std@@MEAAPEAXI@Z 0000000180005150 f i * CIL library *:* CIL module *
 0001:00004150       ??_G?$numpunct@D@std@@MEAAPEAXI@Z 0000000180005150 f i ActionProcessor.obj
 0001:000041b0       ?_Xran@?$_String_val@U?$_Simple_types@D@std@@@std@@SAXXZ 00000001800051b0 f i ActionProcessor.obj
 0001:000041d0       ??$use_facet@V?$ctype@D@std@@@std@@YAAEBV?$ctype@D@0@AEBVlocale@0@@Z 00000001800051d0 f i ActionProcessor.obj
 0001:000042e0       ??$?6U?$char_traits@D@std@@@std@@YAAEAV?$basic_ostream@DU?$char_traits@D@std@@@0@AEAV10@PEBD@Z 00000001800052e0 f i ActionProcessor.obj
 0001:00004550       ??$use_facet@V?$num_put@DV?$ostreambuf_iterator@DU?$char_traits@D@std@@@std@@@std@@@std@@YAAEBV?$num_put@DV?$ostreambuf_iterator@DU?$char_traits@D@std@@@std@@@0@AEBVlocale@0@@Z 0000000180005550 f i ActionProcessor.obj
 0001:00004660       ??$_Reset@PEBD@?$basic_regex@DV?$regex_traits@D@std@@@std@@AEAAXPEBD0W4syntax_option_type@regex_constants@1@Uforward_iterator_tag@1@@Z 0000000180005660 f i ActionProcessor.obj
 0001:00004840       ??$use_facet@V?$numpunct@D@std@@@std@@YAAEBV?$numpunct@D@0@AEBVlocale@0@@Z 0000000180005840 f i ActionProcessor.obj
 0001:00004950       ??$_Reallocate_grow_by@V<lambda_65e615be2a453ca0576c979606f46740>@@PEBD_K@?$basic_string@DU?$char_traits@D@std@@V?$allocator@D@2@@std@@AEAAAEAV01@_KV<lambda_65e615be2a453ca0576c979606f46740>@@PEBD_K@Z 0000000180005950 f i ActionProcessor.obj
 0001:00004ae0       ??$_Reallocate_grow_by@V<lambda_b986da8d428e4af07c64af60eec09b61>@@_K_KD@?$basic_string@DU?$char_traits@D@std@@V?$allocator@D@2@@std@@AEAAAEAV01@_KV<lambda_b986da8d428e4af07c64af60eec09b61>@@_K2D@Z 0000000180005ae0 f i ActionProcessor.obj
 0001:00004c90       ??$_Reallocate_grow_by@V<lambda_e1befb086ad3257e3f042a63030725f7>@@_KD@?$basic_string@DU?$char_traits@D@std@@V?$allocator@D@2@@std@@AEAAAEAV01@_KV<lambda_e1befb086ad3257e3f042a63030725f7>@@_KD@Z 0000000180005c90 f i ActionProcessor.obj
 0001:00004e20       ??1?$_Parser@PEBDDV?$regex_traits@D@std@@@std@@QEAA@XZ 0000000180005e20 f i ActionProcessor.obj
 0001:00004e80       ?do_hash@?$collate@D@std@@MEBAJPEBD0@Z 0000000180005e80 f i ActionProcessor.obj
 0001:00004ec0       ?do_transform@?$collate@D@std@@MEBA?AV?$basic_string@DU?$char_traits@D@std@@V?$allocator@D@2@@2@PEBD0@Z 0000000180005ec0 f i ActionProcessor.obj
 0001:00005060       ?do_compare@?$collate@D@std@@MEBAHPEBD000@Z 0000000180006060 f i ActionProcessor.obj
 0001:000050b0       ?_Getcat@?$collate@D@std@@SA_KPEAPEBVfacet@locale@2@PEBV42@@Z 00000001800060b0 f i ActionProcessor.obj
 0001:000053d0       ??1?$unique_ptr@V_Node_assert@std@@U?$default_delete@V_Node_assert@std@@@2@@std@@QEAA@XZ 00000001800063d0 f i ActionProcessor.obj
 0001:000053d0       ??1?$unique_ptr@V_Facet_base@std@@U?$default_delete@V_Facet_base@std@@@2@@std@@QEAA@XZ 00000001800063d0 f i ActionProcessor.obj
 0001:000053f0       ?_Getcat@?$numpunct@D@std@@SA_KPEAPEBVfacet@locale@2@PEBV42@@Z 00000001800063f0 f i ActionProcessor.obj
 0001:00005630       ?_Getcat@?$num_put@DV?$ostreambuf_iterator@DU?$char_traits@D@std@@@std@@@std@@SA_KPEAPEBVfacet@locale@2@PEBV42@@Z 0000000180006630 f i ActionProcessor.obj
 0001:000057b0       ??1?$_Vb_val@V?$allocator@_N@std@@@std@@QEAA@XZ 00000001800067b0 f i ActionProcessor.obj
 0001:000057b0       ??1?$vector@HV?$allocator@H@std@@@std@@QEAA@XZ 00000001800067b0 f i DataCollector.obj
 0001:000057b0       ??1?$vector@_NV?$allocator@_N@std@@@std@@QEAA@XZ 00000001800067b0 f i ActionProcessor.obj
 0001:00005810       ??_G?$collate@D@std@@MEAAPEAXI@Z 0000000180006810 f i ActionProcessor.obj
 0001:00005810       ??_E?$collate@D@std@@MEAAPEAXI@Z 0000000180006810 f i * CIL library *:* CIL module *
 0001:00005860       ??1?$_Tidy_guard@V?$numpunct@D@std@@@std@@QEAA@XZ 0000000180006860 f i ActionProcessor.obj
 0001:000058a0       ??$_Insert_string@DU?$char_traits@D@std@@_K@std@@YAAEAV?$basic_ostream@DU?$char_traits@D@std@@@0@AEAV10@QEBD_K@Z 00000001800068a0 f i ActionProcessor.obj
 0001:00005b10       ??$_Reallocate_grow_by@V<lambda_f3a66ab6a0570788f31503db83886f49>@@_KPEBD_K@?$basic_string@DU?$char_traits@D@std@@V?$allocator@D@2@@std@@AEAAAEAV01@_KV<lambda_f3a66ab6a0570788f31503db83886f49>@@_KPEBD2@Z 0000000180006b10 f i ActionProcessor.obj
 0001:00005c80       ??1?$_Tidy_guard@V?$_Builder@PEBDDV?$regex_traits@D@std@@@std@@@std@@QEAA@XZ 0000000180006c80 f i ActionProcessor.obj
 0001:00005ce0       ?_Trim@?$vector@_NV?$allocator@_N@std@@@std@@QEAAX_K@Z 0000000180006ce0 f i ActionProcessor.obj
 0001:00005d90       ?_Xlen@?$vector@_NV?$allocator@_N@std@@@std@@QEBAXXZ 0000000180006d90 f i ActionProcessor.obj
 0001:00005db0       ?_Error@?$_Parser@PEBDDV?$regex_traits@D@std@@@std@@AEAAXW4error_type@regex_constants@2@@Z 0000000180006db0 f i ActionProcessor.obj
 0001:00005dc0       ?_Trans@?$_Parser@PEBDDV?$regex_traits@D@std@@@std@@AEAAXXZ 0000000180006dc0 f i ActionProcessor.obj
 0001:00006070       ?_Disjunction@?$_Parser@PEBDDV?$regex_traits@D@std@@@std@@AEAAXXZ 0000000180007070 f i ActionProcessor.obj
 0001:00006320       ?_End_group@?$_Builder@PEBDDV?$regex_traits@D@std@@@std@@QEAAXPEAV_Node_base@2@@Z 0000000180007320 f i ActionProcessor.obj
 0001:000063d0       ?_Begin_capture_group@?$_Builder@PEBDDV?$regex_traits@D@std@@@std@@QEAAPEAV_Node_base@2@I@Z 00000001800073d0 f i ActionProcessor.obj
 0001:00006460       ?_Xlength@?$vector@V?$basic_string@DU?$char_traits@D@std@@V?$allocator@D@2@@std@@V?$allocator@V?$basic_string@DU?$char_traits@D@std@@V?$allocator@D@2@@std@@@2@@std@@CAXXZ 0000000180007460 f i ClipProcessor.obj
 0001:00006460       ?_Xlength@?$vector@U_Grp_t@?$_Tgt_state_t@PEBD@std@@V?$allocator@U_Grp_t@?$_Tgt_state_t@PEBD@std@@@3@@std@@CAXXZ 0000000180007460 f i ClipProcessor.obj
 0001:00006460       ?_Xlength@?$vector@IV?$allocator@I@std@@@std@@CAXXZ 0000000180007460 f i ActionProcessor.obj
 0001:00006460       ?_Xlength@?$vector@V?$sub_match@PEBD@std@@V?$allocator@V?$sub_match@PEBD@std@@@2@@std@@CAXXZ 0000000180007460 f i ClipProcessor.obj
 0001:00006460       ?_Xlength@?$vector@U_Loop_vals_t@std@@V?$allocator@U_Loop_vals_t@std@@@2@@std@@CAXXZ 0000000180007460 f i ClipProcessor.obj
 0001:00006460       ?_Xlength@?$vector@HV?$allocator@H@std@@@std@@CAXXZ 0000000180007460 f i Marker.obj
 0001:00006460       ?_Xlength@?$vector@DV?$allocator@D@std@@@std@@CAXXZ 0000000180007460 f i ActionProcessor.obj
 0001:00006460       ?_Xlength@?$vector@V?$shared_ptr@VParameter@@@std@@V?$allocator@V?$shared_ptr@VParameter@@@std@@@2@@std@@CAXXZ 0000000180007460 f i Model.obj
 0001:00006460       ?_Xlength@?$vector@PEAVSend@@V?$allocator@PEAVSend@@@std@@@std@@CAXXZ 0000000180007460 f i Track.obj
 0001:00006460       ?_Xlength@?$vector@V?$function@$$A6AXXZ@std@@V?$allocator@V?$function@$$A6AXXZ@std@@@2@@std@@CAXXZ 0000000180007460 f i FunctionExecutor.obj
 0001:00006460       ?_Xlength@?$vector@V?$shared_ptr@VMarker@@@std@@V?$allocator@V?$shared_ptr@VMarker@@@std@@@2@@std@@CAXXZ 0000000180007460 f i Model.obj
 0001:00006460       ?_Xlength@?$vector@V?$shared_ptr@VTrack@@@std@@V?$allocator@V?$shared_ptr@VTrack@@@std@@@2@@std@@CAXXZ 0000000180007460 f i Model.obj
 0001:00006480       ?allocate@?$allocator@I@std@@QEAAPEAI_K@Z 0000000180007480 f i ActionProcessor.obj
 0001:000064f0       ?_Alternative@?$_Parser@PEBDDV?$regex_traits@D@std@@@std@@AEAA_NXZ 00000001800074f0 f i ActionProcessor.obj
 0001:00006990       ?_CharacterClass@?$_Parser@PEBDDV?$regex_traits@D@std@@@std@@AEAAXXZ 0000000180007990 f i ActionProcessor.obj
 0001:00006af0       ?_AtomEscape@?$_Parser@PEBDDV?$regex_traits@D@std@@@std@@AEAAXXZ 0000000180007af0 f i ActionProcessor.obj
 0001:00006c70       ?_Wrapped_disjunction@?$_Parser@PEBDDV?$regex_traits@D@std@@@std@@AEAA_NXZ 0000000180007c70 f i ActionProcessor.obj
 0001:00006e40       ?_Quantifier@?$_Parser@PEBDDV?$regex_traits@D@std@@@std@@AEAAXXZ 0000000180007e40 f i ActionProcessor.obj
 0001:000070a0       ?_Add_char@?$_Builder@PEBDDV?$regex_traits@D@std@@@std@@QEAAXD@Z 00000001800080a0 f i ActionProcessor.obj
 0001:000071b0       ?translate@?$_Regex_traits@D@std@@QEBADD@Z 00000001800081b0 f i ActionProcessor.obj
 0001:00007260       ?_DecimalDigits@?$_Parser@PEBDDV?$regex_traits@D@std@@@std@@AEAA_NXZ 0000000180008260 f i ActionProcessor.obj
 0001:00007310       ?_CharacterClassEscape@?$_Parser@PEBDDV?$regex_traits@D@std@@@std@@AEAA_N_N@Z 0000000180008310 f i ActionProcessor.obj
 0001:00007410       ?_ClassRanges@?$_Parser@PEBDDV?$regex_traits@D@std@@@std@@AEAAXXZ 0000000180008410 f i ActionProcessor.obj
 0001:00007690       ?_CharacterEscape@?$_Parser@PEBDDV?$regex_traits@D@std@@@std@@AEAA_NXZ 0000000180008690 f i ActionProcessor.obj
 0001:00007ba0       ?_Do_noncapture_group@?$_Parser@PEBDDV?$regex_traits@D@std@@@std@@AEAAXXZ 0000000180008ba0 f i ActionProcessor.obj
 0001:00007c40       ?_Do_assert_group@?$_Parser@PEBDDV?$regex_traits@D@std@@@std@@AEAAX_N@Z 0000000180008c40 f i ActionProcessor.obj
 0001:00007d30       ?_Add_class@?$_Builder@PEBDDV?$regex_traits@D@std@@@std@@QEAAXXZ 0000000180008d30 f i ActionProcessor.obj
 0001:00007dc0       ?_Add_rep@?$_Builder@PEBDDV?$regex_traits@D@std@@@std@@QEAAXHH_N@Z 0000000180008dc0 f i ActionProcessor.obj
 0001:000080a0       ?resize@?$vector@_NV?$allocator@_N@std@@@std@@QEAAX_K_N@Z 00000001800090a0 f i ActionProcessor.obj
 0001:000081f0       ??_E?$_Node_class@DV?$regex_traits@D@std@@@std@@UEAAPEAXI@Z 00000001800091f0 f i * CIL library *:* CIL module *
 0001:000081f0       ??_G?$_Node_class@DV?$regex_traits@D@std@@@std@@UEAAPEAXI@Z 00000001800091f0 f i ActionProcessor.obj
 0001:00008300       ??_G?$_Node_str@D@std@@UEAAPEAXI@Z 0000000180009300 f i ActionProcessor.obj
 0001:00008300       ??_E?$_Node_str@D@std@@UEAAPEAXI@Z 0000000180009300 f i * CIL library *:* CIL module *
 0001:00008350       ?_Insert_n@?$vector@_NV?$allocator@_N@std@@@std@@QEAA?AV?$_Vb_iterator@U?$_Wrap_alloc@V?$allocator@I@std@@@std@@@2@V?$_Vb_const_iterator@U?$_Wrap_alloc@V?$allocator@I@std@@@std@@@2@_KAEB_N@Z 0000000180009350 f i ActionProcessor.obj
 0001:00008510       ?erase@?$vector@_NV?$allocator@_N@std@@@std@@QEAA?AV?$_Vb_iterator@U?$_Wrap_alloc@V?$allocator@I@std@@@std@@@2@V?$_Vb_const_iterator@U?$_Wrap_alloc@V?$allocator@I@std@@@std@@@2@0@Z 0000000180009510 f i ActionProcessor.obj
 0001:00008750       ?_Insert_x@?$vector@_NV?$allocator@_N@std@@@std@@QEAA_KV?$_Vb_const_iterator@U?$_Wrap_alloc@V?$allocator@I@std@@@std@@@2@_K@Z 0000000180009750 f i ActionProcessor.obj
 0001:00008980       ?_HexDigits@?$_Parser@PEBDDV?$regex_traits@D@std@@@std@@AEAAXH@Z 0000000180009980 f i ActionProcessor.obj
 0001:00008a60       ?_ClassAtom@?$_Parser@PEBDDV?$regex_traits@D@std@@@std@@AEAA?AW4_Prs_ret@2@XZ 0000000180009a60 f i ActionProcessor.obj
 0001:00008de0       ?_Add_range@?$_Builder@PEBDDV?$regex_traits@D@std@@@std@@QEAAXDD@Z 0000000180009de0 f i ActionProcessor.obj
 0001:00008f70       ?_Add_named_class@?$_Builder@PEBDDV?$regex_traits@D@std@@@std@@QEAAXF_N@Z 0000000180009f70 f i ActionProcessor.obj
 0001:00009050       ?_Add_char_to_array@?$_Builder@PEBDDV?$regex_traits@D@std@@@std@@AEAAXD@Z 000000018000a050 f i ActionProcessor.obj
 0001:000090f0       ??$lookup_classname@PEBD@?$_Regex_traits@D@std@@QEBAFPEBD0_N@Z 000000018000a0f0 f i ActionProcessor.obj
 0001:00009240       ?_Do_ex_class@?$_Parser@PEBDDV?$regex_traits@D@std@@@std@@AEAAXW4_Meta_type@2@@Z 000000018000a240 f i ActionProcessor.obj
 0001:00009480       ??$_Resize_reallocate@I@?$vector@IV?$allocator@I@std@@@std@@AEAAX_KAEBI@Z 000000018000a480 f i ActionProcessor.obj
 0001:000095b0       ?_Add_equiv@?$_Builder@PEBDDV?$regex_traits@D@std@@@std@@QEAAXPEBD0_J@Z 000000018000a5b0 f i ActionProcessor.obj
 0001:00009740       ?_Char_to_elts@?$_Builder@PEBDDV?$regex_traits@D@std@@@std@@AEAAXPEBD0_JPEAPEAU?$_Sequence@D@2@@Z 000000018000a740 f i ActionProcessor.obj
 0001:00009820       ??$transform_primary@PEBD@?$_Regex_traits@D@std@@QEBA?AV?$basic_string@DU?$char_traits@D@std@@V?$allocator@D@2@@1@PEBD0@Z 000000018000a820 f i ActionProcessor.obj
 0001:00009820       ??$transform_primary@PEAD@?$_Regex_traits@D@std@@QEBA?AV?$basic_string@DU?$char_traits@D@std@@V?$allocator@D@2@@1@PEAD0@Z 000000018000a820 f i ActionProcessor.obj
 0001:00009a10       ??1?$vector@DV?$allocator@D@std@@@std@@QEAA@XZ 000000018000aa10 f i ActionProcessor.obj
 0001:00009a70       ?safeGet@OscProcessor@@IEAAPEBDAEAV?$vector@V?$basic_string@DU?$char_traits@D@std@@V?$allocator@D@2@@std@@V?$allocator@V?$basic_string@DU?$char_traits@D@std@@V?$allocator@D@2@@std@@@2@@std@@H@Z 000000018000aa70 f i ClipProcessor.obj
 0001:00009ac0       ?SplitString@OscProcessor@@IEBA?AV?$vector@V?$basic_string@DU?$char_traits@D@std@@V?$allocator@D@2@@std@@V?$allocator@V?$basic_string@DU?$char_traits@D@std@@V?$allocator@D@2@@std@@@2@@std@@AEBV?$basic_string@DU?$char_traits@D@std@@V?$allocator@D@2@@3@D@Z 000000018000aac0 f i ClipProcessor.obj
 0001:00009da0       ?Process@ClipProcessor@@UEAAXAEAV?$deque@V?$basic_string@DU?$char_traits@D@std@@V?$allocator@D@2@@std@@V?$allocator@V?$basic_string@DU?$char_traits@D@std@@V?$allocator@D@2@@std@@@2@@std@@H@Z 000000018000ada0 f i ClipProcessor.obj
 0001:00009da0       ?Process@TimeProcessor@@UEAAXAEAV?$deque@V?$basic_string@DU?$char_traits@D@std@@V?$allocator@D@2@@std@@V?$allocator@V?$basic_string@DU?$char_traits@D@std@@V?$allocator@D@2@@std@@@2@@std@@H@Z 000000018000ada0 f i OscParser.obj
 0001:00009db0       ?Process@ClipProcessor@@UEAAXAEAV?$deque@V?$basic_string@DU?$char_traits@D@std@@V?$allocator@D@2@@std@@V?$allocator@V?$basic_string@DU?$char_traits@D@std@@V?$allocator@D@2@@std@@@2@@std@@@Z 000000018000adb0 f   ClipProcessor.obj
 0001:00009fb0       ?Process@ClipProcessor@@UEAAXAEAV?$deque@V?$basic_string@DU?$char_traits@D@std@@V?$allocator@D@2@@std@@V?$allocator@V?$basic_string@DU?$char_traits@D@std@@V?$allocator@D@2@@std@@@2@@std@@N@Z 000000018000afb0 f   ClipProcessor.obj
 0001:0000a420       ?Process@ClipProcessor@@UEAAXAEAV?$deque@V?$basic_string@DU?$char_traits@D@std@@V?$allocator@D@2@@std@@V?$allocator@V?$basic_string@DU?$char_traits@D@std@@V?$allocator@D@2@@std@@@2@@std@@AEBV?$basic_string@DU?$char_traits@D@std@@V?$allocator@D@2@@3@@Z 000000018000b420 f   ClipProcessor.obj
 0001:0000a820       ?SetColorOfClip@ClipProcessor@@AEAAXPEAVReaProject@@PEAVMediaItem@@AEBV?$basic_string@DU?$char_traits@D@std@@V?$allocator@D@2@@std@@@Z 000000018000b820 f   ClipProcessor.obj
 0001:0000ad40       ??1?$match_results@PEBDV?$allocator@V?$sub_match@PEBD@std@@@std@@@std@@QEAA@XZ 000000018000bd40 f i ClipProcessor.obj
 0001:0000adc0       ?ClearNotes@ClipProcessor@@AEAAXPEAVReaProject@@PEAVMediaItem@@HH@Z 000000018000bdc0 f   ClipProcessor.obj
 0001:0000af20       ?ClearNote@ClipProcessor@@AEAA_NPEAVReaProject@@PEAVMediaItem@@HHN@Z 000000018000bf20 f   ClipProcessor.obj
 0001:0000afe0       ?GetNoteIndex@ClipProcessor@@AEAAHPEAVMediaItem_Take@@HHN@Z 000000018000bfe0 f   ClipProcessor.obj
 0001:0000b110       ??1?$vector@V?$basic_string@DU?$char_traits@D@std@@V?$allocator@D@2@@std@@V?$allocator@V?$basic_string@DU?$char_traits@D@std@@V?$allocator@D@2@@std@@@2@@std@@QEAA@XZ 000000018000c110 f i ClipProcessor.obj
 0001:0000b120       ?_Xrange@?$vector@V?$shared_ptr@VParameter@@@std@@V?$allocator@V?$shared_ptr@VParameter@@@std@@@2@@std@@CAXXZ 000000018000c120 f i Model.obj
 0001:0000b120       ?_Xrange@?$vector@V?$basic_string@DU?$char_traits@D@std@@V?$allocator@D@2@@std@@V?$allocator@V?$basic_string@DU?$char_traits@D@std@@V?$allocator@D@2@@std@@@2@@std@@CAXXZ 000000018000c120 f i ClipProcessor.obj
 0001:0000b120       ?_Xrange@?$vector@V?$shared_ptr@VTrack@@@std@@V?$allocator@V?$shared_ptr@VTrack@@@std@@@2@@std@@CAXXZ 000000018000c120 f i Model.obj
 0001:0000b120       ?_Xrange@?$vector@V?$shared_ptr@VMarker@@@std@@V?$allocator@V?$shared_ptr@VMarker@@@std@@@2@@std@@CAXXZ 000000018000c120 f i Model.obj
 0001:0000b120       ?_Xrange@?$vector@HV?$allocator@H@std@@@std@@CAXXZ 000000018000c120 f i DataCollector.obj
 0001:0000b120       ?_Xrange@?$vector@PEAVSend@@V?$allocator@PEAVSend@@@std@@@std@@CAXXZ 000000018000c120 f i Track.obj
 0001:0000b140       ?_Tidy@?$vector@V?$basic_string@DU?$char_traits@D@std@@V?$allocator@D@2@@std@@V?$allocator@V?$basic_string@DU?$char_traits@D@std@@V?$allocator@D@2@@std@@@2@@std@@AEAAXXZ 000000018000c140 f i ClipProcessor.obj
 0001:0000b1b0       ?_Destroy@?$vector@V?$basic_string@DU?$char_traits@D@std@@V?$allocator@D@2@@std@@V?$allocator@V?$basic_string@DU?$char_traits@D@std@@V?$allocator@D@2@@std@@@2@@std@@AEAAXPEAV?$basic_string@DU?$char_traits@D@std@@V?$allocator@D@2@@2@0@Z 000000018000c1b0 f i ClipProcessor.obj
 0001:0000b1c0       ?deallocate@?$allocator@V?$basic_string@DU?$char_traits@D@std@@V?$allocator@D@2@@std@@@std@@QEAAXQEAV?$basic_string@DU?$char_traits@D@std@@V?$allocator@D@2@@2@_K@Z 000000018000c1c0 f i ClipProcessor.obj
 0001:0000b210       ??$_Emplace_reallocate@AEBV?$basic_string@DU?$char_traits@D@std@@V?$allocator@D@2@@std@@@?$vector@V?$basic_string@DU?$char_traits@D@std@@V?$allocator@D@2@@std@@V?$allocator@V?$basic_string@DU?$char_traits@D@std@@V?$allocator@D@2@@std@@@2@@std@@QEAAPEAV?$basic_string@DU?$char_traits@D@std@@V?$allocator@D@2@@1@QEAV21@AEBV21@@Z 000000018000c210 f i ClipProcessor.obj
 0001:0000b4d0       ??$_Destroy_range@V?$allocator@V?$basic_string@DU?$char_traits@D@std@@V?$allocator@D@2@@std@@@std@@@std@@YAXPEAV?$basic_string@DU?$char_traits@D@std@@V?$allocator@D@2@@0@QEAV10@AEAV?$allocator@V?$basic_string@DU?$char_traits@D@std@@V?$allocator@D@2@@std@@@0@@Z 000000018000c4d0 f i ClipProcessor.obj
 0001:0000b560       ??$_Regex_search2@PEBDV?$allocator@V?$sub_match@PEBD@std@@@std@@DV?$regex_traits@D@2@PEBD@std@@YA_NPEBD0PEAV?$match_results@PEBDV?$allocator@V?$sub_match@PEBD@std@@@std@@@0@AEBV?$basic_regex@DV?$regex_traits@D@std@@@0@W4match_flag_type@regex_constants@0@0@Z 000000018000c560 f i ClipProcessor.obj
 0001:0000b760       ??1?$_Matcher@PEBDDV?$regex_traits@D@std@@PEBD@std@@QEAA@XZ 000000018000c760 f i ClipProcessor.obj
 0001:0000b7e0       ??1?$_Tgt_state_t@PEBD@std@@QEAA@XZ 000000018000c7e0 f i ClipProcessor.obj
 0001:0000b890       ??1?$_Bt_state_t@PEBD@std@@QEAA@XZ 000000018000c890 f i ClipProcessor.obj
 0001:0000b8f0       ??1?$vector@U_Loop_vals_t@std@@V?$allocator@U_Loop_vals_t@std@@@2@@std@@QEAA@XZ 000000018000c8f0 f i ClipProcessor.obj
 0001:0000b950       ?_Skip@?$_Matcher@PEBDDV?$regex_traits@D@std@@PEBD@std@@QEAAPEBDPEBD0PEAV_Node_base@2@@Z 000000018000c950 f i ClipProcessor.obj
 0001:0000bc40       ??$_Match@V?$allocator@V?$sub_match@PEBD@std@@@std@@@?$_Matcher@PEBDDV?$regex_traits@D@std@@PEBD@std@@QEAA_NPEAV?$match_results@PEBDV?$allocator@V?$sub_match@PEBD@std@@@std@@@1@_N@Z 000000018000cc40 f i ClipProcessor.obj
 0001:0000be80       ?_Resize@?$match_results@PEBDV?$allocator@V?$sub_match@PEBD@std@@@std@@@std@@QEAAXI@Z 000000018000ce80 f i ClipProcessor.obj
 0001:0000bf50       ?_Match_pat@?$_Matcher@PEBDDV?$regex_traits@D@std@@PEBD@std@@AEAA_NPEAV_Node_base@2@@Z 000000018000cf50 f i ClipProcessor.obj
 0001:0000c4a0       ??$_Compare@PEBDPEBDV?$regex_traits@D@std@@@std@@YAPEBDPEBD000AEBV?$regex_traits@D@0@W4syntax_option_type@regex_constants@0@@Z 000000018000d4a0 f i ClipProcessor.obj
 0001:0000c5d0       ??$_Resize_reallocate@U_Value_init_tag@std@@@?$vector@U_Loop_vals_t@std@@V?$allocator@U_Loop_vals_t@std@@@2@@std@@AEAAX_KAEBU_Value_init_tag@1@@Z 000000018000d5d0 f i ClipProcessor.obj
 0001:0000c5d0       ??$_Resize_reallocate@U_Value_init_tag@std@@@?$vector@U_Grp_t@?$_Tgt_state_t@PEBD@std@@V?$allocator@U_Grp_t@?$_Tgt_state_t@PEBD@std@@@3@@std@@AEAAX_KAEBU_Value_init_tag@1@@Z 000000018000d5d0 f i ClipProcessor.obj
 0001:0000c740       ??0?$_Bt_state_t@PEBD@std@@QEAA@AEBV01@@Z 000000018000d740 f i ClipProcessor.obj
 0001:0000c7f0       ??4?$_Tgt_state_t@PEBD@std@@QEAAAEAV01@AEBV01@@Z 000000018000d7f0 f i ClipProcessor.obj
 0001:0000c890       ??4?$_Bt_state_t@PEBD@std@@QEAAAEAV01@AEBV01@@Z 000000018000d890 f i ClipProcessor.obj
 0001:0000c930       ?_Do_if@?$_Matcher@PEBDDV?$regex_traits@D@std@@PEBD@std@@AEAA_NPEAV_Node_if@2@@Z 000000018000d930 f i ClipProcessor.obj
 0001:0000cd40       ?_Do_rep@?$_Matcher@PEBDDV?$regex_traits@D@std@@PEBD@std@@AEAA_NPEAV_Node_rep@2@_NH@Z 000000018000dd40 f i ClipProcessor.obj
 0001:0000d040       ?_Do_class@?$_Matcher@PEBDDV?$regex_traits@D@std@@PEBD@std@@AEAA_NPEAV_Node_base@2@@Z 000000018000e040 f i ClipProcessor.obj
 0001:0000d200       ?_Better_match@?$_Matcher@PEBDDV?$regex_traits@D@std@@PEBD@std@@AEAA_NXZ 000000018000e200 f i ClipProcessor.obj
 0001:0000d2d0       ?_Is_wbound@?$_Matcher@PEBDDV?$regex_traits@D@std@@PEBD@std@@AEBA_NXZ 000000018000e2d0 f i ClipProcessor.obj
 0001:0000d350       ??$_Resize_reallocate@U_Value_init_tag@std@@@?$vector@V?$sub_match@PEBD@std@@V?$allocator@V?$sub_match@PEBD@std@@@2@@std@@AEAAX_KAEBU_Value_init_tag@1@@Z 000000018000e350 f i ClipProcessor.obj
 0001:0000d550       ??$_Reallocate_grow_by@V<lambda_319d5e083f45f90dcdce5dce53cbb275>@@D@?$basic_string@DU?$char_traits@D@std@@V?$allocator@D@2@@std@@AEAAAEAV01@_KV<lambda_319d5e083f45f90dcdce5dce53cbb275>@@D@Z 000000018000e550 f i ClipProcessor.obj
 0001:0000d6c0       ?_Buy_raw@?$vector@U_Grp_t@?$_Tgt_state_t@PEBD@std@@V?$allocator@U_Grp_t@?$_Tgt_state_t@PEBD@std@@@3@@std@@AEAAX_K@Z 000000018000e6c0 f i ClipProcessor.obj
 0001:0000d750       ?_Do_rep0@?$_Matcher@PEBDDV?$regex_traits@D@std@@PEBD@std@@AEAA_NPEAV_Node_rep@2@_N@Z 000000018000e750 f i ClipProcessor.obj
 0001:0000dc10       ?_Clear_and_reserve_geometric@?$vector@U_Grp_t@?$_Tgt_state_t@PEBD@std@@V?$allocator@U_Grp_t@?$_Tgt_state_t@PEBD@std@@@3@@std@@AEAAX_K@Z 000000018000ec10 f i ClipProcessor.obj
 0001:0000dcc0       ?_Clear_and_reserve_geometric@?$vector@IV?$allocator@I@std@@@std@@AEAAX_K@Z 000000018000ecc0 f i ClipProcessor.obj
 0001:0000dd80       _get_startup_argv_mode     000000018000ed80 f i LIBCMT:argv_mode.obj
 0001:0000dd80       ?do_max_length@codecvt_base@std@@MEBAHXZ 000000018000ed80 f i DataCollector.obj
 0001:0000dd80       ?do_encoding@codecvt_base@std@@MEBAHXZ 000000018000ed80 f i DataCollector.obj
 0001:0000dd80       DllMain                    000000018000ed80 f i LIBCMT:dll_dllmain_stub.obj
 0001:0000dd90       ??_Gios_base@std@@UEAAPEAXI@Z 000000018000ed90 f i DataCollector.obj
 0001:0000dd90       ??_Eios_base@std@@UEAAPEAXI@Z 000000018000ed90 f i * CIL library *:* CIL module *
 0001:0000ddd0       ?_Throw_tree_length_error@std@@YAXXZ 000000018000edd0 f i DataCollector.obj
 0001:0000ddf0       ?CollectStringArrayValue@Collectors@@SAXAEAV?$basic_ostringstream@DU?$char_traits@D@std@@V?$allocator@D@2@@std@@AEBV?$basic_string@DU?$char_traits@D@std@@V?$allocator@D@2@@3@HAEAV?$vector@V?$basic_string@DU?$char_traits@D@std@@V?$allocator@D@2@@std@@V?$allocator@V?$basic_string@DU?$char_traits@D@std@@V?$allocator@D@2@@std@@@2@@3@PEBDAEB_N@Z 000000018000edf0 f i DataCollector.obj
 0001:0000dfa0       ?FormatColor@Collectors@@SA?AV?$basic_string@DU?$char_traits@D@std@@V?$allocator@D@2@@std@@HHH@Z 000000018000efa0 f i DataCollector.obj
 0001:0000e130       ?FormatDB@Collectors@@SA?AV?$basic_string@DU?$char_traits@D@std@@V?$allocator@D@2@@std@@N@Z 000000018000f130 f i DataCollector.obj
 0001:0000e330       ?FormatPan@Collectors@@SA?AV?$basic_string@DU?$char_traits@D@std@@V?$allocator@D@2@@std@@N@Z 000000018000f330 f i DataCollector.obj
 0001:0000e510       ??_D?$basic_ostringstream@DU?$char_traits@D@std@@V?$allocator@D@2@@std@@QEAAXXZ 000000018000f510 f i DataCollector.obj
 0001:0000e5b0       ??0DataCollector@@QEAA@AEAVModel@@@Z 000000018000f5b0 f   DataCollector.obj
 0001:0000ec20       ??_EDataCollector@@UEAAPEAXI@Z 000000018000fc20 f i * CIL library *:* CIL module *
 0001:0000ec20       ??_GDataCollector@@UEAAPEAXI@Z 000000018000fc20 f i DataCollector.obj
 0001:0000ec60       ??1Parameter@@QEAA@XZ      000000018000fc60 f i DataCollector.obj
 0001:0000ee10       ??1DataCollector@@UEAA@XZ  000000018000fe10 f   DataCollector.obj
 0001:0000f490       ?CollectData@DataCollector@@QEAA?AV?$basic_string@DU?$char_traits@D@std@@V?$allocator@D@2@@std@@AEB_NAEAVActionProcessor@@@Z 0000000180010490 f   DataCollector.obj
 0001:0000f990       ?CollectTransportData@DataCollector@@AEAAXAEAV?$basic_ostringstream@DU?$char_traits@D@std@@V?$allocator@D@2@@std@@PEAVReaProject@@AEB_N@Z 0000000180010990 f   DataCollector.obj
 0001:00010a90       ?CollectProjectData@DataCollector@@AEAAXAEAV?$basic_ostringstream@DU?$char_traits@D@std@@V?$allocator@D@2@@std@@PEAVReaProject@@AEB_N@Z 0000000180011a90 f   DataCollector.obj
 0001:00010dd0       ?CollectDeviceData@DataCollector@@AEAAXAEAV?$basic_ostringstream@DU?$char_traits@D@std@@V?$allocator@D@2@@std@@PEAVReaProject@@PEAVMediaTrack@@AEB_N@Z 0000000180011dd0 f   DataCollector.obj
 0001:000130d0       ?CollectTrackData@DataCollector@@AEAAXAEAV?$basic_ostringstream@DU?$char_traits@D@std@@V?$allocator@D@2@@std@@PEAVReaProject@@AEB_N@Z 00000001800140d0 f   DataCollector.obj
 0001:00013930       ?CollectPlayingNotes@DataCollector@@AEAA?AV?$basic_string@DU?$char_traits@D@std@@V?$allocator@D@2@@std@@PEAVReaProject@@PEAVMediaTrack@@@Z 0000000180014930 f   DataCollector.obj
 0001:00013e30       ?CollectMasterTrackData@DataCollector@@AEAAXAEAV?$basic_ostringstream@DU?$char_traits@D@std@@V?$allocator@D@2@@std@@PEAVReaProject@@AEB_N@Z 0000000180014e30 f   DataCollector.obj
 0001:00015130       ?CollectClipData@DataCollector@@AEAAXAEAV?$basic_ostringstream@DU?$char_traits@D@std@@V?$allocator@D@2@@std@@PEAVReaProject@@AEB_N@Z 0000000180016130 f   DataCollector.obj
 0001:00015c90       ?CollectClipNotes@DataCollector@@AEAA?AV?$basic_string@DU?$char_traits@D@std@@V?$allocator@D@2@@std@@PEAVReaProject@@PEAVMediaItem@@@Z 0000000180016c90 f   DataCollector.obj
 0001:000162a0       ?CollectBrowserData@DataCollector@@AEAAXAEAV?$basic_ostringstream@DU?$char_traits@D@std@@V?$allocator@D@2@@std@@PEAVMediaTrack@@AEB_N@Z 00000001800172a0 f   DataCollector.obj
 0001:00016610       ?CollectMarkerData@DataCollector@@AEAAXAEAV?$basic_ostringstream@DU?$char_traits@D@std@@V?$allocator@D@2@@std@@PEAVReaProject@@AEB_N@Z 0000000180017610 f   DataCollector.obj
 0001:00016880       ?CollectSessionData@DataCollector@@AEAAXAEAV?$basic_ostringstream@DU?$char_traits@D@std@@V?$allocator@D@2@@std@@PEAVReaProject@@AEB_N@Z 0000000180017880 f   DataCollector.obj
 0001:00017530       ?CollectNoteRepeatData@DataCollector@@AEAAXAEAV?$basic_ostringstream@DU?$char_traits@D@std@@V?$allocator@D@2@@std@@PEAVReaProject@@AEB_N@Z 0000000180018530 f   DataCollector.obj
 0001:00017af0       ?CollectGrooveData@DataCollector@@AEAAXAEAV?$basic_ostringstream@DU?$char_traits@D@std@@V?$allocator@D@2@@std@@PEAVReaProject@@AEB_N@Z 0000000180018af0 f   DataCollector.obj
 0001:00017d00       ?DelayUpdate@DataCollector@@QEAAXV?$basic_string@DU?$char_traits@D@std@@V?$allocator@D@2@@std@@@Z 0000000180018d00 f   DataCollector.obj
 0001:00017ef0       ?IsActive@DataCollector@@AEAA_NV?$basic_string@DU?$char_traits@D@std@@V?$allocator@D@2@@std@@@Z 0000000180018ef0 f   DataCollector.obj
 0001:00018000       ?CheckDelay@DataCollector@@AEAA_NV?$basic_string@DU?$char_traits@D@std@@V?$allocator@D@2@@std@@@Z 0000000180019000 f   DataCollector.obj
 0001:000181b0       ?LoadDevicePresetFile@DataCollector@@AEAAXAEAV?$basic_ostringstream@DU?$char_traits@D@std@@V?$allocator@D@2@@std@@PEAVMediaTrack@@HAEB_N@Z 00000001800191b0 f   DataCollector.obj
 0001:00018d10       ??_D?$basic_ifstream@DU?$char_traits@D@std@@@std@@QEAAXXZ 0000000180019d10 f i DataCollector.obj
 0001:00018db0       ?imbue@?$basic_filebuf@DU?$char_traits@D@std@@@std@@MEAAXAEBVlocale@2@@Z 0000000180019db0 f i DataCollector.obj
 0001:00018de0       ?sync@?$basic_filebuf@DU?$char_traits@D@std@@@std@@MEAAHXZ 0000000180019de0 f i DataCollector.obj
 0001:00018e30       ?setbuf@?$basic_filebuf@DU?$char_traits@D@std@@@std@@MEAAPEAV?$basic_streambuf@DU?$char_traits@D@std@@@2@PEAD_J@Z 0000000180019e30 f i DataCollector.obj
 0001:00018e90       ?seekpos@?$basic_filebuf@DU?$char_traits@D@std@@@std@@MEAA?AV?$fpos@U_Mbstatet@@@2@V32@H@Z 0000000180019e90 f i DataCollector.obj
 0001:00018f70       ?seekoff@?$basic_filebuf@DU?$char_traits@D@std@@@std@@MEAA?AV?$fpos@U_Mbstatet@@@2@_JHH@Z 0000000180019f70 f i DataCollector.obj
 0001:00019060       ?xsputn@?$basic_filebuf@DU?$char_traits@D@std@@@std@@MEAA_JPEBD_J@Z 000000018001a060 f i DataCollector.obj
 0001:00019190       ?xsgetn@?$basic_filebuf@DU?$char_traits@D@std@@@std@@MEAA_JPEAD_J@Z 000000018001a190 f i DataCollector.obj
 0001:00019350       ?uflow@?$basic_filebuf@DU?$char_traits@D@std@@@std@@MEAAHXZ 000000018001a350 f i DataCollector.obj
 0001:000195f0       ?underflow@?$basic_filebuf@DU?$char_traits@D@std@@@std@@MEAAHXZ 000000018001a5f0 f i DataCollector.obj
 0001:00019660       ?pbackfail@?$basic_filebuf@DU?$char_traits@D@std@@@std@@MEAAHH@Z 000000018001a660 f i DataCollector.obj
 0001:00019750       ?overflow@?$basic_filebuf@DU?$char_traits@D@std@@@std@@MEAAHH@Z 000000018001a750 f i DataCollector.obj
 0001:000198f0       ?_Unlock@?$basic_filebuf@DU?$char_traits@D@std@@@std@@UEAAXXZ 000000018001a8f0 f i DataCollector.obj
 0001:00019910       ?_Lock@?$basic_filebuf@DU?$char_traits@D@std@@@std@@UEAAXXZ 000000018001a910 f i DataCollector.obj
 0001:00019930       ??1?$basic_filebuf@DU?$char_traits@D@std@@@std@@UEAA@XZ 000000018001a930 f i DataCollector.obj
 0001:000199e0       ??1?$basic_istream@DU?$char_traits@D@std@@@std@@UEAA@XZ 000000018001a9e0 f i DataCollector.obj
 0001:00019a10       ??1?$shared_ptr@VParameter@@@std@@QEAA@XZ 000000018001aa10 f i DataCollector.obj
 0001:00019a10       ??1?$shared_ptr@VTrack@@@std@@QEAA@XZ 000000018001aa10 f i DataCollector.obj
 0001:00019a10       ??1?$shared_ptr@VMarker@@@std@@QEAA@XZ 000000018001aa10 f i DataCollector.obj
 0001:00019a60       ?seekpos@?$basic_stringbuf@DU?$char_traits@D@std@@V?$allocator@D@2@@std@@MEAA?AV?$fpos@U_Mbstatet@@@2@V32@H@Z 000000018001aa60 f i DataCollector.obj
 0001:00019b50       ?seekoff@?$basic_stringbuf@DU?$char_traits@D@std@@V?$allocator@D@2@@std@@MEAA?AV?$fpos@U_Mbstatet@@@2@_JHH@Z 000000018001ab50 f i DataCollector.obj
 0001:00019cb0       ?underflow@?$basic_stringbuf@DU?$char_traits@D@std@@V?$allocator@D@2@@std@@MEAAHXZ 000000018001acb0 f i DataCollector.obj
 0001:00019d20       ?pbackfail@?$basic_stringbuf@DU?$char_traits@D@std@@V?$allocator@D@2@@std@@MEAAHH@Z 000000018001ad20 f i DataCollector.obj
 0001:00019d80       ?overflow@?$basic_stringbuf@DU?$char_traits@D@std@@V?$allocator@D@2@@std@@MEAAHH@Z 000000018001ad80 f i DataCollector.obj
 0001:00019f90       ??1?$basic_stringbuf@DU?$char_traits@D@std@@V?$allocator@D@2@@std@@UEAA@XZ 000000018001af90 f i DataCollector.obj
 0001:0001a090       ?Extended@IReaperControlSurface@@UEAAHHPEAX00@Z 000000018001b090 f i DrivenByMossSurface.obj
 0001:0001a090       ?sync@?$basic_streambuf@DU?$char_traits@D@std@@@std@@MEAAHXZ 000000018001b090 f i DataCollector.obj
 0001:0001a090       ?_Get_deleter@_Ref_count_base@std@@UEBAPEAXAEBVtype_info@@@Z 000000018001b090 f i Model.obj
 0001:0001a090       ?showmanyc@?$basic_streambuf@DU?$char_traits@D@std@@@std@@MEAA_JXZ 000000018001b090 f i DataCollector.obj
 0001:0001a0a0       ?setbuf@?$basic_streambuf@DU?$char_traits@D@std@@@std@@MEAAPEAV12@PEAD_J@Z 000000018001b0a0 f i DataCollector.obj
 0001:0001a0b0       ?seekoff@?$basic_streambuf@DU?$char_traits@D@std@@@std@@MEAA?AV?$fpos@U_Mbstatet@@@2@_JHH@Z 000000018001b0b0 f i DataCollector.obj
 0001:0001a0b0       ?seekpos@?$basic_streambuf@DU?$char_traits@D@std@@@std@@MEAA?AV?$fpos@U_Mbstatet@@@2@V32@H@Z 000000018001b0b0 f i DataCollector.obj
 0001:0001a0d0       ?xsputn@?$basic_streambuf@DU?$char_traits@D@std@@@std@@MEAA_JPEBD_J@Z 000000018001b0d0 f i DataCollector.obj
 0001:0001a190       ?xsgetn@?$basic_streambuf@DU?$char_traits@D@std@@@std@@MEAA_JPEAD_J@Z 000000018001b190 f i DataCollector.obj
 0001:0001a240       ?uflow@?$basic_streambuf@DU?$char_traits@D@std@@@std@@MEAAHXZ 000000018001b240 f i DataCollector.obj
 0001:0001a280       ?pbackfail@?$basic_streambuf@DU?$char_traits@D@std@@@std@@MEAAHH@Z 000000018001b280 f i DataCollector.obj
 0001:0001a280       ?overflow@?$basic_streambuf@DU?$char_traits@D@std@@@std@@MEAAHH@Z 000000018001b280 f i DataCollector.obj
 0001:0001a280       ?underflow@?$basic_streambuf@DU?$char_traits@D@std@@@std@@MEAAHXZ 000000018001b280 f i DataCollector.obj
 0001:0001a290       ??1?$basic_streambuf@DU?$char_traits@D@std@@@std@@UEAA@XZ 000000018001b290 f i DataCollector.obj
 0001:0001a2f0       ?str@?$basic_ostringstream@DU?$char_traits@D@std@@V?$allocator@D@2@@std@@QEBA?AV?$basic_string@DU?$char_traits@D@std@@V?$allocator@D@2@@2@XZ 000000018001b2f0 f i DataCollector.obj
 0001:0001a3b0       ??0?$basic_ostringstream@DU?$char_traits@D@std@@V?$allocator@D@2@@std@@QEAA@XZ 000000018001b3b0 f i DataCollector.obj
 0001:0001a490       ??6?$basic_ostream@DU?$char_traits@D@std@@@std@@QEAAAEAV01@N@Z 000000018001b490 f i DataCollector.obj
 0001:0001a650       ??6?$basic_ostream@DU?$char_traits@D@std@@@std@@QEAAAEAV01@_N@Z 000000018001b650 f i DataCollector.obj
 0001:0001a800       ??1?$basic_ostream@DU?$char_traits@D@std@@@std@@UEAA@XZ 000000018001b800 f i DataCollector.obj
 0001:0001a830       ??1?$basic_ios@DU?$char_traits@D@std@@@std@@UEAA@XZ 000000018001b830 f i DataCollector.obj
 0001:0001a850       ??1?$lock_guard@Vmutex@std@@@std@@QEAA@XZ 000000018001b850 f i DataCollector.obj
 0001:0001a860       ??_G?$basic_filebuf@DU?$char_traits@D@std@@@std@@UEAAPEAXI@Z 000000018001b860 f i DataCollector.obj
 0001:0001a860       ??_E?$basic_filebuf@DU?$char_traits@D@std@@@std@@UEAAPEAXI@Z 000000018001b860 f i * CIL library *:* CIL module *
 0001:0001a8a0       ??_E?$basic_ifstream@DU?$char_traits@D@std@@@std@@UEAAPEAXI@Z 000000018001b8a0 f i * CIL library *:* CIL module *
 0001:0001a8a0       ??_G?$basic_ifstream@DU?$char_traits@D@std@@@std@@UEAAPEAXI@Z 000000018001b8a0 f i DataCollector.obj
 0001:0001a8e0       ??_G?$basic_istream@DU?$char_traits@D@std@@@std@@UEAAPEAXI@Z 000000018001b8e0 f i DataCollector.obj
 0001:0001a8e0       ??_E?$basic_istream@DU?$char_traits@D@std@@@std@@UEAAPEAXI@Z 000000018001b8e0 f i * CIL library *:* CIL module *
 0001:0001a950       ??_E?$basic_stringbuf@DU?$char_traits@D@std@@V?$allocator@D@2@@std@@UEAAPEAXI@Z 000000018001b950 f i * CIL library *:* CIL module *
 0001:0001a950       ??_G?$basic_stringbuf@DU?$char_traits@D@std@@V?$allocator@D@2@@std@@UEAAPEAXI@Z 000000018001b950 f i DataCollector.obj
 0001:0001a990       ??_E?$basic_streambuf@DU?$char_traits@D@std@@@std@@UEAAPEAXI@Z 000000018001b990 f i * CIL library *:* CIL module *
 0001:0001a990       ??_G?$basic_streambuf@DU?$char_traits@D@std@@@std@@UEAAPEAXI@Z 000000018001b990 f i DataCollector.obj
 0001:0001aa10       ??_G?$basic_ostringstream@DU?$char_traits@D@std@@V?$allocator@D@2@@std@@UEAAPEAXI@Z 000000018001ba10 f i DataCollector.obj
 0001:0001aa10       ??_E?$basic_ostringstream@DU?$char_traits@D@std@@V?$allocator@D@2@@std@@UEAAPEAXI@Z 000000018001ba10 f i * CIL library *:* CIL module *
 0001:0001aa50       ??_G?$basic_ostream@DU?$char_traits@D@std@@@std@@UEAAPEAXI@Z 000000018001ba50 f i DataCollector.obj
 0001:0001aa50       ??_E?$basic_ostream@DU?$char_traits@D@std@@@std@@UEAAPEAXI@Z 000000018001ba50 f i * CIL library *:* CIL module *
 0001:0001aac0       ??_E?$basic_ios@DU?$char_traits@D@std@@@std@@UEAAPEAXI@Z 000000018001bac0 f i * CIL library *:* CIL module *
 0001:0001aac0       ??_G?$basic_ios@DU?$char_traits@D@std@@@std@@UEAAPEAXI@Z 000000018001bac0 f i DataCollector.obj
 0001:0001ab00       ?do_length@?$codecvt@DDU_Mbstatet@@@std@@MEBAHAEAU_Mbstatet@@PEBD1_K@Z 000000018001bb00 f i DataCollector.obj
 0001:0001ab20       ?do_unshift@?$codecvt@DDU_Mbstatet@@@std@@MEBAHAEAU_Mbstatet@@PEAD1AEAPEAD@Z 000000018001bb20 f i DataCollector.obj
 0001:0001ab30       ?do_out@?$codecvt@DDU_Mbstatet@@@std@@MEBAHAEAU_Mbstatet@@PEBD1AEAPEBDPEAD3AEAPEAD@Z 000000018001bb30 f i DataCollector.obj
 0001:0001ab30       ?do_in@?$codecvt@DDU_Mbstatet@@@std@@MEBAHAEAU_Mbstatet@@PEBD1AEAPEBDPEAD3AEAPEAD@Z 000000018001bb30 f i DataCollector.obj
 0001:0001ab50       ?do_always_noconv@?$codecvt@DDU_Mbstatet@@@std@@MEBA_NXZ 000000018001bb50 f i DataCollector.obj
 0001:0001ab50       __acrt_uninitialize_command_line 000000018001bb50 f i libucrt:argv_data.obj
 0001:0001ab60       ?_Initcvt@?$basic_filebuf@DU?$char_traits@D@std@@@std@@IEAAXAEBV?$codecvt@DDU_Mbstatet@@@2@@Z 000000018001bb60 f i DataCollector.obj
 0001:0001abe0       ?_Endwrite@?$basic_filebuf@DU?$char_traits@D@std@@@std@@IEAA_NXZ 000000018001bbe0 f i DataCollector.obj
 0001:0001acd0       ?_Init@?$basic_filebuf@DU?$char_traits@D@std@@@std@@IEAAXPEAU_iobuf@@W4_Initfl@12@@Z 000000018001bcd0 f i DataCollector.obj
 0001:0001ada0       ?close@?$basic_filebuf@DU?$char_traits@D@std@@@std@@QEAAPEAV12@XZ 000000018001bda0 f i DataCollector.obj
 0001:0001ae60       ?open@?$basic_filebuf@DU?$char_traits@D@std@@@std@@QEAAPEAV12@PEBDHH@Z 000000018001be60 f i DataCollector.obj
 0001:0001af10       ??0?$basic_filebuf@DU?$char_traits@D@std@@@std@@QEAA@XZ 000000018001bf10 f i DataCollector.obj
 0001:0001afa0       ?_Gnavail@?$basic_streambuf@DU?$char_traits@D@std@@@std@@IEBA_JXZ 000000018001bfa0 f i DataCollector.obj
 0001:0001afc0       ?_Erase_unchecked@?$_Tree@V?$_Tmap_traits@V?$basic_string@DU?$char_traits@D@std@@V?$allocator@D@2@@std@@_JU?$less@V?$basic_string@DU?$char_traits@D@std@@V?$allocator@D@2@@std@@@2@V?$allocator@U?$pair@$$CBV?$basic_string@DU?$char_traits@D@std@@V?$allocator@D@2@@std@@_J@std@@@2@$0A@@std@@@std@@AEAAPEAU?$_Tree_node@U?$pair@$$CBV?$basic_string@DU?$char_traits@D@std@@V?$allocator@D@2@@std@@_J@std@@PEAX@2@V?$_Tree_unchecked_const_iterator@V?$_Tree_val@U?$_Tree_simple_types@U?$pair@$$CBV?$basic_string@DU?$char_traits@D@std@@V?$allocator@D@2@@std@@_J@std@@@std@@@std@@U_Iterator_base0@2@@2@0@Z 000000018001bfc0 f i DataCollector.obj
 0001:0001b150       ??0?$basic_streambuf@DU?$char_traits@D@std@@@std@@IEAA@XZ 000000018001c150 f i DataCollector.obj
 0001:0001b1e0       ?init@?$basic_ios@DU?$char_traits@D@std@@@std@@IEAAXPEAV?$basic_streambuf@DU?$char_traits@D@std@@@2@_N@Z 000000018001c1e0 f i DataCollector.obj
 0001:0001b2c0       ?_Extract@?$_Tree_val@U?$_Tree_simple_types@U?$pair@$$CBV?$basic_string@DU?$char_traits@D@std@@V?$allocator@D@2@@std@@_J@std@@@std@@@std@@QEAAPEAU?$_Tree_node@U?$pair@$$CBV?$basic_string@DU?$char_traits@D@std@@V?$allocator@D@2@@std@@_J@std@@PEAX@2@V?$_Tree_unchecked_const_iterator@V?$_Tree_val@U?$_Tree_simple_types@U?$pair@$$CBV?$basic_string@DU?$char_traits@D@std@@V?$allocator@D@2@@std@@_J@std@@@std@@@std@@U_Iterator_base0@2@@2@@Z 000000018001c2c0 f i DataCollector.obj
 0001:0001b760       ??$_Eqrange@V?$basic_string@DU?$char_traits@D@std@@V?$allocator@D@2@@std@@@?$_Tree@V?$_Tmap_traits@V?$basic_string@DU?$char_traits@D@std@@V?$allocator@D@2@@std@@_JU?$less@V?$basic_string@DU?$char_traits@D@std@@V?$allocator@D@2@@std@@@2@V?$allocator@U?$pair@$$CBV?$basic_string@DU?$char_traits@D@std@@V?$allocator@D@2@@std@@_J@std@@@2@$0A@@std@@@std@@IEBA?AU?$pair@PEAU?$_Tree_node@U?$pair@$$CBV?$basic_string@DU?$char_traits@D@std@@V?$allocator@D@2@@std@@_J@std@@PEAX@std@@PEAU12@@1@AEBV?$basic_string@DU?$char_traits@D@std@@V?$allocator@D@2@@1@@Z 000000018001c760 f i DataCollector.obj
 0001:0001b8e0       ??$use_facet@V?$codecvt@DDU_Mbstatet@@@std@@@std@@YAAEBV?$codecvt@DDU_Mbstatet@@@0@AEBVlocale@0@@Z 000000018001c8e0 f i DataCollector.obj
 0001:0001b9f0       ??$_Try_emplace@AEBV?$basic_string@DU?$char_traits@D@std@@V?$allocator@D@2@@std@@$$V@?$map@V?$basic_string@DU?$char_traits@D@std@@V?$allocator@D@2@@std@@_NU?$less@V?$basic_string@DU?$char_traits@D@std@@V?$allocator@D@2@@std@@@2@V?$allocator@U?$pair@$$CBV?$basic_string@DU?$char_traits@D@std@@V?$allocator@D@2@@std@@_N@std@@@2@@std@@AEAA?AU?$pair@PEAU?$_Tree_node@U?$pair@$$CBV?$basic_string@DU?$char_traits@D@std@@V?$allocator@D@2@@std@@_N@std@@PEAX@std@@_N@1@AEBV?$basic_string@DU?$char_traits@D@std@@V?$allocator@D@2@@1@@Z 000000018001c9f0 f i DataCollector.obj
 0001:0001bbd0       ??$_Emplace_reallocate@V?$basic_string@DU?$char_traits@D@std@@V?$allocator@D@2@@std@@@?$vector@V?$basic_string@DU?$char_traits@D@std@@V?$allocator@D@2@@std@@V?$allocator@V?$basic_string@DU?$char_traits@D@std@@V?$allocator@D@2@@std@@@2@@std@@QEAAPEAV?$basic_string@DU?$char_traits@D@std@@V?$allocator@D@2@@1@QEAV21@$$QEAV21@@Z 000000018001cbd0 f i DataCollector.obj
 0001:0001be60       ??$_Erase_tree@V?$allocator@U?$_Tree_node@U?$pair@$$CBV?$basic_string@DU?$char_traits@D@std@@V?$allocator@D@2@@std@@PEAVOscProcessor@@@std@@PEAX@std@@@std@@@?$_Tree_val@U?$_Tree_simple_types@U?$pair@$$CBV?$basic_string@DU?$char_traits@D@std@@V?$allocator@D@2@@std@@PEAVOscProcessor@@@std@@@std@@@std@@QEAAXAEAV?$allocator@U?$_Tree_node@U?$pair@$$CBV?$basic_string@DU?$char_traits@D@std@@V?$allocator@D@2@@std@@PEAVOscProcessor@@@std@@PEAX@std@@@1@PEAU?$_Tree_node@U?$pair@$$CBV?$basic_string@DU?$char_traits@D@std@@V?$allocator@D@2@@std@@PEAVOscProcessor@@@std@@PEAX@1@@Z 000000018001ce60 f i DrivenByMossSurface.obj
 0001:0001be60       ??$_Erase_tree@V?$allocator@U?$_Tree_node@U?$pair@$$CBV?$basic_string@DU?$char_traits@D@std@@V?$allocator@D@2@@std@@_J@std@@PEAX@std@@@std@@@?$_Tree_val@U?$_Tree_simple_types@U?$pair@$$CBV?$basic_string@DU?$char_traits@D@std@@V?$allocator@D@2@@std@@_J@std@@@std@@@std@@QEAAXAEAV?$allocator@U?$_Tree_node@U?$pair@$$CBV?$basic_string@DU?$char_traits@D@std@@V?$allocator@D@2@@std@@_J@std@@PEAX@std@@@1@PEAU?$_Tree_node@U?$pair@$$CBV?$basic_string@DU?$char_traits@D@std@@V?$allocator@D@2@@std@@_J@std@@PEAX@1@@Z 000000018001ce60 f i DataCollector.obj
 0001:0001be60       ??$_Erase_tree@V?$allocator@U?$_Tree_node@U?$pair@$$CBV?$basic_string@DU?$char_traits@D@std@@V?$allocator@D@2@@std@@_N@std@@PEAX@std@@@std@@@?$_Tree_val@U?$_Tree_simple_types@U?$pair@$$CBV?$basic_string@DU?$char_traits@D@std@@V?$allocator@D@2@@std@@_N@std@@@std@@@std@@QEAAXAEAV?$allocator@U?$_Tree_node@U?$pair@$$CBV?$basic_string@DU?$char_traits@D@std@@V?$allocator@D@2@@std@@_N@std@@PEAX@std@@@1@PEAU?$_Tree_node@U?$pair@$$CBV?$basic_string@DU?$char_traits@D@std@@V?$allocator@D@2@@std@@_N@std@@PEAX@1@@Z 000000018001ce60 f i DataCollector.obj
 0001:0001bf20       ?_Getcat@?$codecvt@DDU_Mbstatet@@@std@@SA_KPEAPEBVfacet@locale@2@PEBV42@@Z 000000018001cf20 f i DataCollector.obj
 0001:0001c0a0       ?_Insert_node@?$_Tree_val@U?$_Tree_simple_types@U?$pair@$$CBV?$basic_string@DU?$char_traits@D@std@@V?$allocator@D@2@@std@@_J@std@@@std@@@std@@QEAAPEAU?$_Tree_node@U?$pair@$$CBV?$basic_string@DU?$char_traits@D@std@@V?$allocator@D@2@@std@@_J@std@@PEAX@2@U?$_Tree_id@PEAU?$_Tree_node@U?$pair@$$CBV?$basic_string@DU?$char_traits@D@std@@V?$allocator@D@2@@std@@_J@std@@PEAX@std@@@2@QEAU32@@Z 000000018001d0a0 f i DataCollector.obj
 0001:0001c0a0       ?_Insert_node@?$_Tree_val@U?$_Tree_simple_types@U?$pair@$$CBV?$basic_string@DU?$char_traits@D@std@@V?$allocator@D@2@@std@@PEAVOscProcessor@@@std@@@std@@@std@@QEAAPEAU?$_Tree_node@U?$pair@$$CBV?$basic_string@DU?$char_traits@D@std@@V?$allocator@D@2@@std@@PEAVOscProcessor@@@std@@PEAX@2@U?$_Tree_id@PEAU?$_Tree_node@U?$pair@$$CBV?$basic_string@DU?$char_traits@D@std@@V?$allocator@D@2@@std@@PEAVOscProcessor@@@std@@PEAX@std@@@2@QEAU32@@Z 000000018001d0a0 f i OscParser.obj
 0001:0001c0a0       ?_Insert_node@?$_Tree_val@U?$_Tree_simple_types@U?$pair@$$CBV?$basic_string@DU?$char_traits@D@std@@V?$allocator@D@2@@std@@_N@std@@@std@@@std@@QEAAPEAU?$_Tree_node@U?$pair@$$CBV?$basic_string@DU?$char_traits@D@std@@V?$allocator@D@2@@std@@_N@std@@PEAX@2@U?$_Tree_id@PEAU?$_Tree_node@U?$pair@$$CBV?$basic_string@DU?$char_traits@D@std@@V?$allocator@D@2@@std@@_N@std@@PEAX@std@@@2@QEAU32@@Z 000000018001d0a0 f i DataCollector.obj
 0001:0001c320       ??1?$_Alloc_construct_ptr@V?$allocator@U?$_Tree_node@U?$pair@$$CBV?$basic_string@DU?$char_traits@D@std@@V?$allocator@D@2@@std@@PEAVOscProcessor@@@std@@PEAX@std@@@std@@@std@@QEAA@XZ 000000018001d320 f i OscParser.obj
 0001:0001c320       ??1?$_Alloc_construct_ptr@V?$allocator@U?$_Tree_node@U?$pair@$$CBV?$basic_string@DU?$char_traits@D@std@@V?$allocator@D@2@@std@@_J@std@@PEAX@std@@@std@@@std@@QEAA@XZ 000000018001d320 f i DataCollector.obj
 0001:0001c320       ??1?$_Tree_temp_node_alloc@V?$allocator@U?$_Tree_node@U?$pair@$$CBV?$basic_string@DU?$char_traits@D@std@@V?$allocator@D@2@@std@@_J@std@@PEAX@std@@@std@@@std@@QEAA@XZ 000000018001d320 f i DataCollector.obj
 0001:0001c320       ??1?$_Tree_temp_node_alloc@V?$allocator@U?$_Tree_node@U?$pair@$$CBV?$basic_string@DU?$char_traits@D@std@@V?$allocator@D@2@@std@@_N@std@@PEAX@std@@@std@@@std@@QEAA@XZ 000000018001d320 f i DataCollector.obj
 0001:0001c320       ??1?$_Alloc_construct_ptr@V?$allocator@U?$_Tree_node@U?$pair@$$CBV?$basic_string@DU?$char_traits@D@std@@V?$allocator@D@2@@std@@_N@std@@PEAX@std@@@std@@@std@@QEAA@XZ 000000018001d320 f i DataCollector.obj
 0001:0001c340       ??$getline@DU?$char_traits@D@std@@V?$allocator@D@2@@std@@YAAEAV?$basic_istream@DU?$char_traits@D@std@@@0@$$QEAV10@AEAV?$basic_string@DU?$char_traits@D@std@@V?$allocator@D@2@@0@D@Z 000000018001d340 f i DataCollector.obj
 0001:0001c5c0       ??$_Find_lower_bound@V?$basic_string@DU?$char_traits@D@std@@V?$allocator@D@2@@std@@@?$_Tree@V?$_Tmap_traits@V?$basic_string@DU?$char_traits@D@std@@V?$allocator@D@2@@std@@_JU?$less@V?$basic_string@DU?$char_traits@D@std@@V?$allocator@D@2@@std@@@2@V?$allocator@U?$pair@$$CBV?$basic_string@DU?$char_traits@D@std@@V?$allocator@D@2@@std@@_J@std@@@2@$0A@@std@@@std@@IEBA?AU?$_Tree_find_result@PEAU?$_Tree_node@U?$pair@$$CBV?$basic_string@DU?$char_traits@D@std@@V?$allocator@D@2@@std@@_J@std@@PEAX@std@@@1@AEBV?$basic_string@DU?$char_traits@D@std@@V?$allocator@D@2@@1@@Z 000000018001d5c0 f i DataCollector.obj
 0001:0001c5c0       ??$_Find_lower_bound@V?$basic_string@DU?$char_traits@D@std@@V?$allocator@D@2@@std@@@?$_Tree@V?$_Tmap_traits@V?$basic_string@DU?$char_traits@D@std@@V?$allocator@D@2@@std@@PEAVOscProcessor@@U?$less@V?$basic_string@DU?$char_traits@D@std@@V?$allocator@D@2@@std@@@2@V?$allocator@U?$pair@$$CBV?$basic_string@DU?$char_traits@D@std@@V?$allocator@D@2@@std@@PEAVOscProcessor@@@std@@@2@$0A@@std@@@std@@IEBA?AU?$_Tree_find_result@PEAU?$_Tree_node@U?$pair@$$CBV?$basic_string@DU?$char_traits@D@std@@V?$allocator@D@2@@std@@PEAVOscProcessor@@@std@@PEAX@std@@@1@AEBV?$basic_string@DU?$char_traits@D@std@@V?$allocator@D@2@@1@@Z 000000018001d5c0 f i OscParser.obj
 0001:0001c680       ??1sentry@?$basic_istream@DU?$char_traits@D@std@@@std@@QEAA@XZ 000000018001d680 f i DataCollector.obj
 0001:0001c6b0       ?_Ipfx@?$basic_istream@DU?$char_traits@D@std@@@std@@QEAA_N_N@Z 000000018001d6b0 f i DataCollector.obj
 0001:0001c714       ??_E?$basic_ostream@DU?$char_traits@D@std@@@std@@$4PPPPPPPM@A@EAAPEAXI@Z 000000018001d714 f i DataCollector.obj
 0001:0001c720       ??_E?$basic_ifstream@DU?$char_traits@D@std@@@std@@$4PPPPPPPM@A@EAAPEAXI@Z 000000018001d720 f i DataCollector.obj
 0001:0001c72c       ??_E?$basic_istream@DU?$char_traits@D@std@@@std@@$4PPPPPPPM@A@EAAPEAXI@Z 000000018001d72c f i DataCollector.obj
 0001:0001c738       ??_E?$basic_ostringstream@DU?$char_traits@D@std@@V?$allocator@D@2@@std@@$4PPPPPPPM@A@EAAPEAXI@Z 000000018001d738 f i DataCollector.obj
 0001:0001c750       ?Process@DeviceProcessor@@UEAAXAEAV?$deque@V?$basic_string@DU?$char_traits@D@std@@V?$allocator@D@2@@std@@V?$allocator@V?$basic_string@DU?$char_traits@D@std@@V?$allocator@D@2@@std@@@2@@std@@@Z 000000018001d750 f   DeviceProcessor.obj
 0001:0001c9d0       ?Process@DeviceProcessor@@UEAAXAEAV?$deque@V?$basic_string@DU?$char_traits@D@std@@V?$allocator@D@2@@std@@V?$allocator@V?$basic_string@DU?$char_traits@D@std@@V?$allocator@D@2@@std@@@2@@std@@H@Z 000000018001d9d0 f   DeviceProcessor.obj
 0001:0001cc50       ?Process@DeviceProcessor@@UEAAXAEAV?$deque@V?$basic_string@DU?$char_traits@D@std@@V?$allocator@D@2@@std@@V?$allocator@V?$basic_string@DU?$char_traits@D@std@@V?$allocator@D@2@@std@@@2@@std@@N@Z 000000018001dc50 f   DeviceProcessor.obj
 0001:0001cd80       ?Process@DeviceProcessor@@UEAAXAEAV?$deque@V?$basic_string@DU?$char_traits@D@std@@V?$allocator@D@2@@std@@V?$allocator@V?$basic_string@DU?$char_traits@D@std@@V?$allocator@D@2@@std@@@2@@std@@AEBV?$basic_string@DU?$char_traits@D@std@@V?$allocator@D@2@@3@@Z 000000018001dd80 f   DeviceProcessor.obj
 0001:0001d280       ?Resize@WDL_HeapBuf@@QEAAPEAXH_N@Z 000000018001e280 f i dllmain.obj
 0001:0001d3b0       ?parseDestroyBuffer@LineParserInt@@QEAAHPEAD_N11@Z 000000018001e3b0 f i dllmain.obj
 0001:0001d5c0       ?processNoArgCPP@@YAXPEAUJNIEnv_@@PEAV_jobject@@PEAV_jstring@@2@Z 000000018001e5c0 f   dllmain.obj
 0001:0001d960       ?processStringArgCPP@@YAXPEAUJNIEnv_@@PEAV_jobject@@PEAV_jstring@@22@Z 000000018001e960 f   dllmain.obj
 0001:0001de90       ?processIntArgCPP@@YAXPEAUJNIEnv_@@PEAV_jobject@@PEAV_jstring@@2J@Z 000000018001ee90 f   dllmain.obj
 0001:0001e230       ?processDoubleArgCPP@@YAXPEAUJNIEnv_@@PEAV_jobject@@PEAV_jstring@@2N@Z 000000018001f230 f   dllmain.obj
 0001:0001e5d0       ?enableUpdatesCPP@@YAXPEAUJNIEnv_@@PEAV_jobject@@PEAV_jstring@@E@Z 000000018001f5d0 f   dllmain.obj
 0001:0001e830       ?delayUpdatesCPP@@YAXPEAUJNIEnv_@@PEAV_jobject@@PEAV_jstring@@@Z 000000018001f830 f   dllmain.obj
 0001:0001ea20       ?processMidiArgCPP@@YAXPEBUJNIEnv_@@PEAV_jobject@@JJJ@Z 000000018001fa20 f   dllmain.obj
 0001:0001ea60       ?hookCommandProc@@YA_NHH@Z 000000018001fa60 f   dllmain.obj
 0001:0001ef00       ?createFunc@@YAPEAVIReaperControlSurface@@PEBD0PEAH@Z 000000018001ff00 f   dllmain.obj
 0001:0001f1c0       ?ProcessExtensionLine@@YA_NPEBDPEAVProjectStateContext@@_NPEAUproject_config_extension_t@@@Z 00000001800201c0 f   dllmain.obj
 0001:0001f550       ??1LineParser@@QEAA@XZ     0000000180020550 f i dllmain.obj
 0001:0001f580       ?SaveExtensionConfig@@YAXPEAVProjectStateContext@@_NPEAUproject_config_extension_t@@@Z 0000000180020580 f   dllmain.obj
 0001:0001f7a0       ?BeginLoadProjectState@@YAX_NPEAUproject_config_extension_t@@@Z 00000001800207a0 f   dllmain.obj
 0001:0001f830       ReaperPluginEntry          0000000180020830 f   dllmain.obj
 0001:0001fb50       ??1?$basic_string@_WU?$char_traits@_W@std@@V?$allocator@_W@2@@std@@QEAA@XZ 0000000180020b50 f i dllmain.obj
 0001:0001fbc0       ?IsKeyDown@IReaperControlSurface@@UEAA_NH@Z 0000000180020bc0 f i DrivenByMossSurface.obj
 0001:0001fbc0       ?GetTouchState@IReaperControlSurface@@UEAA_NPEAVMediaTrack@@H@Z 0000000180020bc0 f i DrivenByMossSurface.obj
 0001:0001fbd0       ??_EIReaperControlSurface@@UEAAPEAXI@Z 0000000180020bd0 f i * CIL library *:* CIL module *
 0001:0001fbd0       ??_GIReaperControlSurface@@UEAAPEAXI@Z 0000000180020bd0 f i DrivenByMossSurface.obj
 0001:0001fc00       ?Process@PlayProcessor@@UEAAXAEAV?$deque@V?$basic_string@DU?$char_traits@D@std@@V?$allocator@D@2@@std@@V?$allocator@V?$basic_string@DU?$char_traits@D@std@@V?$allocator@D@2@@std@@@2@@std@@@Z 0000000180020c00 f i DrivenByMossSurface.obj
 0001:0001fc40       ?Process@StopProcessor@@UEAAXAEAV?$deque@V?$basic_string@DU?$char_traits@D@std@@V?$allocator@D@2@@std@@V?$allocator@V?$basic_string@DU?$char_traits@D@std@@V?$allocator@D@2@@std@@@2@@std@@@Z 0000000180020c40 f i DrivenByMossSurface.obj
 0001:0001fc50       ??1OscParser@@UEAA@XZ      0000000180020c50 f i DrivenByMossSurface.obj
 0001:000201b0       ??_GOscParser@@UEAAPEAXI@Z 00000001800211b0 f i DrivenByMossSurface.obj
 0001:000201b0       ??_EOscParser@@UEAAPEAXI@Z 00000001800211b0 f i * CIL library *:* CIL module *
 0001:000201f0       ??1?$map@V?$basic_string@DU?$char_traits@D@std@@V?$allocator@D@2@@std@@PEAVOscProcessor@@U?$less@V?$basic_string@DU?$char_traits@D@std@@V?$allocator@D@2@@std@@@2@V?$allocator@U?$pair@$$CBV?$basic_string@DU?$char_traits@D@std@@V?$allocator@D@2@@std@@PEAVOscProcessor@@@std@@@2@@std@@QEAA@XZ 00000001800211f0 f i DrivenByMossSurface.obj
 0001:00020220       ??_EDrivenByMossSurface@@UEAAPEAXI@Z 0000000180021220 f i * CIL library *:* CIL module *
 0001:00020220       ??_GDrivenByMossSurface@@UEAAPEAXI@Z 0000000180021220 f i DrivenByMossSurface.obj
 0001:000202c0       ??1Model@@QEAA@XZ          00000001800212c0 f i DrivenByMossSurface.obj
 0001:00020350       ?GetTypeString@DrivenByMossSurface@@UEAAPEBDXZ 0000000180021350 f   DrivenByMossSurface.obj
 0001:00020360       ?GetDescString@DrivenByMossSurface@@UEAAPEBDXZ 0000000180021360 f   DrivenByMossSurface.obj
 0001:00020370       ?GetConfigString@DrivenByMossSurface@@UEAAPEBDXZ 0000000180021370 f   DrivenByMossSurface.obj
 0001:00020380       ?Run@DrivenByMossSurface@@UEAAXXZ 0000000180021380 f   DrivenByMossSurface.obj
 0001:00020620       ?GetTouchState@DrivenByMossSurface@@UEAA_NPEAVMediaTrack@@H@Z 0000000180021620 f   DrivenByMossSurface.obj
 0001:000206e0       ??1?$vector@V?$shared_ptr@VMarker@@@std@@V?$allocator@V?$shared_ptr@VMarker@@@std@@@2@@std@@QEAA@XZ 00000001800216e0 f i DrivenByMossSurface.obj
 0001:000206e0       ??1?$vector@V?$shared_ptr@VParameter@@@std@@V?$allocator@V?$shared_ptr@VParameter@@@std@@@2@@std@@QEAA@XZ 00000001800216e0 f i DrivenByMossSurface.obj
 0001:000206e0       ??1?$vector@V?$shared_ptr@VTrack@@@std@@V?$allocator@V?$shared_ptr@VTrack@@@std@@@2@@std@@QEAA@XZ 00000001800216e0 f i DrivenByMossSurface.obj
 0001:00020750       ??1?$vector@V?$function@$$A6AXXZ@std@@V?$allocator@V?$function@$$A6AXXZ@std@@@2@@std@@QEAA@XZ 0000000180021750 f i DrivenByMossSurface.obj
 0001:00020800       ?_Destroy@?$vector@V?$function@$$A6AXXZ@std@@V?$allocator@V?$function@$$A6AXXZ@std@@@2@@std@@AEAAXPEAV?$function@$$A6AXXZ@2@0@Z 0000000180021800 f i DrivenByMossSurface.obj
 0001:00020860       ?deallocate@?$allocator@V?$function@$$A6AXXZ@std@@@std@@QEAAXQEAV?$function@$$A6AXXZ@2@_K@Z 0000000180021860 f i DrivenByMossSurface.obj
 0001:000208b0       ??$_Destroy_range@V?$allocator@V?$shared_ptr@VParameter@@@std@@@std@@@std@@YAXPEAV?$shared_ptr@VParameter@@@0@QEAV10@AEAV?$allocator@V?$shared_ptr@VParameter@@@std@@@0@@Z 00000001800218b0 f i DrivenByMossSurface.obj
 0001:000208b0       ??$_Destroy_range@V?$allocator@V?$shared_ptr@VTrack@@@std@@@std@@@std@@YAXPEAV?$shared_ptr@VTrack@@@0@QEAV10@AEAV?$allocator@V?$shared_ptr@VTrack@@@std@@@0@@Z 00000001800218b0 f i DrivenByMossSurface.obj
 0001:000208b0       ??$_Destroy_range@V?$allocator@V?$shared_ptr@VMarker@@@std@@@std@@@std@@YAXPEAV?$shared_ptr@VMarker@@@0@QEAV10@AEAV?$allocator@V?$shared_ptr@VMarker@@@std@@@0@@Z 00000001800218b0 f i DrivenByMossSurface.obj
 0001:00020930       ??1?$_Func_class@X$$V@std@@QEAA@XZ 0000000180021930 f i DrivenByMossSurface.obj
 0001:00020930       ??1?$function@$$A6AXXZ@std@@QEAA@XZ 0000000180021930 f i DrivenByMossSurface.obj
 0001:00020960       ??$_Emplace_reallocate@AEBV?$function@$$A6AXXZ@std@@@?$vector@V?$function@$$A6AXXZ@std@@V?$allocator@V?$function@$$A6AXXZ@std@@@2@@std@@QEAAPEAV?$function@$$A6AXXZ@1@QEAV21@AEBV21@@Z 0000000180021960 f i FunctionExecutor.obj
 0001:00020b90       ??$_Uninitialized_move@PEAV?$function@$$A6AXXZ@std@@V?$allocator@V?$function@$$A6AXXZ@std@@@2@@std@@YAPEAV?$function@$$A6AXXZ@0@QEAV10@0PEAV10@AEAV?$allocator@V?$function@$$A6AXXZ@std@@@0@@Z 0000000180021b90 f i FunctionExecutor.obj
 0001:00020c40       ?Process@GrooveProcessor@@UEAAXAEAV?$deque@V?$basic_string@DU?$char_traits@D@std@@V?$allocator@D@2@@std@@V?$allocator@V?$basic_string@DU?$char_traits@D@std@@V?$allocator@D@2@@std@@@2@@std@@N@Z 0000000180021c40 f   GrooveProcessor.obj
 0001:00020d20       ?to_string@std@@YA?AV?$basic_string@DU?$char_traits@D@std@@V?$allocator@D@2@@1@H@Z 0000000180021d20 f i IniFileProcessor.obj
 0001:00020e00       ?Process@IniFileProcessor@@UEAAXAEAV?$deque@V?$basic_string@DU?$char_traits@D@std@@V?$allocator@D@2@@std@@V?$allocator@V?$basic_string@DU?$char_traits@D@std@@V?$allocator@D@2@@std@@@2@@std@@H@Z 0000000180021e00 f   IniFileProcessor.obj
 0001:000217d0       ?CallObjectMethod@JNIEnv_@@QEAAPEAV_jobject@@PEAV2@PEAU_jmethodID@@ZZ 00000001800227d0 f i JvmManager.obj
 0001:00021800       ?CallStaticObjectMethod@JNIEnv_@@QEAAPEAV_jobject@@PEAV_jclass@@PEAU_jmethodID@@ZZ 0000000180022800 f i JvmManager.obj
 0001:00021830       ?CallStaticVoidMethod@JNIEnv_@@QEAAXPEAV_jclass@@PEAU_jmethodID@@ZZ 0000000180022830 f i JvmManager.obj
 0001:00021860       ??1JvmManager@@QEAA@XZ     0000000180022860 f   JvmManager.obj
 0001:00021a10       ?init@JvmManager@@QEAAXPEAX000000@Z 0000000180022a10 f   JvmManager.obj
 0001:00021ca0       ?Create@JvmManager@@AEAAXXZ 0000000180022ca0 f   JvmManager.obj
 0001:00021fd0       ?LoadJvmLibrary@JvmManager@@AEAA_NXZ 0000000180022fd0 f   JvmManager.obj
 0001:000224f0       ?LookupJvmLibrary@JvmManager@@AEBA?AV?$basic_string@DU?$char_traits@D@std@@V?$allocator@D@2@@std@@AEBV23@@Z 00000001800234f0 f   JvmManager.obj
 0001:000228d0       ?DisplayWindow@JvmManager@@QEAAXXZ 00000001800238d0 f   JvmManager.obj
 0001:00022940       ?getDylibPath@@YA?AV?$basic_string@DU?$char_traits@D@std@@V?$allocator@D@2@@std@@XZ 0000000180023940 f   JvmManager.obj
 0001:00022b10       ?CreateClasspath@JvmManager@@AEBA?AV?$basic_string@DU?$char_traits@D@std@@V?$allocator@D@2@@std@@AEBV23@@Z 0000000180023b10 f   JvmManager.obj
 0001:000232a0       ?GetLibraryPath@JvmManager@@AEBA?AV?$basic_string@DU?$char_traits@D@std@@V?$allocator@D@2@@std@@XZ 00000001800242a0 f   JvmManager.obj
 0001:000234f0       ?GetDirectoryFiles@JvmManager@@AEBA?AV?$vector@V?$basic_string@DU?$char_traits@D@std@@V?$allocator@D@2@@std@@V?$allocator@V?$basic_string@DU?$char_traits@D@std@@V?$allocator@D@2@@std@@@2@@std@@AEBV?$basic_string@DU?$char_traits@D@std@@V?$allocator@D@2@@3@@Z 00000001800244f0 f   JvmManager.obj
 0001:00023a00       ?HandleException@JvmManager@@AEBAXPEBD@Z 0000000180024a00 f   JvmManager.obj
 0001:00023b30       ?GetControllerClass@JvmManager@@AEAAPEAV_jclass@@XZ 0000000180024b30 f   JvmManager.obj
 0001:00023be0       ??6?$basic_ostream@DU?$char_traits@D@std@@@std@@QEAAAEAV01@K@Z 0000000180024be0 f i JvmManager.obj
 0001:00023d90       ??1?$unique_ptr@$$BY0A@UJavaVMOption@@U?$default_delete@$$BY0A@UJavaVMOption@@@std@@@std@@QEAA@XZ 0000000180024d90 f i JvmManager.obj
 0001:00023da0       ?assign@?$basic_string@_WU?$char_traits@_W@std@@V?$allocator@_W@2@@std@@QEAAAEAV12@QEB_W_K@Z 0000000180024da0 f i JvmManager.obj
 0001:00023f40       ??$?HDU?$char_traits@D@std@@V?$allocator@D@1@@std@@YA?AV?$basic_string@DU?$char_traits@D@std@@V?$allocator@D@2@@0@AEBV10@QEBD@Z 0000000180024f40 f i JvmManager.obj
 0001:00023fb0       ??0?$basic_string@DU?$char_traits@D@std@@V?$allocator@D@2@@std@@QEAA@U_String_constructor_concat_tag@1@AEBV01@QEBD_K23@Z 0000000180024fb0 f i JvmManager.obj
 0001:000240d0       ??_GMarker@@UEAAPEAXI@Z    00000001800250d0 f i Marker.obj
 0001:000240d0       ??_EMarker@@UEAAPEAXI@Z    00000001800250d0 f i * CIL library *:* CIL module *
 0001:000241b0       ?CollectData@Marker@@QEAAXAEAV?$basic_ostringstream@DU?$char_traits@D@std@@V?$allocator@D@2@@std@@PEAVReaProject@@PEBDHHAEB_N@Z 00000001800251b0 f   Marker.obj
 0001:00024da0       ?GetMarkers@Marker@@SA?AV?$vector@HV?$allocator@H@std@@@std@@PEAVReaProject@@@Z 0000000180025da0 f   Marker.obj
 0001:00024ea0       ?GetRegions@Marker@@SA?AV?$vector@HV?$allocator@H@std@@@std@@PEAVReaProject@@@Z 0000000180025ea0 f   Marker.obj
 0001:00024fa0       ??$_Emplace_reallocate@AEBH@?$vector@HV?$allocator@H@std@@@std@@QEAAPEAHQEAHAEBH@Z 0000000180025fa0 f i Marker.obj
 0001:00025140       ?Process@MarkerProcessor@@UEAAXAEAV?$deque@V?$basic_string@DU?$char_traits@D@std@@V?$allocator@D@2@@std@@V?$allocator@V?$basic_string@DU?$char_traits@D@std@@V?$allocator@D@2@@std@@@2@@std@@@Z 0000000180026140 f   MarkerProcessor.obj
 0001:000255e0       ?Process@MastertrackProcessor@@UEAAXAEAV?$deque@V?$basic_string@DU?$char_traits@D@std@@V?$allocator@D@2@@std@@V?$allocator@V?$basic_string@DU?$char_traits@D@std@@V?$allocator@D@2@@std@@@2@@std@@H@Z 00000001800265e0 f   MastertrackProcessor.obj
 0001:000257e0       ?Process@MastertrackProcessor@@UEAAXAEAV?$deque@V?$basic_string@DU?$char_traits@D@std@@V?$allocator@D@2@@std@@V?$allocator@V?$basic_string@DU?$char_traits@D@std@@V?$allocator@D@2@@std@@@2@@std@@N@Z 00000001800267e0 f   MastertrackProcessor.obj
 0001:00025a10       ?Process@MastertrackProcessor@@UEAAXAEAV?$deque@V?$basic_string@DU?$char_traits@D@std@@V?$allocator@D@2@@std@@V?$allocator@V?$basic_string@DU?$char_traits@D@std@@V?$allocator@D@2@@std@@@2@@std@@AEBV?$basic_string@DU?$char_traits@D@std@@V?$allocator@D@2@@3@@Z 0000000180026a10 f   MastertrackProcessor.obj
 0001:00025aa0       ?SetColorOfTrack@MastertrackProcessor@@AEAAXPEAVReaProject@@PEAVMediaTrack@@AEBV?$basic_string@DU?$char_traits@D@std@@V?$allocator@D@2@@std@@@Z 0000000180026aa0 f   MastertrackProcessor.obj
 0001:00025f70       ?AddFunction@Model@@QEAAXV?$function@$$A6AXXZ@std@@@Z 0000000180026f70 f   Model.obj
 0001:000260c0       ?GetTrack@Model@@QEAA?AV?$shared_ptr@VTrack@@@std@@H@Z 00000001800270c0 f   Model.obj
 0001:00026350       ?GetMarker@Model@@QEAA?AV?$shared_ptr@VMarker@@@std@@H@Z 0000000180027350 f   Model.obj
 0001:00026510       ?GetRegion@Model@@QEAA?AV?$shared_ptr@VMarker@@@std@@H@Z 0000000180027510 f   Model.obj
 0001:000266d0       ?GetParameter@Model@@QEAA?AV?$shared_ptr@VParameter@@@std@@H@Z 00000001800276d0 f   Model.obj
 0001:00026870       ?GetEqParameter@Model@@QEAA?AV?$shared_ptr@VParameter@@@std@@H@Z 0000000180027870 f   Model.obj
 0001:00026a10       ?GetUserParameter@Model@@QEAA?AV?$shared_ptr@VParameter@@@std@@H@Z 0000000180027a10 f   Model.obj
 0001:00026bb0       ??$_Emplace_reallocate@V?$shared_ptr@VParameter@@@std@@@?$vector@V?$shared_ptr@VParameter@@@std@@V?$allocator@V?$shared_ptr@VParameter@@@std@@@2@@std@@QEAAPEAV?$shared_ptr@VParameter@@@1@QEAV21@$$QEAV21@@Z 0000000180027bb0 f i Model.obj
 0001:00026bb0       ??$_Emplace_reallocate@V?$shared_ptr@VTrack@@@std@@@?$vector@V?$shared_ptr@VTrack@@@std@@V?$allocator@V?$shared_ptr@VTrack@@@std@@@2@@std@@QEAAPEAV?$shared_ptr@VTrack@@@1@QEAV21@$$QEAV21@@Z 0000000180027bb0 f i Model.obj
 0001:00026bb0       ??$_Emplace_reallocate@V?$shared_ptr@VMarker@@@std@@@?$vector@V?$shared_ptr@VMarker@@@std@@V?$allocator@V?$shared_ptr@VMarker@@@std@@@2@@std@@QEAAPEAV?$shared_ptr@VMarker@@@1@QEAV21@$$QEAV21@@Z 0000000180027bb0 f i Model.obj
 0001:00026e00       ?_Delete_this@?$_Ref_count_obj2@VMarker@@@std@@EEAAXXZ 0000000180027e00 f i Model.obj
 0001:00026e00       ?_Delete_this@?$_Ref_count_obj2@VTrack@@@std@@EEAAXXZ 0000000180027e00 f i Model.obj
 0001:00026e00       ?_Delete_this@?$_Ref_count_obj2@VParameter@@@std@@EEAAXXZ 0000000180027e00 f i Model.obj
 0001:00026e20       ?_Destroy@?$_Ref_count_obj2@VParameter@@@std@@EEAAXXZ 0000000180027e20 f i Model.obj
 0001:00026e30       ?_Destroy@?$_Ref_count_obj2@VMarker@@@std@@EEAAXXZ 0000000180027e30 f i Model.obj
 0001:00026e40       ?_Destroy@?$_Ref_count_obj2@VTrack@@@std@@EEAAXXZ 0000000180027e40 f i Model.obj
 0001:00026e50       ??_G?$_Ref_count_obj2@VParameter@@@std@@UEAAPEAXI@Z 0000000180027e50 f i Model.obj
 0001:00026e50       ??_E?$_Ref_count_obj2@VParameter@@@std@@UEAAPEAXI@Z 0000000180027e50 f i * CIL library *:* CIL module *
 0001:00026e80       ??_E?$_Ref_count_obj2@VMarker@@@std@@UEAAPEAXI@Z 0000000180027e80 f i * CIL library *:* CIL module *
 0001:00026e80       ??_G?$_Ref_count_obj2@VMarker@@@std@@UEAAPEAXI@Z 0000000180027e80 f i Model.obj
 0001:00026eb0       ??_G?$_Ref_count_obj2@VTrack@@@std@@UEAAPEAXI@Z 0000000180027eb0 f i Model.obj
 0001:00026eb0       ??_E?$_Ref_count_obj2@VTrack@@@std@@UEAAPEAXI@Z 0000000180027eb0 f i * CIL library *:* CIL module *
 0001:00026ee0       ??1Track@@QEAA@XZ          0000000180027ee0 f i Model.obj
 0001:00027110       ?Process@NoteRepeatProcessor@@UEAAXAEAV?$deque@V?$basic_string@DU?$char_traits@D@std@@V?$allocator@D@2@@std@@V?$allocator@V?$basic_string@DU?$char_traits@D@std@@V?$allocator@D@2@@std@@@2@@std@@H@Z 0000000180028110 f   NoteRepeatProcessor.obj
 0001:00027220       ?Process@NoteRepeatProcessor@@UEAAXAEAV?$deque@V?$basic_string@DU?$char_traits@D@std@@V?$allocator@D@2@@std@@V?$allocator@V?$basic_string@DU?$char_traits@D@std@@V?$allocator@D@2@@std@@@2@@std@@N@Z 0000000180028220 f   NoteRepeatProcessor.obj
 0001:00027360       ?SetParameter@NoteRepeatProcessor@@AEBAXPEAVReaProject@@PEAVMediaTrack@@HN@Z 0000000180028360 f   NoteRepeatProcessor.obj
 0001:00027420       ?Process@RecordProcessor@@UEAAXAEAV?$deque@V?$basic_string@DU?$char_traits@D@std@@V?$allocator@D@2@@std@@V?$allocator@V?$basic_string@DU?$char_traits@D@std@@V?$allocator@D@2@@std@@@2@@std@@@Z 0000000180028420 f i OscParser.obj
 0001:00027430       ?Process@RepeatProcessor@@UEAAXAEAV?$deque@V?$basic_string@DU?$char_traits@D@std@@V?$allocator@D@2@@std@@V?$allocator@V?$basic_string@DU?$char_traits@D@std@@V?$allocator@D@2@@std@@@2@@std@@@Z 0000000180028430 f i OscParser.obj
 0001:00027460       ?Process@TimeProcessor@@UEAAXAEAV?$deque@V?$basic_string@DU?$char_traits@D@std@@V?$allocator@D@2@@std@@V?$allocator@V?$basic_string@DU?$char_traits@D@std@@V?$allocator@D@2@@std@@@2@@std@@N@Z 0000000180028460 f i OscParser.obj
 0001:000274b0       ?Process@TempoProcessor@@UEAAXAEAV?$deque@V?$basic_string@DU?$char_traits@D@std@@V?$allocator@D@2@@std@@V?$allocator@V?$basic_string@DU?$char_traits@D@std@@V?$allocator@D@2@@std@@@2@@std@@@Z 00000001800284b0 f i OscParser.obj
 0001:00027550       ?Process@TempoProcessor@@UEAAXAEAV?$deque@V?$basic_string@DU?$char_traits@D@std@@V?$allocator@D@2@@std@@V?$allocator@V?$basic_string@DU?$char_traits@D@std@@V?$allocator@D@2@@std@@@2@@std@@H@Z 0000000180028550 f i OscParser.obj
 0001:00027570       ?Process@TempoProcessor@@UEAAXAEAV?$deque@V?$basic_string@DU?$char_traits@D@std@@V?$allocator@D@2@@std@@V?$allocator@V?$basic_string@DU?$char_traits@D@std@@V?$allocator@D@2@@std@@@2@@std@@N@Z 0000000180028570 f i OscParser.obj
 0001:00027590       ?Process@QuantizeProcessor@@UEAAXAEAV?$deque@V?$basic_string@DU?$char_traits@D@std@@V?$allocator@D@2@@std@@V?$allocator@V?$basic_string@DU?$char_traits@D@std@@V?$allocator@D@2@@std@@@2@@std@@N@Z 0000000180028590 f i OscParser.obj
 0001:00027600       ?Process@MetronomeVolumeProcessor@@UEAAXAEAV?$deque@V?$basic_string@DU?$char_traits@D@std@@V?$allocator@D@2@@std@@V?$allocator@V?$basic_string@DU?$char_traits@D@std@@V?$allocator@D@2@@std@@@2@@std@@@Z 0000000180028600 f i OscParser.obj
 0001:00027680       ?Process@MetronomeVolumeProcessor@@UEAAXAEAV?$deque@V?$basic_string@DU?$char_traits@D@std@@V?$allocator@D@2@@std@@V?$allocator@V?$basic_string@DU?$char_traits@D@std@@V?$allocator@D@2@@std@@@2@@std@@H@Z 0000000180028680 f i OscParser.obj
 0001:000276c0       ?Process@UndoProcessor@@UEAAXAEAV?$deque@V?$basic_string@DU?$char_traits@D@std@@V?$allocator@D@2@@std@@V?$allocator@V?$basic_string@DU?$char_traits@D@std@@V?$allocator@D@2@@std@@@2@@std@@@Z 00000001800286c0 f i OscParser.obj
 0001:000276f0       ?Process@RedoProcessor@@UEAAXAEAV?$deque@V?$basic_string@DU?$char_traits@D@std@@V?$allocator@D@2@@std@@V?$allocator@V?$basic_string@DU?$char_traits@D@std@@V?$allocator@D@2@@std@@@2@@std@@@Z 00000001800286f0 f i OscParser.obj
 0001:00027720       ?Process@CursorProcessor@@UEAAXAEAV?$deque@V?$basic_string@DU?$char_traits@D@std@@V?$allocator@D@2@@std@@V?$allocator@V?$basic_string@DU?$char_traits@D@std@@V?$allocator@D@2@@std@@@2@@std@@H@Z 0000000180028720 f i OscParser.obj
 0001:00027740       ?Process@ProjectProcessor@@UEAAXAEAV?$deque@V?$basic_string@DU?$char_traits@D@std@@V?$allocator@D@2@@std@@V?$allocator@V?$basic_string@DU?$char_traits@D@std@@V?$allocator@D@2@@std@@@2@@std@@H@Z 0000000180028740 f i OscParser.obj
 0001:000277a0       ?Process@RefreshProcessor@@UEAAXAEAV?$deque@V?$basic_string@DU?$char_traits@D@std@@V?$allocator@D@2@@std@@V?$allocator@V?$basic_string@DU?$char_traits@D@std@@V?$allocator@D@2@@std@@@2@@std@@@Z 00000001800287a0 f i OscParser.obj
 0001:000277f0       ??0OscParser@@QEAA@AEAVModel@@@Z 00000001800287f0 f   OscParser.obj
 0001:00028990       ?Process@OscParser@@UEBAXV?$basic_string@DU?$char_traits@D@std@@V?$allocator@D@2@@std@@0@Z 0000000180029990 f   OscParser.obj
 0001:00028c40       ?Process@OscParser@@UEBAXV?$basic_string@DU?$char_traits@D@std@@V?$allocator@D@2@@std@@00@Z 0000000180029c40 f   OscParser.obj
 0001:00028fc0       ?Process@OscParser@@UEBAXV?$basic_string@DU?$char_traits@D@std@@V?$allocator@D@2@@std@@0H@Z 0000000180029fc0 f   OscParser.obj
 0001:000291f0       ?Process@OscParser@@UEBAXV?$basic_string@DU?$char_traits@D@std@@V?$allocator@D@2@@std@@0N@Z 000000018002a1f0 f   OscParser.obj
 0001:00029430       ?LogError@OscParser@@AEBAXV?$basic_string@DU?$char_traits@D@std@@V?$allocator@D@2@@std@@AEBVout_of_range@3@@Z 000000018002a430 f   OscParser.obj
 0001:00029550       ?Split@OscParser@@AEBA?AV?$deque@V?$basic_string@DU?$char_traits@D@std@@V?$allocator@D@2@@std@@V?$allocator@V?$basic_string@DU?$char_traits@D@std@@V?$allocator@D@2@@std@@@2@@std@@AEBV?$basic_string@DU?$char_traits@D@std@@V?$allocator@D@2@@3@@Z 000000018002a550 f   OscParser.obj
 0001:00029770       ??_D?$basic_istringstream@DU?$char_traits@D@std@@V?$allocator@D@2@@std@@QEAAXXZ 000000018002a770 f i OscParser.obj
 0001:00029810       ??0?$basic_istringstream@DU?$char_traits@D@std@@V?$allocator@D@2@@std@@QEAA@AEBV?$basic_string@DU?$char_traits@D@std@@V?$allocator@D@2@@1@H@Z 000000018002a810 f i OscParser.obj
 0001:000299a0       ?at@?$map@V?$basic_string@DU?$char_traits@D@std@@V?$allocator@D@2@@std@@PEAVOscProcessor@@U?$less@V?$basic_string@DU?$char_traits@D@std@@V?$allocator@D@2@@std@@@2@V?$allocator@U?$pair@$$CBV?$basic_string@DU?$char_traits@D@std@@V?$allocator@D@2@@std@@PEAVOscProcessor@@@std@@@2@@std@@QEBAAEBQEAVOscProcessor@@AEBV?$basic_string@DU?$char_traits@D@std@@V?$allocator@D@2@@2@@Z 000000018002a9a0 f i OscParser.obj
 0001:00029a30       ??A?$map@V?$basic_string@DU?$char_traits@D@std@@V?$allocator@D@2@@std@@PEAVOscProcessor@@U?$less@V?$basic_string@DU?$char_traits@D@std@@V?$allocator@D@2@@std@@@2@V?$allocator@U?$pair@$$CBV?$basic_string@DU?$char_traits@D@std@@V?$allocator@D@2@@std@@PEAVOscProcessor@@@std@@@2@@std@@QEAAAEAPEAVOscProcessor@@$$QEAV?$basic_string@DU?$char_traits@D@std@@V?$allocator@D@2@@1@@Z 000000018002aa30 f i OscParser.obj
 0001:00029b70       ??1?$deque@V?$basic_string@DU?$char_traits@D@std@@V?$allocator@D@2@@std@@V?$allocator@V?$basic_string@DU?$char_traits@D@std@@V?$allocator@D@2@@std@@@2@@std@@QEAA@XZ 000000018002ab70 f i OscParser.obj
 0001:00029cb0       ??_G?$basic_istringstream@DU?$char_traits@D@std@@V?$allocator@D@2@@std@@UEAAPEAXI@Z 000000018002acb0 f i OscParser.obj
 0001:00029cb0       ??_E?$basic_istringstream@DU?$char_traits@D@std@@V?$allocator@D@2@@std@@UEAAPEAXI@Z 000000018002acb0 f i * CIL library *:* CIL module *
 0001:00029cf0       ?_Growmap@?$deque@V?$basic_string@DU?$char_traits@D@std@@V?$allocator@D@2@@std@@V?$allocator@V?$basic_string@DU?$char_traits@D@std@@V?$allocator@D@2@@std@@@2@@std@@AEAAX_K@Z 000000018002acf0 f i OscParser.obj
 0001:00029ed0       ?_Xlen@?$deque@V?$basic_string@DU?$char_traits@D@std@@V?$allocator@D@2@@std@@V?$allocator@V?$basic_string@DU?$char_traits@D@std@@V?$allocator@D@2@@std@@@2@@std@@AEBAXXZ 000000018002aed0 f i OscParser.obj
 0001:0002a284       ??_E?$basic_istringstream@DU?$char_traits@D@std@@V?$allocator@D@2@@std@@$4PPPPPPPM@A@EAAPEAXI@Z 000000018002b284 f i OscParser.obj
 0001:0002a290       ??0Parameter@@QEAA@PEBDH@Z 000000018002b290 f   Parameter.obj
 0001:0002a750       ?CollectData@Parameter@@QEAAXAEAV?$basic_ostringstream@DU?$char_traits@D@std@@V?$allocator@D@2@@std@@PEAVMediaTrack@@AEBH2AEB_N@Z 000000018002b750 f   Parameter.obj
 0001:0002abb0       ?ClearData@Parameter@@QEAAXAEAV?$basic_ostringstream@DU?$char_traits@D@std@@V?$allocator@D@2@@std@@AEB_N@Z 000000018002bbb0 f   Parameter.obj
 0001:0002af40       ??1ReaDebug@@QEAA@XZ       000000018002bf40 f   ReaDebug.obj
 0001:0002b4e0       ??6ReaDebug@@QEAAAEAV0@PEBD@Z 000000018002c4e0 f   ReaDebug.obj
 0001:0002b510       ?Log@ReaDebug@@SAXAEBV?$basic_string@DU?$char_traits@D@std@@V?$allocator@D@2@@std@@@Z 000000018002c510 f   ReaDebug.obj
 0001:0002b640       ?Log@ReaDebug@@SAXPEBD@Z   000000018002c640 f   ReaDebug.obj
 0001:0002b910       ?Process@SceneProcessor@@UEAAXAEAV?$deque@V?$basic_string@DU?$char_traits@D@std@@V?$allocator@D@2@@std@@V?$allocator@V?$basic_string@DU?$char_traits@D@std@@V?$allocator@D@2@@std@@@2@@std@@@Z 000000018002c910 f   SceneProcessor.obj
 0001:0002bbe0       ?GetEnvelopeValueAtPosition@ReaperUtils@@SANPEAVTrackEnvelope@@N@Z 000000018002cbe0 f i Send.obj
 0001:0002bcc0       ??_ESend@@UEAAPEAXI@Z      000000018002ccc0 f i * CIL library *:* CIL module *
 0001:0002bcc0       ??_GSend@@UEAAPEAXI@Z      000000018002ccc0 f i Send.obj
 0001:0002bda0       ?CollectData@Send@@QEAAXAEAV?$basic_ostringstream@DU?$char_traits@D@std@@V?$allocator@D@2@@std@@PEAVReaProject@@PEAVMediaTrack@@HAEBV?$basic_string@DU?$char_traits@D@std@@V?$allocator@D@2@@3@AEB_N@Z 000000018002cda0 f   Send.obj
 0001:0002c930       ?assign@?$basic_string@_WU?$char_traits@_W@std@@V?$allocator@_W@2@@std@@QEAAAEAV12@_K_W@Z 000000018002d930 f i StringUtils.obj
 0001:0002cad0       ?CollectData@Track@@QEAAXAEAV?$basic_ostringstream@DU?$char_traits@D@std@@V?$allocator@D@2@@std@@PEAVReaProject@@PEAVMediaTrack@@HAEB_N3@Z 000000018002dad0 f   Track.obj
 0001:0002fc80       ?GetSend@Track@@QEAAPEAVSend@@H@Z 0000000180030c80 f   Track.obj
 0001:0002fd90       ?GetTrackLockState@Track@@AEBAHPEAD@Z 0000000180030d90 f   Track.obj
 0001:0002ffa0       ?ParseInputQuantize@Track@@AEAAXAEAV?$basic_ostringstream@DU?$char_traits@D@std@@V?$allocator@D@2@@std@@AEAV?$basic_string@DU?$char_traits@D@std@@V?$allocator@D@2@@3@AEB_NPEAD@Z 0000000180030fa0 f   Track.obj
 0001:00030640       ??$_Emplace_reallocate@PEAVSend@@@?$vector@PEAVSend@@V?$allocator@PEAVSend@@@std@@@std@@QEAAPEAPEAVSend@@QEAPEAV2@$$QEAPEAV2@@Z 0000000180031640 f i Track.obj
 0001:000307e0       ?Process@TrackProcessor@@UEAAXAEAV?$deque@V?$basic_string@DU?$char_traits@D@std@@V?$allocator@D@2@@std@@V?$allocator@V?$basic_string@DU?$char_traits@D@std@@V?$allocator@D@2@@std@@@2@@std@@@Z 00000001800317e0 f   TrackProcessor.obj
 0001:00030ce0       ?Process@TrackProcessor@@UEAAXAEAV?$deque@V?$basic_string@DU?$char_traits@D@std@@V?$allocator@D@2@@std@@V?$allocator@V?$basic_string@DU?$char_traits@D@std@@V?$allocator@D@2@@std@@@2@@std@@H@Z 0000000180031ce0 f   TrackProcessor.obj
 0001:000311a0       ?Process@TrackProcessor@@UEAAXAEAV?$deque@V?$basic_string@DU?$char_traits@D@std@@V?$allocator@D@2@@std@@V?$allocator@V?$basic_string@DU?$char_traits@D@std@@V?$allocator@D@2@@std@@@2@@std@@N@Z 00000001800321a0 f   TrackProcessor.obj
 0001:000316e0       ?Process@TrackProcessor@@UEAAXAEAV?$deque@V?$basic_string@DU?$char_traits@D@std@@V?$allocator@D@2@@std@@V?$allocator@V?$basic_string@DU?$char_traits@D@std@@V?$allocator@D@2@@std@@@2@@std@@AEBV?$basic_string@DU?$char_traits@D@std@@V?$allocator@D@2@@3@@Z 00000001800326e0 f   TrackProcessor.obj
 0001:00031880       ?SetColorOfTrack@TrackProcessor@@AEAAXPEAVReaProject@@PEAVMediaTrack@@AEBV?$basic_string@DU?$char_traits@D@std@@V?$allocator@D@2@@std@@@Z 0000000180032880 f   TrackProcessor.obj
 0001:00031d20       ?GetTrackIndex@TrackProcessor@@AEBAHPEAVReaProject@@H@Z 0000000180032d20 f   TrackProcessor.obj
 0001:00031db0       _Strxfrm                   0000000180032db0 f   libcpmt:xstrxfrm.obj
 0001:00031eb0       ??0_Init_locks@std@@QEAA@XZ 0000000180032eb0 f   libcpmt:xlock.obj
 0001:00031ef4       ??0_Lockit@std@@QEAA@H@Z   0000000180032ef4 f   libcpmt:xlock.obj
 0001:00031f30       ??1_Init_locks@std@@QEAA@XZ 0000000180032f30 f   libcpmt:xlock.obj
 0001:00031f6c       ??1_Lockit@std@@QEAA@XZ    0000000180032f6c f   libcpmt:xlock.obj
 0001:00031fa0       ??0bad_alloc@std@@QEAA@XZ  0000000180032fa0 f i libcpmt:xthrow.obj
 0001:00031fc0       ??0bad_function_call@std@@QEAA@AEBV01@@Z 0000000180032fc0 f i libcpmt:xthrow.obj
 0001:00031ffc       ??0bad_function_call@std@@QEAA@XZ 0000000180032ffc f i libcpmt:xthrow.obj
 0001:00032014       ??0length_error@std@@QEAA@AEBV01@@Z 0000000180033014 f i libcpmt:xthrow.obj
 0001:00032050       ??0length_error@std@@QEAA@PEBD@Z 0000000180033050 f i libcpmt:xthrow.obj
 0001:00032098       ??0logic_error@std@@QEAA@AEBV01@@Z 0000000180033098 f i libcpmt:xthrow.obj
 0001:000320d4       ??0out_of_range@std@@QEAA@AEBV01@@Z 00000001800330d4 f i libcpmt:xthrow.obj
 0001:00032110       ??0out_of_range@std@@QEAA@PEBD@Z 0000000180033110 f i libcpmt:xthrow.obj
 0001:00032158       ??0regex_error@std@@QEAA@AEBV01@@Z 0000000180033158 f i libcpmt:xthrow.obj
 0001:000321a4       ??0regex_error@std@@QEAA@W4error_type@regex_constants@1@@Z 00000001800331a4 f i libcpmt:xthrow.obj
 0001:00032208       ??0runtime_error@std@@QEAA@PEBD@Z 0000000180033208 f i libcpmt:xthrow.obj
 0001:00032250       ??_Gregex_error@std@@UEAAPEAXI@Z 0000000180033250 f i libcpmt:xthrow.obj
 0001:00032250       ??_Eregex_error@std@@UEAAPEAXI@Z 0000000180033250 f i libcpmt:xthrow.obj
 0001:00032294       ?_Stringify@regex_error@std@@CAPEBDW4error_type@regex_constants@2@@Z 0000000180033294 f i libcpmt:xthrow.obj
 0001:00032360       ?__scrt_throw_std_bad_alloc@@YAXXZ 0000000180033360 f   LIBCMT:throw_bad_alloc.obj
 0001:00032360       ?_Xbad_alloc@std@@YAXXZ    0000000180033360 f   libcpmt:xthrow.obj
 0001:00032380       ?_Xbad_function_call@std@@YAXXZ 0000000180033380 f   libcpmt:xthrow.obj
 0001:000323a0       ?_Xlength_error@std@@YAXPEBD@Z 00000001800333a0 f   libcpmt:xthrow.obj
 0001:000323c4       ?_Xout_of_range@std@@YAXPEBD@Z 00000001800333c4 f   libcpmt:xthrow.obj
 0001:000323e8       ?_Xregex_error@std@@YAXW4error_type@regex_constants@1@@Z 00000001800333e8 f   libcpmt:xthrow.obj
 0001:0003240c       ?_Xruntime_error@std@@YAXPEBD@Z 000000018003340c f   libcpmt:xthrow.obj
 0001:00032430       ?what@bad_function_call@std@@UEBAPEBDXZ 0000000180033430 f i libcpmt:xthrow.obj
 0001:00032438       ??0_Locimp@locale@std@@AEAA@_N@Z 0000000180033438 f i libcpmt:locale0.obj
 0001:000324c0       ??4?$_Yarn@D@std@@QEAAAEAV01@PEBD@Z 00000001800334c0 f i libcpmt:locale0.obj
 0001:00032538       ??_E_Locimp@locale@std@@MEAAPEAXI@Z 0000000180033538 f i libcpmt:locale0.obj
 0001:00032538       ??_G_Locimp@locale@std@@MEAAPEAXI@Z 0000000180033538 f i libcpmt:locale0.obj
 0001:00032594       ?_Facet_Register@std@@YAXPEAV_Facet_base@1@@Z 0000000180033594 f   libcpmt:locale0.obj
 0001:000325cc       ?_Getgloballocale@locale@std@@CAPEAV_Locimp@12@XZ 00000001800335cc f   libcpmt:locale0.obj
 0001:000325d4       ?_Init@locale@std@@CAPEAV_Locimp@12@_N@Z 00000001800335d4 f   libcpmt:locale0.obj
 0001:000326cc       ?_Locimp_dtor@_Locimp@locale@std@@CAXPEAV123@@Z 00000001800336cc f   libcpmt:locale0.obj
 0001:00032748       ?_Locinfo_ctor@_Locinfo@std@@SAXPEAV12@PEBD@Z 0000000180033748 f   libcpmt:locale0.obj
 0001:000327b4       ?_Locinfo_dtor@_Locinfo@std@@SAXPEAV12@@Z 00000001800337b4 f   libcpmt:locale0.obj
 0001:000327d0       ?_New_Locimp@_Locimp@locale@std@@CAPEAV123@_N@Z 00000001800337d0 f   libcpmt:locale0.obj
 0001:00032800       ?_Setgloballocale@locale@std@@CAXPEAX@Z 0000000180033800 f   libcpmt:locale0.obj
 0001:00032834       _Deletegloballocale        0000000180033834 f   libcpmt:locale0.obj
 0001:000328a4       ?uncaught_exception@std@@YA_NXZ 00000001800338a4 f   libcpmt:uncaught_exception.obj
 0001:000328ac       ?_Syserror_map@std@@YAPEBDH@Z 00000001800338ac f   libcpmt:syserror.obj
 0001:000328d4       _Getctype                  00000001800338d4 f   libcpmt:_tolower.obj
 0001:00032994       _Tolower                   0000000180033994 f   libcpmt:_tolower.obj
 0001:00032ac4       _Getcoll                   0000000180033ac4 f   libcpmt:xstrcoll.obj
 0001:00032af8       _Strcoll                   0000000180033af8 f   libcpmt:xstrcoll.obj
 0001:00032bc8       _Getcvt                    0000000180033bc8 f   libcpmt:xwctomb.obj
 0001:00032c60       _Toupper                   0000000180033c60 f   libcpmt:_toupper.obj
 0001:00032da0       ?_Ios_base_dtor@ios_base@std@@CAXPEAV12@@Z 0000000180033da0 f   libcpmt:ios.obj
 0001:00032e18       ?_Tidy@ios_base@std@@AEAAXXZ 0000000180033e18 f i libcpmt:ios.obj
 0001:00032e98       ??0system_error@std@@QEAA@HAEBVerror_category@1@PEBD@Z 0000000180033e98 f i libcpmt:thread0.obj
 0001:00032f7c       ?_Throw_C_error@std@@YAXH@Z 0000000180033f7c f   libcpmt:thread0.obj
 0001:00032fb8       ?_Throw_Cpp_error@std@@YAXH@Z 0000000180033fb8 f   libcpmt:thread0.obj
 0001:00033000       ?generic_category@std@@YAAEBVerror_category@1@XZ 0000000180034000 f i libcpmt:thread0.obj
 0001:00033008       ?message@_Generic_error_category@std@@UEBA?AV?$basic_string@DU?$char_traits@D@std@@V?$allocator@D@2@@2@H@Z 0000000180034008 f i libcpmt:thread0.obj
 0001:00033040       ?name@_Generic_error_category@std@@UEBAPEBDXZ 0000000180034040 f i libcpmt:thread0.obj
 0001:00033048       ??$_Xfiopen@D@std@@YAPEAU_iobuf@@PEBDHH@Z 0000000180034048 f i libcpmt:fiopen.obj
 0001:00033158       ?_Fiopen@std@@YAPEAU_iobuf@@PEBDHH@Z 0000000180034158 f   libcpmt:fiopen.obj
 0001:00033160       ?setprecision@std@@YA?AU?$_Smanip@_J@1@_J@Z 0000000180034160 f   libcpmt:iomanip.obj
 0001:0003317c       ?create_stl_critical_section@details@Concurrency@@YAXPEAVstl_critical_section_interface@12@@Z 000000018003417c f i libcpmt:mutex.obj
 0001:000331e0       ?destroy@stl_critical_section_vista@details@Concurrency@@UEAAXXZ 00000001800341e0 f i libcpmt:mutex.obj
 0001:000331ec       ?lock@stl_critical_section_vista@details@Concurrency@@UEAAXXZ 00000001800341ec f i libcpmt:mutex.obj
 0001:000331f8       ?lock@stl_critical_section_win7@details@Concurrency@@UEAAXXZ 00000001800341f8 f i libcpmt:mutex.obj
 0001:00033370       ?try_lock@stl_critical_section_vista@details@Concurrency@@UEAA_NXZ 0000000180034370 f i libcpmt:mutex.obj
 0001:00033370       ?try_lock_for@stl_critical_section_vista@details@Concurrency@@UEAA_NI@Z 0000000180034370 f i libcpmt:mutex.obj
 0001:00033388       ?try_lock@stl_critical_section_win7@details@Concurrency@@UEAA_NXZ 0000000180034388 f i libcpmt:mutex.obj
 0001:00033388       ?try_lock_for@stl_critical_section_win7@details@Concurrency@@UEAA_NI@Z 0000000180034388 f i libcpmt:mutex.obj
 0001:000333a0       ?unlock@stl_critical_section_vista@details@Concurrency@@UEAAXXZ 00000001800343a0 f i libcpmt:mutex.obj
 0001:000333ac       ?unlock@stl_critical_section_win7@details@Concurrency@@UEAAXXZ 00000001800343ac f i libcpmt:mutex.obj
 0001:000333b8       _Mtx_destroy_in_situ       00000001800343b8 f   libcpmt:mutex.obj
 0001:000333cc       _Mtx_init_in_situ          00000001800343cc f   libcpmt:mutex.obj
 0001:000333fc       _Mtx_lock                  00000001800343fc f   libcpmt:mutex.obj
 0001:00033404       _Mtx_unlock                0000000180034404 f   libcpmt:mutex.obj
 0001:0003342c       _Query_perf_counter        000000018003442c f   libcpmt:xtime.obj
 0001:00033448       _Query_perf_frequency      0000000180034448 f   libcpmt:xtime.obj
 0001:00033474       _Xtime_diff_to_millis2     0000000180034474 f   libcpmt:xtime.obj
 0001:00033548       _Xtime_get_ticks           0000000180034548 f   libcpmt:xtime.obj
 0001:00033578       xtime_get                  0000000180034578 f   libcpmt:xtime.obj
 0001:000335d0       __crtLCMapStringA          00000001800345d0 f   libcpmt:StlLCMapStringA.obj
 0001:000338d0       _Mtxdst                    00000001800348d0 f   libcpmt:xmtx.obj
 0001:000338d8       _Mtxinit                   00000001800348d8 f   libcpmt:xmtx.obj
 0001:000338e8       _Mtxlock                   00000001800348e8 f   libcpmt:xmtx.obj
 0001:000338f0       _Mtxunlock                 00000001800348f0 f   libcpmt:xmtx.obj
 0001:000338f8       ?_Atexit@@YAXP6AXXZ@Z      00000001800348f8 f   libcpmt:iosptrs.obj
 0001:00033934       __crtCompareStringA        0000000180034934 f   libcpmt:StlCompareStringA.obj
 0001:00034060       __crtGetSystemTimePreciseAsFileTime 0000000180035060 f   libcpmt:winapisupp.obj
 0001:0003407c       __crtTryAcquireSRWLockExclusive 000000018003507c f   libcpmt:winapisupp.obj
 0001:000340a0       __security_check_cookie    00000001800350a0 f   LIBCMT:amdsecgs.obj
 0001:000340c0       ??3@YAXPEAX_K@Z            00000001800350c0 f   LIBCMT:delete_scalar_size.obj
 0001:000340c0       ??_V@YAXPEAX@Z             00000001800350c0 f   LIBCMT:delete_array.obj
 0001:000340c8       ??2@YAPEAX_K@Z             00000001800350c8 f   LIBCMT:new_scalar.obj
 0001:00034104       ??_Gtype_info@@UEAAPEAXI@Z 0000000180035104 f i LIBCMT:std_type_info_static.obj
 0001:00034104       ??_Etype_info@@UEAAPEAXI@Z 0000000180035104 f i LIBCMT:std_type_info_static.obj
 0001:00034130       ??_U@YAPEAX_K@Z            0000000180035130 f   LIBCMT:new_array.obj
 0001:00034138       __scrt_acquire_startup_lock 0000000180035138 f   LIBCMT:utility.obj
 0001:00034174       __scrt_dllmain_after_initialize_c 0000000180035174 f   LIBCMT:utility.obj
 0001:000341a8       __scrt_dllmain_before_initialize_c 00000001800351a8 f   LIBCMT:utility.obj
 0001:000341c0       __scrt_dllmain_crt_thread_attach 00000001800351c0 f   LIBCMT:utility.obj
 0001:000341e8       __scrt_dllmain_crt_thread_detach 00000001800351e8 f   LIBCMT:utility.obj
 0001:00034200       __scrt_dllmain_exception_filter 0000000180035200 f   LIBCMT:utility.obj
 0001:00034260       __scrt_dllmain_uninitialize_c 0000000180035260 f   LIBCMT:utility.obj
 0001:00034290       __scrt_dllmain_uninitialize_critical 0000000180035290 f   LIBCMT:utility.obj
 0001:000342a4       __scrt_initialize_crt      00000001800352a4 f   LIBCMT:utility.obj
 0001:000342f0       __scrt_initialize_onexit_tables 00000001800352f0 f   LIBCMT:utility.obj
 0001:0003437c       __scrt_is_nonwritable_in_current_image 000000018003537c f   LIBCMT:utility.obj
 0001:00034414       __scrt_release_startup_lock 0000000180035414 f   LIBCMT:utility.obj
 0001:00034438       __scrt_uninitialize_crt    0000000180035438 f   LIBCMT:utility.obj
 0001:00034464       _onexit                    0000000180035464 f   LIBCMT:utility.obj
 0001:000344a0       atexit                     00000001800354a0 f   LIBCMT:utility.obj
 0001:000347d8       _DllMainCRTStartup         00000001800357d8 f   LIBCMT:dll_dllmain.obj
 0001:00034818       __GSHandlerCheck           0000000180035818 f   LIBCMT:gshandler.obj
 0001:00034838       __GSHandlerCheckCommon     0000000180035838 f   LIBCMT:gshandler.obj
 0001:00034894       __GSHandlerCheck_EH4       0000000180035894 f   LIBCMT:gshandlereh4.obj
 0001:00034930       _alloca_probe              0000000180035930 f   LIBCMT:chkstk.obj
 0001:00034930       __chkstk                   0000000180035930 f   LIBCMT:chkstk.obj
 0001:00034980       __raise_securityfailure    0000000180035980 f   LIBCMT:gs_report.obj
 0001:000349b4       __report_gsfailure         00000001800359b4 f   LIBCMT:gs_report.obj
 0001:00034a88       __report_rangecheckfailure 0000000180035a88 f   LIBCMT:gs_report.obj
 0001:00034a9c       __report_securityfailure   0000000180035a9c f   LIBCMT:gs_report.obj
 0001:00034c1c       ??3@YAXPEAX@Z              0000000180035c1c f   LIBCMT:delete_scalar.obj
 0001:00034c24       __isa_available_init       0000000180035c24 f   LIBCMT:cpu_disp.obj
 0001:00034dc8       __scrt_is_ucrt_dll_in_use  0000000180035dc8 f   LIBCMT:ucrt_detection.obj
 0001:00034dd4       __crt_debugger_hook        0000000180035dd4 f   LIBCMT:utility_desktop.obj
 0001:00034ddc       __scrt_fastfail            0000000180035ddc f   LIBCMT:utility_desktop.obj
 0001:00034f28       __security_init_cookie     0000000180035f28 f   LIBCMT:gs_support.obj
 0001:00034fd4       ?__scrt_initialize_type_info@@YAXXZ 0000000180035fd4 f   LIBCMT:tncleanup.obj
 0001:00034fe4       ?__scrt_uninitialize_type_info@@YAXXZ 0000000180035fe4 f   LIBCMT:tncleanup.obj
 0001:00034ff0       __local_stdio_scanf_options 0000000180035ff0 f i LIBCMT:default_local_stdio_options.obj
 0001:00034ff8       __scrt_initialize_default_local_stdio_options 0000000180035ff8 f   LIBCMT:default_local_stdio_options.obj
 0001:00035014       __scrt_get_dyn_tls_init_callback 0000000180036014 f   LIBCMT:dyn_tls_init.obj
 0001:0003501c       _RTC_Initialize            000000018003601c f   LIBCMT:initsect.obj
 0001:00035058       _RTC_Terminate             0000000180036058 f   LIBCMT:initsect.obj
 0001:000350a0       ??$_CallSETranslator@V__FrameHandler3@@@@YAHPEAUEHExceptionRecord@@PEA_KPEAU_CONTEXT@@PEAU_xDISPATCHER_CONTEXT@@PEBU_s_FuncInfo@@K1H@Z 00000001800360a0 f i libvcruntime:risctrnsctrl.obj
 0001:000350f4       ??$_CallSETranslator@V__FrameHandler4@@@@YAHPEAUEHExceptionRecord@@PEA_KPEAU_CONTEXT@@PEAU_xDISPATCHER_CONTEXT@@PEAUFuncInfo4@FH4@@K1H@Z 00000001800360f4 f i libvcruntime:risctrnsctrl.obj
 0001:00035148       ?CatchTryBlock@__FrameHandler3@@SAPEBU_s_TryBlockMapEntry@@PEBU_s_FuncInfo@@H@Z 0000000180036148 f   libvcruntime:risctrnsctrl.obj
 0001:0003519c       ?DecompFuncInfo@FH4@@YA_JPEAEAEAUFuncInfo4@1@_KH_N@Z 000000018003619c f i libvcruntime:risctrnsctrl.obj
 0001:000352c0       ?ExecutionInCatch@__FrameHandler3@@SA_NPEAU_xDISPATCHER_CONTEXT@@PEBU_s_FuncInfo@@@Z 00000001800362c0 f   libvcruntime:risctrnsctrl.obj
 0001:000352ec       ?ExecutionInCatch@__FrameHandler4@@SA_NPEAU_xDISPATCHER_CONTEXT@@PEAUFuncInfo4@FH4@@@Z 00000001800362ec f   libvcruntime:risctrnsctrl.obj
 0001:000352f4       ?FrameUnwindToEmptyState@__FrameHandler3@@SAXPEA_KPEAU_xDISPATCHER_CONTEXT@@PEBU_s_FuncInfo@@@Z 00000001800362f4 f   libvcruntime:risctrnsctrl.obj
 0001:00035358       ?FrameUnwindToEmptyState@__FrameHandler4@@SAXPEA_KPEAU_xDISPATCHER_CONTEXT@@PEAUFuncInfo4@FH4@@@Z 0000000180036358 f   libvcruntime:risctrnsctrl.obj
 0001:0003538c       ?GetEstablisherFrame@__FrameHandler3@@SAPEA_KPEA_KPEAU_xDISPATCHER_CONTEXT@@PEBU_s_FuncInfo@@0@Z 000000018003638c f   libvcruntime:risctrnsctrl.obj
 0001:00035458       ?GetEstablisherFrame@__FrameHandler4@@SAPEA_KPEA_KPEAU_xDISPATCHER_CONTEXT@@PEAUFuncInfo4@FH4@@0@Z 0000000180036458 f   libvcruntime:risctrnsctrl.obj
 0001:0003547c       ?GetRangeOfTrysToCheck@__FrameHandler3@@SA?AU?$pair@Viterator@TryBlockMap@__FrameHandler3@@V123@@std@@AEAVTryBlockMap@1@HPEAU_xDISPATCHER_CONTEXT@@PEBU_s_FuncInfo@@H@Z 000000018003647c f   libvcruntime:risctrnsctrl.obj
 0001:000355bc       ?GetRangeOfTrysToCheck@__FrameHandler4@@SA?AU?$pair@Viterator@TryBlockMap4@FH4@@V123@@std@@AEAVTryBlockMap4@FH4@@HPEAU_xDISPATCHER_CONTEXT@@PEAUFuncInfo4@5@H@Z 00000001800365bc f   libvcruntime:risctrnsctrl.obj
 0001:00035724       ?UnwindNestedFrames@__FrameHandler3@@SAXPEA_KPEAUEHExceptionRecord@@PEAU_CONTEXT@@0PEAXPEBU_s_FuncInfo@@HHPEBU_s_HandlerType@@PEAU_xDISPATCHER_CONTEXT@@E@Z 0000000180036724 f   libvcruntime:risctrnsctrl.obj
 0001:00035828       ?UnwindNestedFrames@__FrameHandler4@@SAXPEA_KPEAUEHExceptionRecord@@PEAU_CONTEXT@@0PEAXPEAUFuncInfo4@FH4@@HHPEAUHandlerType4@5@PEAU_xDISPATCHER_CONTEXT@@E@Z 0000000180036828 f   libvcruntime:risctrnsctrl.obj
 0001:00035948       ?setBuffer@TryBlockMap4@FH4@@QEAAXViterator@12@@Z 0000000180036948 f i libvcruntime:risctrnsctrl.obj
 0001:00035b08       _CreateFrameInfo           0000000180036b08 f   libvcruntime:risctrnsctrl.obj
 0001:00035b44       _FindAndUnlinkFrame        0000000180036b44 f   libvcruntime:risctrnsctrl.obj
 0001:00035b98       _GetImageBase              0000000180036b98 f   libvcruntime:risctrnsctrl.obj
 0001:00035bac       _GetThrowImageBase         0000000180036bac f   libvcruntime:risctrnsctrl.obj
 0001:00035bc0       _SetImageBase              0000000180036bc0 f   libvcruntime:risctrnsctrl.obj
 0001:00035bd8       _SetThrowImageBase         0000000180036bd8 f   libvcruntime:risctrnsctrl.obj
 0001:00035bf0       __CxxFrameHandler3         0000000180036bf0 f   libvcruntime:risctrnsctrl.obj
 0001:00035c78       __CxxFrameHandler4         0000000180036c78 f   libvcruntime:risctrnsctrl.obj
 0001:00035d38       __std_exception_copy       0000000180036d38 f   libvcruntime:std_exception.obj
 0001:00035dc8       __std_exception_destroy    0000000180036dc8 f   libvcruntime:std_exception.obj
 0001:00035df0       _get_purecall_handler      0000000180036df0 f   libvcruntime:purevirt.obj
 0001:00035dfc       _purecall                  0000000180036dfc f   libvcruntime:purevirt.obj
 0001:00035e18       __DestructExceptionObject  0000000180036e18 f   libvcruntime:ehhelpers.obj
 0001:00035e88       ?_CallMemberFunction0@@YAXQEAX0@Z 0000000180036e88 f i libvcruntime:ehhelpers.obj
 0001:00035e8c       _IsExceptionObjectToBeDestroyed 0000000180036e8c f   libvcruntime:ehhelpers.obj
 0001:00035ebc       __AdjustPointer            0000000180036ebc f   libvcruntime:ehhelpers.obj
 0001:00035ee0       __FrameUnwindFilter        0000000180036ee0 f   libvcruntime:ehhelpers.obj
 0001:00035f48       __std_terminate            0000000180036f48 f   libvcruntime:ehhelpers.obj
 0001:00035f54       strchr                     0000000180036f54 f   libvcruntime:strchr.obj
 0001:00035ff0       memcpy_repmovs             0000000180036ff0 f   libvcruntime:memcpy.obj
 0001:00036010       memcpy                     0000000180037010 f   libvcruntime:memcpy.obj
 0001:00036010       memmove                    0000000180037010 f   libvcruntime:memcpy.obj
 0001:00036688       _CxxThrowException         0000000180037688 f   libvcruntime:throw.obj
 0001:00036728       __uncaught_exception       0000000180037728 f   libvcruntime:uncaught_exception.obj
 0001:00036760       memcmp                     0000000180037760 f   libvcruntime:memcmp.obj
 0001:00036840       memset_repmovs             0000000180037840 f   libvcruntime:memset.obj
 0001:00036860       memset                     0000000180037860 f   libvcruntime:memset.obj
 0001:00036a00       memchr                     0000000180037a00 f   libvcruntime:memchr.obj
 0001:00036a70       __vcrt_initialize          0000000180037a70 f   libvcruntime:initialization.obj
 0001:00036a98       __vcrt_thread_attach       0000000180037a98 f   libvcruntime:initialization.obj
 0001:00036aac       __vcrt_thread_detach       0000000180037aac f   libvcruntime:initialization.obj
 0001:00036ac0       __vcrt_uninitialize        0000000180037ac0 f   libvcruntime:initialization.obj
 0001:00036adc       __vcrt_uninitialize_critical 0000000180037adc f   libvcruntime:initialization.obj
 0001:00036aec       __C_specific_handler       0000000180037aec f   libvcruntime:riscchandler.obj
 0001:00036cf8       __std_type_info_compare    0000000180037cf8 f   libvcruntime:std_type_info.obj
 0001:00036d20       __std_type_info_destroy_list 0000000180037d20 f   libvcruntime:std_type_info.obj
 0001:00036d4c       __vcrt_freefls             0000000180037d4c f   libvcruntime:per_thread_data.obj
 0001:00036d6c       __vcrt_freeptd             0000000180037d6c f   libvcruntime:per_thread_data.obj
 0001:00036dbc       __vcrt_getptd              0000000180037dbc f   libvcruntime:per_thread_data.obj
 0001:00036dd8       __vcrt_getptd_noexit       0000000180037dd8 f   libvcruntime:per_thread_data.obj
 0001:00036e98       __vcrt_getptd_noinit       0000000180037e98 f   libvcruntime:per_thread_data.obj
 0001:00036ee8       __vcrt_initialize_ptd      0000000180037ee8 f   libvcruntime:per_thread_data.obj
 0001:00036f30       __vcrt_uninitialize_ptd    0000000180037f30 f   libvcruntime:per_thread_data.obj
 0001:00036f54       ?GetCurrentState@__FrameHandler3@@SAHPEA_KPEAU_xDISPATCHER_CONTEXT@@PEBU_s_FuncInfo@@@Z 0000000180037f54 f   libvcruntime:ehstate.obj
 0001:00036f7c       ?GetUnwindTryBlock@__FrameHandler3@@SAHPEA_KPEAU_xDISPATCHER_CONTEXT@@PEBU_s_FuncInfo@@@Z 0000000180037f7c f   libvcruntime:ehstate.obj
 0001:00036fa8       ?SetState@__FrameHandler3@@SAXPEA_KPEBU_s_FuncInfo@@H@Z 0000000180037fa8 f   libvcruntime:ehstate.obj
 0001:00036fb4       ?SetUnwindTryBlock@__FrameHandler3@@SAXPEA_KPEAU_xDISPATCHER_CONTEXT@@PEBU_s_FuncInfo@@H@Z 0000000180037fb4 f   libvcruntime:ehstate.obj
 0001:00036ff0       ?StateFromControlPc@__FrameHandler3@@SAHPEBU_s_FuncInfo@@PEAU_xDISPATCHER_CONTEXT@@@Z 0000000180037ff0 f   libvcruntime:ehstate.obj
 0001:00036ff8       ?StateFromControlPc@__FrameHandler4@@SAHPEAUFuncInfo4@FH4@@PEAU_xDISPATCHER_CONTEXT@@@Z 0000000180037ff8 f   libvcruntime:ehstate.obj
 0001:00037000       ?StateFromIp@__FrameHandler3@@SAHPEBU_s_FuncInfo@@PEAU_xDISPATCHER_CONTEXT@@_K@Z 0000000180038000 f   libvcruntime:ehstate.obj
 0001:00037068       ?StateFromIp@__FrameHandler4@@SAHPEAUFuncInfo4@FH4@@PEAU_xDISPATCHER_CONTEXT@@_K@Z 0000000180038068 f   libvcruntime:ehstate.obj
 0001:0003874c       ??$TypeMatchHelper@V__FrameHandler3@@@@YAHPEBU_s_HandlerType@@PEBU_s_CatchableType@@PEBU_s_ThrowInfo@@@Z 000000018003974c f i libvcruntime:frame.obj
 0001:0003888c       ??$TypeMatchHelper@V__FrameHandler4@@@@YAHPEAUHandlerType4@FH4@@PEBU_s_CatchableType@@PEBU_s_ThrowInfo@@@Z 000000018003988c f i libvcruntime:frame.obj
 0001:000389d0       ??$__InternalCxxFrameHandler@V__FrameHandler3@@@@YA?AW4_EXCEPTION_DISPOSITION@@PEAUEHExceptionRecord@@PEA_KPEAU_CONTEXT@@PEAU_xDISPATCHER_CONTEXT@@PEBU_s_FuncInfo@@H1E@Z 00000001800399d0 f i libvcruntime:frame.obj
 0001:00038c08       ??$__InternalCxxFrameHandler@V__FrameHandler4@@@@YA?AW4_EXCEPTION_DISPOSITION@@PEAUEHExceptionRecord@@PEA_KPEAU_CONTEXT@@PEAU_xDISPATCHER_CONTEXT@@PEAUFuncInfo4@FH4@@H1E@Z 0000000180039c08 f i libvcruntime:frame.obj
 0001:00038e9c       ??0HandlerMap4@FH4@@QEAA@PEBUTryBlockMapEntry4@1@_KH@Z 0000000180039e9c f i libvcruntime:frame.obj
 0001:00038f18       ??0TryBlockMap4@FH4@@QEAA@PEBUFuncInfo4@1@_K@Z 0000000180039f18 f i libvcruntime:frame.obj
 0001:00038ff0       ??0bad_exception@std@@QEAA@AEBV01@@Z 0000000180039ff0 f i libvcruntime:frame.obj
 0001:0003902c       ??0bad_exception@std@@QEAA@XZ 000000018003a02c f i libvcruntime:frame.obj
 0001:0003904c       ?CxxCallCatchBlock@__FrameHandler3@@SAPEAXPEAU_EXCEPTION_RECORD@@@Z 000000018003a04c f   libvcruntime:frame.obj
 0001:00039238       ?CxxCallCatchBlock@__FrameHandler4@@SAPEAXPEAU_EXCEPTION_RECORD@@@Z 000000018003a238 f   libvcruntime:frame.obj
 0001:00039488       ?DecompHandler@HandlerMap4@FH4@@AEAAXXZ 000000018003a488 f i libvcruntime:frame.obj
 0001:000396c8       ?FrameUnwindToState@__FrameHandler3@@SAXPEA_KPEAU_xDISPATCHER_CONTEXT@@PEBU_s_FuncInfo@@H@Z 000000018003a6c8 f   libvcruntime:frame.obj
 0001:00039854       ?FrameUnwindToState@__FrameHandler4@@SAXPEA_KPEAU_xDISPATCHER_CONTEXT@@PEAUFuncInfo4@FH4@@H@Z 000000018003a854 f   libvcruntime:frame.obj
 0001:00039b3c       ?GetHandlerSearchState@__FrameHandler3@@SAHPEA_KPEAU_xDISPATCHER_CONTEXT@@PEBU_s_FuncInfo@@@Z 000000018003ab3c f i libvcruntime:frame.obj
 0001:00039d4c       ?ReadEntry@UWMap4@FH4@@AEAAXPEAPEAE@Z 000000018003ad4c f i libvcruntime:frame.obj
 0001:00039dec       ?_CallMemberFunction1@@YAXQEAX00@Z 000000018003adec f i libvcruntime:frame.obj
 0001:00039df8       ?_CallMemberFunction2@@YAXQEAX00H@Z 000000018003adf8 f i libvcruntime:frame.obj
 0001:00039e08       ?getStartStop@UWMap4@FH4@@QEAAXHHAEAViterator@12@0@Z 000000018003ae08 f i libvcruntime:frame.obj
 0001:00039ed8       ?getStateFromIterators@UWMap4@FH4@@SAHAEBViterator@12@H0H0@Z 000000018003aed8 f i libvcruntime:frame.obj
 0001:00039fa0       __vcrt_initialize_locks    000000018003afa0 f   libvcruntime:locks.obj
 0001:00039fd4       __vcrt_uninitialize_locks  000000018003afd4 f   libvcruntime:locks.obj
 0001:0003a020       _NLG_Notify                000000018003b020 f   libvcruntime:notify.obj
 0001:0003a040       __NLG_Dispatch2            000000018003b040 f   libvcruntime:notify.obj
 0001:0003a050       __NLG_Return2              000000018003b050 f   libvcruntime:notify.obj
 0001:0003a054       __except_validate_context_record 000000018003b054 f   libvcruntime:jbcxrval.obj
 0001:0003a1dc       __vcrt_FlsAlloc            000000018003b1dc f   libvcruntime:winapi_downlevel.obj
 0001:0003a224       __vcrt_FlsFree             000000018003b224 f   libvcruntime:winapi_downlevel.obj
 0001:0003a26c       __vcrt_FlsGetValue         000000018003b26c f   libvcruntime:winapi_downlevel.obj
 0001:0003a2b4       __vcrt_FlsSetValue         000000018003b2b4 f   libvcruntime:winapi_downlevel.obj
 0001:0003a308       __vcrt_InitializeCriticalSectionEx 000000018003b308 f   libvcruntime:winapi_downlevel.obj
 0001:0003a380       _CallSettingFrame          000000018003b380 f   libvcruntime:handlers.obj
 0001:0003a3d0       _CallSettingFrame_LookupContinuationIndex 000000018003b3d0 f   libvcruntime:handlers.obj
 0001:0003a400       _CallSettingFrame_NotifyContinuationAddr 000000018003b400 f   libvcruntime:handlers.obj
 0001:0003a430       _CallSettingFrameEncoded   000000018003b430 f   libvcruntime:handlers.obj
 0001:0003a478       calloc                     000000018003b478 f   libucrt:calloc.obj
 0001:0003a480       realloc                    000000018003b480 f   libucrt:realloc.obj
 0001:0003a530       strcspn                    000000018003b530 f   libucrt:strcspn.obj
 0001:0003aacc       ??$ensure_buffer_is_big_enough@D@formatting_buffer@__crt_stdio_output@@QEAA_N_K@Z 000000018003bacc f i libucrt:output.obj
 0001:0003ab74       ??$type_case_integer_parse_into_buffer@I@?$output_processor@DV?$string_output_adapter@D@__crt_stdio_output@@V?$format_validation_base@DV?$string_output_adapter@D@__crt_stdio_output@@@2@@__crt_stdio_output@@AEAAXII_N@Z 000000018003bb74 f i libucrt:output.obj
 0001:0003abfc       ??$type_case_integer_parse_into_buffer@_K@?$output_processor@DV?$string_output_adapter@D@__crt_stdio_output@@V?$format_validation_base@DV?$string_output_adapter@D@__crt_stdio_output@@@2@@__crt_stdio_output@@AEAAX_KI_N@Z 000000018003bbfc f i libucrt:output.obj
 0001:0003ac8c       ??$write_multiple_characters@V?$string_output_adapter@D@__crt_stdio_output@@D@__crt_stdio_output@@YAXAEBV?$string_output_adapter@D@0@DHQEAH@Z 000000018003bc8c f i libucrt:output.obj
 0001:0003ad04       ??0_LocaleUpdate@@QEAA@QEAU__crt_locale_pointers@@@Z 000000018003bd04 f i libucrt:output.obj
 0001:0003ada0       ??1_LocaleUpdate@@QEAA@XZ  000000018003bda0 f i libucrt:output.obj
 0001:0003adc0       ?crop_zeroes@__crt_stdio_output@@YAXPEADQEAU__crt_locale_pointers@@@Z 000000018003bdc0 f i libucrt:output.obj
 0001:0003ae60       ?force_decimal_point@__crt_stdio_output@@YAXPEADQEAU__crt_locale_pointers@@@Z 000000018003be60 f i libucrt:output.obj
 0001:0003aed8       ?parse_int_from_format_string@?$output_processor@DV?$string_output_adapter@D@__crt_stdio_output@@V?$format_validation_base@DV?$string_output_adapter@D@__crt_stdio_output@@@2@@__crt_stdio_output@@AEAA_NQEAH@Z 000000018003bed8 f i libucrt:output.obj
 0001:0003af7c       ?process@?$output_processor@DV?$string_output_adapter@D@__crt_stdio_output@@V?$format_validation_base@DV?$string_output_adapter@D@__crt_stdio_output@@@2@@__crt_stdio_output@@QEAAHXZ 000000018003bf7c f i libucrt:output.obj
 0001:0003b190       ?state_case_normal@?$output_processor@DV?$string_output_adapter@D@__crt_stdio_output@@V?$format_validation_base@DV?$string_output_adapter@D@__crt_stdio_output@@@2@@__crt_stdio_output@@AEAA_NXZ 000000018003c190 f i libucrt:output.obj
 0001:0003b204       ?state_case_normal_tchar@?$output_processor@DV?$string_output_adapter@D@__crt_stdio_output@@V?$format_validation_base@DV?$string_output_adapter@D@__crt_stdio_output@@@2@@__crt_stdio_output@@AEAA_ND@Z 000000018003c204 f i libucrt:output.obj
 0001:0003b2ac       ?state_case_size@?$output_processor@DV?$string_output_adapter@D@__crt_stdio_output@@V?$format_validation_base@DV?$string_output_adapter@D@__crt_stdio_output@@@2@@__crt_stdio_output@@AEAA_NXZ 000000018003c2ac f i libucrt:output.obj
 0001:0003b41c       ?state_case_type@?$output_processor@DV?$string_output_adapter@D@__crt_stdio_output@@V?$format_validation_base@DV?$string_output_adapter@D@__crt_stdio_output@@@2@@__crt_stdio_output@@AEAA_NXZ 000000018003c41c f i libucrt:output.obj
 0001:0003b690       ?to_integer_size@__crt_stdio_output@@YA_KW4length_modifier@1@@Z 000000018003c690 f i libucrt:output.obj
 0001:0003b6f8       ?type_case_Z@?$output_processor@DV?$string_output_adapter@D@__crt_stdio_output@@V?$format_validation_base@DV?$string_output_adapter@D@__crt_stdio_output@@@2@@__crt_stdio_output@@AEAA_NXZ 000000018003c6f8 f i libucrt:output.obj
 0001:0003b76c       ?type_case_a@?$output_processor@DV?$string_output_adapter@D@__crt_stdio_output@@V?$format_validation_base@DV?$string_output_adapter@D@__crt_stdio_output@@@2@@__crt_stdio_output@@AEAA_NXZ 000000018003c76c f i libucrt:output.obj
 0001:0003b928       ?type_case_c_tchar@?$output_processor@DV?$string_output_adapter@D@__crt_stdio_output@@V?$format_validation_base@DV?$string_output_adapter@D@__crt_stdio_output@@@2@@__crt_stdio_output@@AEAA_ND@Z 000000018003c928 f i libucrt:output.obj
 0001:0003b9f0       ?type_case_integer@?$output_processor@DV?$string_output_adapter@D@__crt_stdio_output@@V?$format_validation_base@DV?$string_output_adapter@D@__crt_stdio_output@@@2@@__crt_stdio_output@@AEAA_NI_N@Z 000000018003c9f0 f i libucrt:output.obj
 0001:0003bb70       ?type_case_n@?$output_processor@DV?$string_output_adapter@D@__crt_stdio_output@@V?$format_validation_base@DV?$string_output_adapter@D@__crt_stdio_output@@@2@@__crt_stdio_output@@AEAA_NXZ 000000018003cb70 f i libucrt:output.obj
 0001:0003bbf8       ?type_case_s@?$output_processor@DV?$string_output_adapter@D@__crt_stdio_output@@V?$format_validation_base@DV?$string_output_adapter@D@__crt_stdio_output@@@2@@__crt_stdio_output@@AEAA_NXZ 000000018003cbf8 f i libucrt:output.obj
 0001:0003bc90       ?write_stored_string_tchar@?$output_processor@DV?$string_output_adapter@D@__crt_stdio_output@@V?$format_validation_base@DV?$string_output_adapter@D@__crt_stdio_output@@@2@@__crt_stdio_output@@AEAA_ND@Z 000000018003cc90 f i libucrt:output.obj
 0001:0003bd6c       ?write_string@?$string_output_adapter@D@__crt_stdio_output@@QEBAXQEBDHQEAHAEAV__crt_deferred_errno_cache@@@Z 000000018003cd6c f i libucrt:output.obj
 0001:0003be10       __stdio_common_vsprintf_s  000000018003ce10 f   libucrt:output.obj
 0001:0003be74       localeconv                 000000018003ce74 f   libucrt:localeconv.obj
 0001:0003bea8       free                       000000018003cea8 f   libucrt:free.obj
 0001:0003bebc       ??$parse_integer@KV?$c_string_character_source@D@__crt_strtox@@@__crt_strtox@@YAKQEAU__crt_locale_pointers@@V?$c_string_character_source@D@0@H_N@Z 000000018003cebc f i libucrt:atox.obj
 0001:0003c1c0       ??$parse_integer@KV?$c_string_character_source@_W@__crt_strtox@@@__crt_strtox@@YAKQEAU__crt_locale_pointers@@V?$c_string_character_source@_W@0@H_N@Z 000000018003d1c0 f i libucrt:atox.obj
 0001:0003c868       _ischartype_l              000000018003d868 f i libucrt:atox.obj
 0001:0003c8e0       _wtol                      000000018003d8e0 f   libucrt:atox.obj
 0001:0003c90c       atoi                       000000018003d90c f   libucrt:atox.obj
 0001:0003c938       frexp                      000000018003d938 f   libucrt:frexp.obj
 0001:0003ca30       __acrt_call_reportfault    000000018003da30 f   libucrt:invalid_parameter.obj
 0001:0003cb8c       __acrt_initialize_invalid_parameter_handler 000000018003db8c f   libucrt:invalid_parameter.obj
 0001:0003cb94       _invalid_parameter         000000018003db94 f   libucrt:invalid_parameter.obj
 0001:0003cc44       _invalid_parameter_noinfo  000000018003dc44 f   libucrt:invalid_parameter.obj
 0001:0003cc64       _invalid_parameter_noinfo_noreturn 000000018003dc64 f   libucrt:invalid_parameter.obj
 0001:0003cc94       _invoke_watson             000000018003dc94 f   libucrt:invalid_parameter.obj
 0001:0003cd50       ??$parse_floating_point@V?$c_string_character_source@D@__crt_strtox@@N@__crt_strtox@@YA?AW4SLD_STATUS@@QEAU__crt_locale_pointers@@V?$c_string_character_source@D@0@QEAN@Z 000000018003dd50 f i libucrt:atof.obj
 0001:0003cdf0       ??$parse_floating_point_from_source@V?$c_string_character_source@D@__crt_strtox@@@__crt_strtox@@YA?AW4floating_point_parse_result@0@QEAU__crt_locale_pointers@@AEAV?$c_string_character_source@D@0@AEAUfloating_point_string@0@@Z 000000018003ddf0 f i libucrt:atof.obj
 0001:0003d2a0       ??$parse_floating_point_possible_infinity@DV?$c_string_character_source@D@__crt_strtox@@PEBD@__crt_strtox@@YA?AW4floating_point_parse_result@0@AEADAEAV?$c_string_character_source@D@0@PEBD@Z 000000018003e2a0 f i libucrt:atof.obj
 0001:0003d3fc       ??$parse_floating_point_possible_nan@DV?$c_string_character_source@D@__crt_strtox@@PEBD@__crt_strtox@@YA?AW4floating_point_parse_result@0@AEADAEAV?$c_string_character_source@D@0@PEBD@Z 000000018003e3fc f i libucrt:atof.obj
 0001:0003d5e8       ??$parse_floating_point_possible_nan_is_ind@DV?$c_string_character_source@D@__crt_strtox@@@__crt_strtox@@YA_NAEADAEAV?$c_string_character_source@D@0@@Z 000000018003e5e8 f i libucrt:atof.obj
 0001:0003d62c       ??$parse_floating_point_possible_nan_is_snan@DV?$c_string_character_source@D@__crt_strtox@@@__crt_strtox@@YA_NAEADAEAV?$c_string_character_source@D@0@@Z 000000018003e62c f i libucrt:atof.obj
 0001:0003d670       ??$parse_floating_point_write_result@N@__crt_strtox@@YA?AW4SLD_STATUS@@W4floating_point_parse_result@0@AEBUfloating_point_string@0@QEAN@Z 000000018003e670 f i libucrt:atof.obj
 0001:0003d850       ?as_double@floating_point_value@__crt_strtox@@QEBAAEANXZ 000000018003e850 f i libucrt:atof.obj
 0001:0003d88c       ?as_float@floating_point_value@__crt_strtox@@QEBAAEAMXZ 000000018003e88c f i libucrt:atof.obj
 0001:0003d8c8       ?assemble_floating_point_value@__crt_strtox@@YA?AW4SLD_STATUS@@_KH_N1AEBVfloating_point_value@1@@Z 000000018003e8c8 f i libucrt:atof.obj
 0001:0003dc68       ?assemble_floating_point_value_from_big_integer@__crt_strtox@@YA?AW4SLD_STATUS@@AEBUbig_integer@1@I_N1AEBVfloating_point_value@1@@Z 000000018003ec68 f i libucrt:atof.obj
 0001:0003ddc8       ?convert_decimal_string_to_floating_type_common@__crt_strtox@@YA?AW4SLD_STATUS@@AEBUfloating_point_string@1@AEBVfloating_point_value@1@@Z 000000018003edc8 f i libucrt:atof.obj
 0001:0003fc18       ?convert_hexadecimal_string_to_floating_type_common@__crt_strtox@@YA?AW4SLD_STATUS@@AEBUfloating_point_string@1@AEBVfloating_point_value@1@@Z 0000000180040c18 f i libucrt:atof.obj
 0001:0003fcd0       ?divide@__crt_strtox@@YA_KAEAUbig_integer@1@AEBU21@@Z 0000000180040cd0 f i libucrt:atof.obj
 0001:000400fc       atof                       00000001800410fc f   libucrt:atof.obj
 0001:0004018c       fputc                      000000018004118c f   libucrt:fputc.obj
 0001:000404cc       __acrt_stdio_flush_nolock  00000001800414cc f   libucrt:fflush.obj
 0001:00040548       _fflush_nolock             0000000180041548 f   libucrt:fflush.obj
 0001:00040594       _flushall                  0000000180041594 f   libucrt:fflush.obj
 0001:0004059c       fflush                     000000018004159c f   libucrt:fflush.obj
 0001:00040604       _fclose_nolock             0000000180041604 f   libucrt:fclose.obj
 0001:00040688       fclose                     0000000180041688 f   libucrt:fclose.obj
 0001:000406ec       _fgetc_nolock              00000001800416ec f   libucrt:fgetc.obj
 0001:00040730       fgetc                      0000000180041730 f   libucrt:fgetc.obj
 0001:00040838       __acrt_initialize_stdio    0000000180041838 f   libucrt:_file.obj
 0001:00040958       __acrt_iob_func            0000000180041958 f   libucrt:_file.obj
 0001:0004096c       __acrt_uninitialize_stdio  000000018004196c f   libucrt:_file.obj
 0001:000409c8       _get_stream_buffer_pointers 00000001800419c8 f   libucrt:_file.obj
 0001:00040a10       _lock_file                 0000000180041a10 f   libucrt:_file.obj
 0001:00040a1c       _unlock_file               0000000180041a1c f   libucrt:_file.obj
 0001:00040acc       _fwrite_nolock             0000000180041acc f   libucrt:fwrite.obj
 0001:00040c78       fwrite                     0000000180041c78 f   libucrt:fwrite.obj
 0001:00040cfc       fgetpos                    0000000180041cfc f   libucrt:fgetpos.obj
 0001:00040e6c       setvbuf                    0000000180041e6c f   libucrt:setvbuf.obj
 0001:00040f08       _ungetc_nolock             0000000180041f08 f   libucrt:ungetc.obj
 0001:00041030       ungetc                     0000000180042030 f   libucrt:ungetc.obj
 0001:00041088       fsetpos                    0000000180042088 f   libucrt:fsetpos.obj
 0001:000410c0       _fread_nolock_s            00000001800420c0 f   libucrt:fread.obj
 0001:00041320       fread                      0000000180042320 f   libucrt:fread.obj
 0001:00041340       fread_s                    0000000180042340 f   libucrt:fread.obj
 0001:000415f0       _fseeki64                  00000001800425f0 f   libucrt:fseek.obj
 0001:000415f8       fseek                      00000001800425f8 f   libucrt:fseek.obj
 0001:00041600       malloc                     0000000180042600 f   libucrt:malloc.obj
 0001:00041608       ??$__acrt_get_current_directory_narrow_acp_or_utf8@U__crt_win32_buffer_internal_dynamic_resizing@@@@YAHAEAV?$__crt_win32_buffer@DU__crt_win32_buffer_internal_dynamic_resizing@@@@@Z 0000000180042608 f i libucrt:chdir.obj
 0001:00041724       ??$__acrt_get_current_directory_wide@U__crt_win32_buffer_internal_dynamic_resizing@@@@YAHAEAV?$__crt_win32_buffer@_WU__crt_win32_buffer_internal_dynamic_resizing@@@@@Z 0000000180042724 f i libucrt:chdir.obj
 0001:000417ec       ??$__acrt_wcs_to_mbs_cp@U__crt_win32_buffer_internal_dynamic_resizing@@@@YAHQEB_WAEAV?$__crt_win32_buffer@DU__crt_win32_buffer_internal_dynamic_resizing@@@@I@Z 00000001800427ec f i libucrt:chdir.obj
 0001:00041978       _chdir                     0000000180042978 f   libucrt:chdir.obj
 0001:00041aac       ___lc_codepage_func        0000000180042aac f   libucrt:initctype.obj
 0001:00041adc       ___lc_collate_cp_func      0000000180042adc f   libucrt:initctype.obj
 0001:00041b0c       ___lc_locale_name_func     0000000180042b0c f   libucrt:initctype.obj
 0001:00041b40       ___mb_cur_max_func         0000000180042b40 f   libucrt:initctype.obj
 0001:00041b70       __acrt_locale_initialize_ctype 0000000180042b70 f   libucrt:initctype.obj
 0001:000421d4       __acrt_initialize_locks    00000001800431d4 f   libucrt:locks.obj
 0001:0004221c       __acrt_lock                000000018004321c f   libucrt:locks.obj
 0001:00042238       __acrt_uninitialize_locks  0000000180043238 f   libucrt:locks.obj
 0001:00042270       __acrt_unlock              0000000180043270 f   libucrt:locks.obj
 0001:0004228c       _lock_locales              000000018004328c f   libucrt:locks.obj
 0001:000422a8       _unlock_locales            00000001800432a8 f   libucrt:locks.obj
 0001:00042594       setlocale                  0000000180043594 f   libucrt:setlocale.obj
 0001:000425e0       __pctype_func              00000001800435e0 f   libucrt:ctype.obj
 0001:00042610       islower                    0000000180043610 f   libucrt:_ctype.obj
 0001:000426c0       isupper                    00000001800436c0 f   libucrt:_ctype.obj
 0001:00042768       _wcsdup                    0000000180043768 f   libucrt:wcsdup.obj
 0001:000427ec       __acrt_errno_from_os_error 00000001800437ec f   libucrt:errno.obj
 0001:00042834       __acrt_errno_map_os_error  0000000180043834 f   libucrt:errno.obj
 0001:00042884       __doserrno                 0000000180043884 f   libucrt:errno.obj
 0001:000428a4       _errno                     00000001800438a4 f   libucrt:errno.obj
 0001:000428c4       abort                      00000001800438c4 f   libucrt:abort.obj
 0001:000429d8       _fsopen                    00000001800439d8 f   libucrt:fopen.obj
 0001:000429e0       __strncnt                  00000001800439e0 f   libucrt:strncnt.obj
 0001:00042a00       pow                        0000000180043a00 f   libucrt:pow.obj
 0001:000440a0       powf                       00000001800450a0 f   libucrt:powf.obj
 0001:00044f68       ??$__acrt_mbs_to_wcs_cp@U__crt_win32_buffer_internal_dynamic_resizing@@@@YAHQEBDAEAV?$__crt_win32_buffer@_WU__crt_win32_buffer_internal_dynamic_resizing@@@@I@Z 0000000180045f68 f i libucrt:strftime.obj
 0001:000450e0       ??$__acrt_wcs_to_mbs_cp@U__crt_win32_buffer_no_resizing@@@@YAHQEB_WAEAV?$__crt_win32_buffer@DU__crt_win32_buffer_no_resizing@@@@I@Z 00000001800460e0 f i libucrt:strftime.obj
 0001:000451f4       _toupper_l                 00000001800461f4 f   libucrt:tolower_toupper.obj
 0001:00045330       toupper                    0000000180046330 f   libucrt:tolower_toupper.obj
 0001:0004535c       strnlen                    000000018004635c f   libucrt:strnlen.obj
 0001:000454ac       wcsnlen                    00000001800464ac f   libucrt:strnlen.obj
 0001:00045684       __acrt_initialize_new_handler 0000000180046684 f   libucrt:new_handler.obj
 0001:0004568c       _callnewh                  000000018004668c f   libucrt:new_handler.obj
 0001:000456bc       _query_new_handler         00000001800466bc f   libucrt:new_handler.obj
 0001:000456f0       _seh_filter_dll            00000001800466f0 f   libucrt:exception_filter.obj
 0001:00045704       _seh_filter_exe            0000000180046704 f   libucrt:exception_filter.obj
 0001:00045af4       __acrt_initialize_thread_local_exit_callback 0000000180046af4 f   libucrt:exit.obj
 0001:00045afc       _cexit                     0000000180046afc f   libucrt:exit.obj
 0001:00045b0c       _exit                      0000000180046b0c f   libucrt:exit.obj
 0001:00045b18       _is_c_termination_complete 0000000180046b18 f   libucrt:exit.obj
 0001:00045ce0       __acrt_allocate_buffer_for_argv 0000000180046ce0 f   libucrt:argv_parsing.obj
 0001:00045d40       _configure_narrow_argv     0000000180046d40 f   libucrt:argv_parsing.obj
 0001:000460b8       __dcrt_uninitialize_environments_nolock 00000001800470b8 f   libucrt:environment_initialization.obj
 0001:000460f0       _initialize_narrow_environment 00000001800470f0 f   libucrt:environment_initialization.obj
 0001:00046438       _crt_atexit                0000000180047438 f   libucrt:onexit.obj
 0001:00046448       _execute_onexit_table      0000000180047448 f   libucrt:onexit.obj
 0001:00046484       _initialize_onexit_table   0000000180047484 f   libucrt:onexit.obj
 0001:000464ac       _register_onexit_function  00000001800474ac f   libucrt:onexit.obj
 0001:00046620       __acrt_initialize          0000000180047620 f   libucrt:initialization.obj
 0001:00046634       __acrt_thread_attach       0000000180047634 f   libucrt:initialization.obj
 0001:00046648       __acrt_thread_detach       0000000180047648 f   libucrt:initialization.obj
 0001:00046658       __acrt_uninitialize        0000000180047658 f   libucrt:initialization.obj
 0001:00046690       __acrt_uninitialize_critical 0000000180047690 f   libucrt:initialization.obj
 0001:000466a0       _initterm                  00000001800476a0 f   libucrt:initterm.obj
 0001:00046704       _initterm_e                0000000180047704 f   libucrt:initterm.obj
 0001:00046744       terminate                  0000000180047744 f   libucrt:terminate.obj
 0001:00046764       strcpy_s                   0000000180047764 f   libucrt:strcpy_s.obj
 0001:000467e0       strncmp                    00000001800477e0 f   libucrt:strncmp.obj
 0001:00046860       wcsncmp                    0000000180047860 f   libucrt:wcsncmp.obj
 0001:0004688c       _calloc_base               000000018004788c f   libucrt:calloc_base.obj
 0001:00046904       _realloc_base              0000000180047904 f   libucrt:realloc_base.obj
 0001:00046980       _free_base                 0000000180047980 f   libucrt:free_base.obj
 0001:000469c0       _malloc_base               00000001800479c0 f   libucrt:malloc_base.obj
 0001:00046a20       strtol                     0000000180047a20 f   libucrt:strtox.obj
 0001:00046a4c       _mbtowc_l                  0000000180047a4c f   libucrt:mbtowc.obj
 0001:00046bcc       mbtowc                     0000000180047bcc f   libucrt:mbtowc.obj
 0001:00046bd4       _wctomb_s_l                0000000180047bd4 f   libucrt:wctomb.obj
 0001:000470e8       __acrt_freeptd             00000001800480e8 f   libucrt:per_thread_data.obj
 0001:0004712c       __acrt_getptd              000000018004812c f   libucrt:per_thread_data.obj
 0001:00047200       __acrt_getptd_head         0000000180048200 f   libucrt:per_thread_data.obj
 0001:000472a8       __acrt_getptd_noexit       00000001800482a8 f   libucrt:per_thread_data.obj
 0001:00047374       __acrt_initialize_ptd      0000000180048374 f   libucrt:per_thread_data.obj
 0001:000473b0       __acrt_uninitialize_ptd    00000001800483b0 f   libucrt:per_thread_data.obj
 0001:000473d4       __acrt_update_locale_info  00000001800483d4 f   libucrt:locale_update.obj
 0001:00047408       __acrt_update_multibyte_info 0000000180048408 f   libucrt:locale_update.obj
 0001:00047e48       __acrt_fp_format           0000000180048e48 f   libucrt:cvt.obj
 0001:00048180       _fileno                    0000000180049180 f   libucrt:fileno.obj
 0001:000481a8       _get_printf_count_output   00000001800491a8 f   libucrt:printf_count_output.obj
 0001:000481c0       __acrt_should_use_temporary_buffer 00000001800491c0 f   libucrt:_sftbuf.obj
 0001:00048208       __acrt_stdio_begin_temporary_buffering_nolock 0000000180049208 f   libucrt:_sftbuf.obj
 0001:000482d0       __acrt_stdio_end_temporary_buffering_nolock 00000001800492d0 f   libucrt:_sftbuf.obj
 0001:00048574       ?commit_locale_name@_expandlocale_locale_name_cache@@QEAAXQEB_W_K@Z 0000000180049574 f i libucrt:wsetlocale.obj
 0001:000485ec       __acrt_copy_locale_name    00000001800495ec f   libucrt:wsetlocale.obj
 0001:00048670       __acrt_set_locale_changed  0000000180049670 f   libucrt:wsetlocale.obj
 0001:0004867c       __acrt_uninitialize_locale 000000018004967c f   libucrt:wsetlocale.obj
 0001:000486ac       __lc_lctowcs               00000001800496ac f   libucrt:wsetlocale.obj
 0001:00048750       __lc_wcstolc               0000000180049750 f   libucrt:wsetlocale.obj
 0001:00048df8       _wcscats                   0000000180049df8 f   libucrt:wsetlocale.obj
 0001:00048e60       _wsetlocale                0000000180049e60 f   libucrt:wsetlocale.obj
 0001:00049dac       __acrt_initialize_lowio    000000018004adac f   libucrt:ioinit.obj
 0001:00049de8       __acrt_uninitialize_lowio  000000018004ade8 f   libucrt:ioinit.obj
 0001:00049e28       iswctype                   000000018004ae28 f   libucrt:iswctype.obj
 0001:00049e94       _isctype_l                 000000018004ae94 f   libucrt:isctype.obj
 0001:00049f9c       _dsign                     000000018004af9c f   libucrt:nan.obj
 0001:00049fb4       _errcode                   000000018004afb4 f   libucrt:fpexcept.obj
 0001:00049ff8       _except1                   000000018004aff8 f   libucrt:fpexcept.obj
 0001:0004a0ec       _handle_exc                000000018004b0ec f   libucrt:fpexcept.obj
 0001:0004a354       _raise_exc                 000000018004b354 f   libucrt:fpexcept.obj
 0001:0004a37c       _raise_exc_ex              000000018004b37c f   libucrt:fpexcept.obj
 0001:0004a68c       _raise_excf                000000018004b68c f   libucrt:fpexcept.obj
 0001:0004a6b8       _set_errno_from_matherr    000000018004b6b8 f   libucrt:fpexcept.obj
 0001:0004a6e8       _umatherr                  000000018004b6e8 f   libucrt:fpexcept.obj
 0001:0004a7bc       _decomp                    000000018004b7bc f   libucrt:util.obj
 0001:0004a8ec       _sptype                    000000018004b8ec f   libucrt:util.obj
 0001:0004a960       _clrfp                     000000018004b960 f   libucrt:fpctrl.obj
 0001:0004a980       _ctrlfp                    000000018004b980 f   libucrt:fpctrl.obj
 0001:0004a9fc       _set_statfp                000000018004b9fc f   libucrt:fpctrl.obj
 0001:0004aa1c       _statfp                    000000018004ba1c f   libucrt:fpctrl.obj
 0001:0004aa30       fegetround                 000000018004ba30 f   libucrt:fegetround.obj
 0001:0004aba4       __acrt_stdio_flush_and_write_narrow_nolock 000000018004bba4 f   libucrt:_flsbuf.obj
 0001:0004ace8       _commit                    000000018004bce8 f   libucrt:commit.obj
 0001:0004b5f8       _write                     000000018004c5f8 f   libucrt:write.obj
 0001:0004b6e4       _write_nolock              000000018004c6e4 f   libucrt:write.obj
 0001:0004ba3c       _close                     000000018004ca3c f   libucrt:close.obj
 0001:0004bae0       _close_nolock              000000018004cae0 f   libucrt:close.obj
 0001:0004bba0       ?__acrt_stdio_allocate_stream@@YA?AV__crt_stdio_stream@@XZ 000000018004cba0 f   libucrt:stream.obj
 0001:0004bbf8       ?__acrt_stdio_free_stream@@YAXV__crt_stdio_stream@@@Z 000000018004cbf8 f   libucrt:stream.obj
 0001:0004bd00       __acrt_stdio_free_buffer_nolock 000000018004cd00 f   libucrt:_freebuf.obj
 0001:0004bd40       __acrt_stdio_refill_and_read_narrow_nolock 000000018004cd40 f   libucrt:_filbuf.obj
 0001:0004c128       __acrt_AppPolicyGetProcessTerminationMethodInternal 000000018004d128 f   libucrt:winapi_thunks.obj
 0001:0004c178       __acrt_AreFileApisANSI     000000018004d178 f   libucrt:winapi_thunks.obj
 0001:0004c1b4       __acrt_EnumSystemLocalesEx 000000018004d1b4 f   libucrt:winapi_thunks.obj
 0001:0004c24c       __acrt_FlsAlloc            000000018004d24c f   libucrt:winapi_thunks.obj
 0001:0004c294       __acrt_FlsFree             000000018004d294 f   libucrt:winapi_thunks.obj
 0001:0004c2dc       __acrt_FlsGetValue         000000018004d2dc f   libucrt:winapi_thunks.obj
 0001:0004c324       __acrt_FlsSetValue         000000018004d324 f   libucrt:winapi_thunks.obj
 0001:0004c378       __acrt_GetLocaleInfoEx     000000018004d378 f   libucrt:winapi_thunks.obj
 0001:0004c3fc       __acrt_GetUserDefaultLocaleName 000000018004d3fc f   libucrt:winapi_thunks.obj
 0001:0004c460       __acrt_InitializeCriticalSectionEx 000000018004d460 f   libucrt:winapi_thunks.obj
 0001:0004c4c4       __acrt_IsValidLocaleName   000000018004d4c4 f   libucrt:winapi_thunks.obj
 0001:0004c51c       __acrt_LCIDToLocaleName    000000018004d51c f   libucrt:winapi_thunks.obj
 0001:0004c58c       __acrt_LCMapStringEx       000000018004d58c f   libucrt:winapi_thunks.obj
 0001:0004c668       __acrt_LocaleNameToLCID    000000018004d668 f   libucrt:winapi_thunks.obj
 0001:0004c6b8       __acrt_can_use_vista_locale_apis 000000018004d6b8 f   libucrt:winapi_thunks.obj
 0001:0004c6e8       __acrt_eagerly_load_locale_apis 000000018004d6e8 f   libucrt:winapi_thunks.obj
 0001:0004c844       __acrt_initialize_winapi_thunks 000000018004d844 f   libucrt:winapi_thunks.obj
 0001:0004c878       __acrt_uninitialize_winapi_thunks 000000018004d878 f   libucrt:winapi_thunks.obj
 0001:0004c8bc       _fcloseall                 000000018004d8bc f   libucrt:closeall.obj
 0001:0004ce40       _ftelli64                  000000018004de40 f   libucrt:ftell.obj
 0001:0004ce48       _ftelli64_nolock           000000018004de48 f   libucrt:ftell.obj
 0001:0004ce50       __acrt_stdio_allocate_buffer_nolock 000000018004de50 f   libucrt:_getbuf.obj
 0001:0004d424       _read                      000000018004e424 f   libucrt:read.obj
 0001:0004d540       _read_nolock               000000018004e540 f   libucrt:read.obj
 0001:0004db24       _lseeki64                  000000018004eb24 f   libucrt:lseek.obj
 0001:0004db2c       _lseeki64_nolock           000000018004eb2c f   libucrt:lseek.obj
 0001:0004db34       __acrt_SetEnvironmentVariableA 000000018004eb34 f   libucrt:setenvironmentvariablea.obj
 0001:0004dccc       __acrt_SetCurrentDirectoryA 000000018004eccc f   libucrt:setcurrentdirectorya.obj
 0001:0004dd9c       __acrt_WideCharToMultiByte 000000018004ed9c f   libucrt:widechartomultibyte.obj
 0001:0004dfc8       __acrt_GetLocaleInfoA      000000018004efc8 f   libucrt:getlocaleinfoa.obj
 0001:0004e190       __acrt_GetStringTypeA      000000018004f190 f   libucrt:getstringtypea.obj
 0001:0004e638       __acrt_LCMapStringA        000000018004f638 f   libucrt:lcmapstringa.obj
 0001:0004e8d0       _mbstowcs_s_l              000000018004f8d0 f   libucrt:mbstowcs.obj
 0001:0004ea04       mbstowcs_s                 000000018004fa04 f   libucrt:mbstowcs.obj
 0001:0004ed80       _wcstombs_s_l              000000018004fd80 f   libucrt:wcstombs.obj
 0001:0004ee68       wcscpy_s                   000000018004fe68 f   libucrt:wcscpy_s.obj
 0001:0004ef18       __acrt_get_sigabrt_handler 000000018004ff18 f   libucrt:signal.obj
 0001:0004ef48       __acrt_initialize_signal_handlers 000000018004ff48 f   libucrt:signal.obj
 0001:0004ef68       raise                      000000018004ff68 f   libucrt:signal.obj
 0001:0004f1d4       ??$__acrt_stdio_parse_mode@D@@YA?AU__acrt_stdio_stream_mode@@QEBD@Z 00000001800501d4 f i libucrt:openfile.obj
 0001:0004f498       _openfile                  0000000180050498 f   libucrt:openfile.obj
 0001:0004f540       __acrt_initialize_fma3     0000000180050540 f   libucrt:fma3_available.obj
 0001:0004f5b0       _pow_special               00000001800505b0 f   libucrt:pow_special.obj
 0001:0004f6d4       _powf_special              00000001800506d4 f   libucrt:pow_special.obj
 0001:0004f860       __acrt_MultiByteToWideChar 0000000180050860 f   libucrt:multibytetowidechar.obj
 0001:0004f8bc       __ascii_wcsicmp            00000001800508bc f   libucrt:wcsicmp.obj
 0001:0004f8fc       _wcsicmp                   00000001800508fc f   libucrt:wcsicmp.obj
 0001:0004f944       _wcsicmp_l                 0000000180050944 f   libucrt:wcsicmp.obj
 0001:0004fa6c       __acrt_initialize_timeset  0000000180050a6c f   libucrt:timeset.obj
 0001:0004fabc       _isleadbyte_l              0000000180050abc f i libucrt:_wctype.obj
 0001:0004fb08       __acrt_get_process_end_policy 0000000180050b08 f   libucrt:win_policies.obj
 0001:000501fc       __acrt_expand_narrow_argv_wildcards 00000001800511fc f   libucrt:argv_wildcards.obj
 0001:00050204       __acrt_GetModuleFileNameA  0000000180051204 f   libucrt:getmodulefilenamea.obj
 0001:00050a4c       __acrt_initialize_multibyte 0000000180051a4c f   libucrt:mbctype.obj
 0001:00050aac       __acrt_update_thread_multibyte_data 0000000180051aac f   libucrt:mbctype.obj
 0001:00050ac8       _setmbcp_nolock            0000000180051ac8 f   libucrt:mbctype.obj
 0001:00050dfc       _ismbblead                 0000000180051dfc f   libucrt:ismbbyte.obj
 0001:00050e10       __acrt_initialize_command_line 0000000180051e10 f   libucrt:argv_data.obj
 0001:00050e38       __dcrt_get_narrow_environment_from_os 0000000180051e38 f   libucrt:get_environment_from_os.obj
 0001:00050f3c       _recalloc_base             0000000180051f3c f   libucrt:recalloc.obj
 0001:00050fd4       __acrt_initialize_heap     0000000180051fd4 f   libucrt:heap_handle.obj
 0001:00050ff0       __acrt_uninitialize_heap   0000000180051ff0 f   libucrt:heap_handle.obj
 0001:00050ffc       __acrt_execute_initializers 0000000180051ffc f   libucrt:shared_initialization.obj
 0001:0005107c       __acrt_execute_uninitializers 000000018005207c f   libucrt:shared_initialization.obj
 0001:000510b8       __acrt_has_user_matherr    00000001800520b8 f   libucrt:matherr.obj
 0001:000510d8       __acrt_initialize_user_matherr 00000001800520d8 f   libucrt:matherr.obj
 0001:000510e0       __acrt_invoke_user_matherr 00000001800520e0 f   libucrt:matherr.obj
 0001:00051110       _query_new_mode            0000000180052110 f   libucrt:new_mode.obj
 0001:00051118       ?__mbrtowc_utf8@__crt_mbstring@@YA_KPEA_WPEBD_KPEAU_Mbstatet@@@Z 0000000180052118 f   libucrt:mbrtowc.obj
 0001:00051154       ?__mbsrtowcs_utf8@__crt_mbstring@@YA_KPEA_WPEAPEBD_KPEAU_Mbstatet@@@Z 0000000180052154 f   libucrt:mbrtowc.obj
 0001:000512cc       ?__c32rtomb_utf8@__crt_mbstring@@YA_KPEAD_UPEAU_Mbstatet@@@Z 00000001800522cc f   libucrt:c32rtomb.obj
 0001:00051380       c32rtomb                   0000000180052380 f   libucrt:c32rtomb.obj
 0001:00051388       __acrt_add_locale_ref      0000000180052388 f   libucrt:locale_refcounting.obj
 0001:00051414       __acrt_free_locale         0000000180052414 f   libucrt:locale_refcounting.obj
 0001:0005158c       __acrt_locale_add_lc_time_reference 000000018005258c f   libucrt:locale_refcounting.obj
 0001:000515b4       __acrt_locale_free_lc_time_if_unreferenced 00000001800525b4 f   libucrt:locale_refcounting.obj
 0001:000515ec       __acrt_locale_release_lc_time_reference 00000001800525ec f   libucrt:locale_refcounting.obj
 0001:00051614       __acrt_release_locale_ref  0000000180052614 f   libucrt:locale_refcounting.obj
 0001:000516bc       __acrt_update_thread_locale_data 00000001800526bc f   libucrt:locale_refcounting.obj
 0001:0005172c       _updatetlocinfoEx_nolock   000000018005272c f   libucrt:locale_refcounting.obj
 0001:00051794       __acrt_fp_strflt_to_string 0000000180052794 f   libucrt:_fptostr.obj
 0001:000518f0       __acrt_fltout              00000001800528f0 f   libucrt:cfout.obj
 0001:00052b34       _isatty                    0000000180053b34 f   libucrt:isatty.obj
 0001:00052b94       __acrt_locale_free_monetary 0000000180053b94 f   libucrt:initmon.obj
 0001:00052ca0       __acrt_locale_initialize_monetary 0000000180053ca0 f   libucrt:initmon.obj
 0001:000531d4       __acrt_locale_free_numeric 00000001800541d4 f   libucrt:initnum.obj
 0001:00053240       __acrt_locale_initialize_numeric 0000000180054240 f   libucrt:initnum.obj
 0001:000538c0       __acrt_locale_free_time    00000001800548c0 f   libucrt:inittime.obj
 0001:000539c8       __acrt_locale_initialize_time 00000001800549c8 f   libucrt:inittime.obj
 0001:00053a64       wcscat_s                   0000000180054a64 f   libucrt:wcscat_s.obj
 0001:00053ae4       wcsncat_s                  0000000180054ae4 f   libucrt:wcsncat_s.obj
 0001:00053be4       wcsncpy_s                  0000000180054be4 f   libucrt:wcsncpy_s.obj
 0001:00053cc8       wcscspn                    0000000180054cc8 f   libucrt:wcscspn.obj
 0001:00053d08       wcspbrk                    0000000180054d08 f   libucrt:wcspbrk.obj
 0001:000544f0       __acrt_get_qualified_locale 00000001800554f0 f   libucrt:get_qualified_locale.obj
 0001:00054f24       __acrt_get_qualified_locale_downlevel 0000000180055f24 f   libucrt:getqloc_downlevel.obj
 0001:000551a4       __acrt_lowio_create_handle_array 00000001800561a4 f   libucrt:osfinfo.obj
 0001:0005524c       __acrt_lowio_destroy_handle_array 000000018005624c f   libucrt:osfinfo.obj
 0001:0005529c       __acrt_lowio_ensure_fh_exists 000000018005629c f   libucrt:osfinfo.obj
 0001:00055344       __acrt_lowio_lock_fh       0000000180056344 f   libucrt:osfinfo.obj
 0001:0005536c       __acrt_lowio_set_os_handle 000000018005636c f   libucrt:osfinfo.obj
 0001:0005542c       __acrt_lowio_unlock_fh     000000018005642c f   libucrt:osfinfo.obj
 0001:00055454       _alloc_osfhnd              0000000180056454 f   libucrt:osfinfo.obj
 0001:00055594       _free_osfhnd               0000000180056594 f   libucrt:osfinfo.obj
 0001:00055650       _get_osfhandle             0000000180056650 f   libucrt:osfinfo.obj
 0001:000556c8       __acrt_GetStringTypeW      00000001800566c8 f   libucrt:getstringtypew.obj
 0001:000556e0       _get_fpsr                  00000001800566e0 f   libucrt:fpsr.obj
 0001:000556f0       _set_fpsr                  00000001800566f0 f   libucrt:fpsr.obj
 0001:000556fa       _fclrf                     00000001800566fa f   libucrt:fpsr.obj
 0001:0005570e       _frnd                      000000018005670e f   libucrt:fpsr.obj
 0001:00055730       __acrt_fenv_get_common_round_control 0000000180056730 f   libucrt:_fenvutils.obj
 0001:0005573c       __acrt_fenv_get_control    000000018005673c f   libucrt:_fenvutils.obj
 0001:00055830       __acrt_fenv_get_status     0000000180056830 f   libucrt:_fenvutils.obj
 0001:00055884       __acrt_fenv_set_control    0000000180056884 f   libucrt:_fenvutils.obj
 0001:000559cc       __acrt_fenv_set_status     00000001800569cc f   libucrt:_fenvutils.obj
 0001:00055a50       _putwch_nolock             0000000180056a50 f   libucrt:putwch.obj
 0001:00055a8c       __acrt_DownlevelLCIDToLocaleName 0000000180056a8c f   libucrt:lcidtoname_downlevel.obj
 0001:00055b80       __acrt_DownlevelLocaleNameToLCID 0000000180056b80 f   libucrt:lcidtoname_downlevel.obj
 0001:00055c30       strncpy_s                  0000000180056c30 f   libucrt:strncpy_s.obj
 0001:00055d04       ?__wcsrtombs_utf8@__crt_mbstring@@YA_KPEADPEAPEB_W_KPEAU_Mbstatet@@@Z 0000000180056d04 f   libucrt:wcrtomb.obj
 0001:00055e20       __ascii_wcsnicmp           0000000180056e20 f   libucrt:wcsnicmp.obj
 0001:00055e6c       _wcsnicmp                  0000000180056e6c f   libucrt:wcsnicmp.obj
 0001:00055eb4       _wcsnicmp_l                0000000180056eb4 f   libucrt:wcsnicmp.obj
 0001:00056004       __ascii_strnicmp           0000000180057004 f   libucrt:strnicmp.obj
 0001:00056050       _strnicmp                  0000000180057050 f   libucrt:strnicmp.obj
 0001:000560a0       _strnicmp_l                00000001800570a0 f   libucrt:strnicmp.obj
 0001:00056778       _sopen_nolock              0000000180057778 f   libucrt:open.obj
 0001:00056890       _sopen_s                   0000000180057890 f   libucrt:open.obj
 0001:000568c4       _wsopen_nolock             00000001800578c4 f   libucrt:open.obj
 0001:00056dd0       _handle_error              0000000180057dd0 f   libucrt:libm_error.obj
 0001:00056ef8       _handle_errorf             0000000180057ef8 f   libucrt:libm_error.obj
 0001:0005702c       _handle_nan                000000018005802c f   libucrt:libm_error.obj
 0001:00057048       _handle_nanf               0000000180058048 f   libucrt:libm_error.obj
 0001:00057058       _towlower_l                0000000180058058 f   libucrt:towlower.obj
 0001:00057120       qsort                      0000000180058120 f   libucrt:qsort.obj
 0001:00057560       strpbrk                    0000000180058560 f   libucrt:strpbrk.obj
 0001:00057928       _mbsdec                    0000000180058928 f   libucrt:mbsdec.obj
 0001:00057930       _mbsdec_l                  0000000180058930 f   libucrt:mbsdec.obj
 0001:000579dc       _msize_base                00000001800589dc f   libucrt:msize.obj
 0001:00057a18       ?__mbrtoc32_utf8@__crt_mbstring@@YA_KPEA_UPEBD_KPEAU_Mbstatet@@@Z 0000000180058a18 f   libucrt:mbrtoc32.obj
 0001:00057bf0       _controlfp_s               0000000180058bf0 f   libucrt:contrlfp.obj
 0001:00057c54       fegetenv                   0000000180058c54 f   libucrt:fegetenv.obj
 0001:00057c74       fesetenv                   0000000180058c74 f   libucrt:fesetenv.obj
 0001:00057cc0       feholdexcept               0000000180058cc0 f   libucrt:feholdexcept.obj
 0001:00057d10       ceil                       0000000180058d10 f   libucrt:ceil.obj
 0001:00057de0       log10                      0000000180058de0 f   libucrt:log10.obj
 0001:000584cc       _itow_s                    00000001800594cc f   libucrt:xtoa.obj
 0001:000584ec       wcscmp                     00000001800594ec f   libucrt:wcscmp.obj
 0001:00058524       _query_app_type            0000000180059524 f   libucrt:report_runtime_error.obj
 0001:0005852c       __dcrt_lowio_ensure_console_output_initialized 000000018005952c f   libucrt:initcon.obj
 0001:00058580       __dcrt_terminate_console_output 0000000180059580 f   libucrt:initcon.obj
 0001:0005859c       __dcrt_write_console       000000018005959c f   libucrt:initcon.obj
 0001:0005865c       ?__c16rtomb_utf8@__crt_mbstring@@YA_KPEAD_SPEAU_Mbstatet@@@Z 000000018005965c f   libucrt:c16rtomb.obj
 0001:00058700       _get_fmode                 0000000180059700 f   libucrt:setmode.obj
 0001:00058730       _setmode_nolock            0000000180059730 f   libucrt:setmode.obj
 0001:00058810       _chsize_nolock             0000000180059810 f   libucrt:chsize.obj
 0001:0005897c       __acrt_LCMapStringW        000000018005997c f   libucrt:lcmapstringw.obj
 0001:00058a04       _clearfp                   0000000180059a04 f   libucrt:ieee.obj
 0001:00058a74       _control87                 0000000180059a74 f   libucrt:ieee.obj
 0001:00058d40       _log10_special             0000000180059d40 f   libucrt:log_special.obj
 0001:00058d60       _log_special               0000000180059d60 f   libucrt:log_special.obj
 0001:00058e18       __acrt_initialize_fmode    0000000180059e18 f   libucrt:txtmode.obj
 0001:00058e40       _FindPESection             0000000180059e40 f   LIBCMT:pesect.obj
 0001:00058e90       _IsNonwritableInCurrentImage 0000000180059e90 f   LIBCMT:pesect.obj
 0001:00058ee0       _ValidateImageBase         0000000180059ee0 f   LIBCMT:pesect.obj
 0001:00058f10       __GSHandlerCheck_SEH       0000000180059f10 f   LIBCMT:gshandlerseh.obj
 0001:00058f98       __GSHandlerCheck_EH        0000000180059f98 f   LIBCMT:gshandlereh.obj
 0001:00059018       _local_unwind              000000018005a018 f   libvcruntime:jmpuwind.obj
 0001:00059044       strrchr                    000000018005a044 f   libvcruntime:strrchr.obj
 0001:00059170       wcschr                     000000018005a170 f   libvcruntime:wcschr.obj
 0001:000591f0       exp                        000000018005a1f0 f   libucrt:exp.obj
 0001:000595e8       floor                      000000018005a5e8 f   libucrt:floor.obj
 0001:000596a0       log                        000000018005a6a0 f   libucrt:log.obj
 0001:00059be0       strcmp                     000000018005abe0 f   libucrt:strcmp.obj
 0001:00059c48       _exp_special               000000018005ac48 f   libucrt:exp_special.obj
 0001:00059cf0       _guard_dispatch_icall_nop  000000018005acf0 f   LIBCMT:guard_dispatch.obj
 0001:00059d10       _guard_xfg_dispatch_icall_nop 000000018005ad10 f   LIBCMT:guard_xfg_dispatch.obj
 0002:00000000       __imp_WritePrivateProfileStringW 000000018005e000     kernel32:KERNEL32.dll
 0002:00000008       __imp_GetPrivateProfileIntW 000000018005e008     kernel32:KERNEL32.dll
 0002:00000010       __imp_FindFirstFileW       000000018005e010     kernel32:KERNEL32.dll
 0002:00000018       __imp_FindNextFileW        000000018005e018     kernel32:KERNEL32.dll
 0002:00000020       __imp_GetModuleFileNameW   000000018005e020     kernel32:KERNEL32.dll
 0002:00000028       __imp_FindClose            000000018005e028     kernel32:KERNEL32.dll
 0002:00000030       __imp_GetModuleHandleExA   000000018005e030     kernel32:KERNEL32.dll
 0002:00000038       __imp_GetLastError         000000018005e038     kernel32:KERNEL32.dll
 0002:00000040       __imp_LoadLibraryW         000000018005e040     kernel32:KERNEL32.dll
 0002:00000048       __imp_GetProcAddress       000000018005e048     kernel32:KERNEL32.dll
 0002:00000050       __imp_FreeLibrary          000000018005e050     kernel32:KERNEL32.dll
 0002:00000058       __imp_OutputDebugStringW   000000018005e058     kernel32:KERNEL32.dll
 0002:00000060       __imp_MultiByteToWideChar  000000018005e060     kernel32:KERNEL32.dll
 0002:00000068       __imp_WideCharToMultiByte  000000018005e068     kernel32:KERNEL32.dll
 0002:00000070       __imp_SetEndOfFile         000000018005e070     kernel32:KERNEL32.dll
 0002:00000078       __imp_WriteConsoleW        000000018005e078     kernel32:KERNEL32.dll
 0002:00000080       __imp_HeapSize             000000018005e080     kernel32:KERNEL32.dll
 0002:00000088       __imp_CreateFileW          000000018005e088     kernel32:KERNEL32.dll
 0002:00000090       __imp_SetStdHandle         000000018005e090     kernel32:KERNEL32.dll
 0002:00000098       __imp_GetProcessHeap       000000018005e098     kernel32:KERNEL32.dll
 0002:000000a0       __imp_FreeEnvironmentStringsW 000000018005e0a0     kernel32:KERNEL32.dll
 0002:000000a8       __imp_InitializeSRWLock    000000018005e0a8     kernel32:KERNEL32.dll
 0002:000000b0       __imp_ReleaseSRWLockExclusive 000000018005e0b0     kernel32:KERNEL32.dll
 0002:000000b8       __imp_AcquireSRWLockExclusive 000000018005e0b8     kernel32:KERNEL32.dll
 0002:000000c0       __imp_EnterCriticalSection 000000018005e0c0     kernel32:KERNEL32.dll
 0002:000000c8       __imp_LeaveCriticalSection 000000018005e0c8     kernel32:KERNEL32.dll
 0002:000000d0       __imp_InitializeCriticalSectionEx 000000018005e0d0     kernel32:KERNEL32.dll
 0002:000000d8       __imp_TryEnterCriticalSection 000000018005e0d8     kernel32:KERNEL32.dll
 0002:000000e0       __imp_DeleteCriticalSection 000000018005e0e0     kernel32:KERNEL32.dll
 0002:000000e8       __imp_GetCurrentThreadId   000000018005e0e8     kernel32:KERNEL32.dll
 0002:000000f0       __imp_QueryPerformanceCounter 000000018005e0f0     kernel32:KERNEL32.dll
 0002:000000f8       __imp_QueryPerformanceFrequency 000000018005e0f8     kernel32:KERNEL32.dll
 0002:00000100       __imp_LCMapStringEx        000000018005e100     kernel32:KERNEL32.dll
 0002:00000108       __imp_EncodePointer        000000018005e108     kernel32:KERNEL32.dll
 0002:00000110       __imp_DecodePointer        000000018005e110     kernel32:KERNEL32.dll
 0002:00000118       __imp_CompareStringEx      000000018005e118     kernel32:KERNEL32.dll
 0002:00000120       __imp_GetCPInfo            000000018005e120     kernel32:KERNEL32.dll
 0002:00000128       __imp_GetSystemTimeAsFileTime 000000018005e128     kernel32:KERNEL32.dll
 0002:00000130       __imp_GetModuleHandleW     000000018005e130     kernel32:KERNEL32.dll
 0002:00000138       __imp_GetStringTypeW       000000018005e138     kernel32:KERNEL32.dll
 0002:00000140       __imp_RtlCaptureContext    000000018005e140     kernel32:KERNEL32.dll
 0002:00000148       __imp_RtlLookupFunctionEntry 000000018005e148     kernel32:KERNEL32.dll
 0002:00000150       __imp_RtlVirtualUnwind     000000018005e150     kernel32:KERNEL32.dll
 0002:00000158       __imp_UnhandledExceptionFilter 000000018005e158     kernel32:KERNEL32.dll
 0002:00000160       __imp_SetUnhandledExceptionFilter 000000018005e160     kernel32:KERNEL32.dll
 0002:00000168       __imp_GetCurrentProcess    000000018005e168     kernel32:KERNEL32.dll
 0002:00000170       __imp_TerminateProcess     000000018005e170     kernel32:KERNEL32.dll
 0002:00000178       __imp_IsProcessorFeaturePresent 000000018005e178     kernel32:KERNEL32.dll
 0002:00000180       __imp_IsDebuggerPresent    000000018005e180     kernel32:KERNEL32.dll
 0002:00000188       __imp_GetStartupInfoW      000000018005e188     kernel32:KERNEL32.dll
 0002:00000190       __imp_GetCurrentProcessId  000000018005e190     kernel32:KERNEL32.dll
 0002:00000198       __imp_InitializeSListHead  000000018005e198     kernel32:KERNEL32.dll
 0002:000001a0       __imp_RtlUnwindEx          000000018005e1a0     kernel32:KERNEL32.dll
 0002:000001a8       __imp_RtlPcToFileHeader    000000018005e1a8     kernel32:KERNEL32.dll
 0002:000001b0       __imp_RaiseException       000000018005e1b0     kernel32:KERNEL32.dll
 0002:000001b8       __imp_InterlockedFlushSList 000000018005e1b8     kernel32:KERNEL32.dll
 0002:000001c0       __imp_SetLastError         000000018005e1c0     kernel32:KERNEL32.dll
 0002:000001c8       __imp_InitializeCriticalSectionAndSpinCount 000000018005e1c8     kernel32:KERNEL32.dll
 0002:000001d0       __imp_TlsAlloc             000000018005e1d0     kernel32:KERNEL32.dll
 0002:000001d8       __imp_TlsGetValue          000000018005e1d8     kernel32:KERNEL32.dll
 0002:000001e0       __imp_TlsSetValue          000000018005e1e0     kernel32:KERNEL32.dll
 0002:000001e8       __imp_TlsFree              000000018005e1e8     kernel32:KERNEL32.dll
 0002:000001f0       __imp_LoadLibraryExW       000000018005e1f0     kernel32:KERNEL32.dll
 0002:000001f8       __imp_SetEnvironmentVariableW 000000018005e1f8     kernel32:KERNEL32.dll
 0002:00000200       __imp_SetCurrentDirectoryW 000000018005e200     kernel32:KERNEL32.dll
 0002:00000208       __imp_GetCurrentDirectoryW 000000018005e208     kernel32:KERNEL32.dll
 0002:00000210       __imp_ExitProcess          000000018005e210     kernel32:KERNEL32.dll
 0002:00000218       __imp_GetModuleHandleExW   000000018005e218     kernel32:KERNEL32.dll
 0002:00000220       __imp_HeapAlloc            000000018005e220     kernel32:KERNEL32.dll
 0002:00000228       __imp_HeapReAlloc          000000018005e228     kernel32:KERNEL32.dll
 0002:00000230       __imp_HeapFree             000000018005e230     kernel32:KERNEL32.dll
 0002:00000238       __imp_GetStdHandle         000000018005e238     kernel32:KERNEL32.dll
 0002:00000240       __imp_GetFileType          000000018005e240     kernel32:KERNEL32.dll
 0002:00000248       __imp_GetFileSizeEx        000000018005e248     kernel32:KERNEL32.dll
 0002:00000250       __imp_SetFilePointerEx     000000018005e250     kernel32:KERNEL32.dll
 0002:00000258       __imp_FlushFileBuffers     000000018005e258     kernel32:KERNEL32.dll
 0002:00000260       __imp_WriteFile            000000018005e260     kernel32:KERNEL32.dll
 0002:00000268       __imp_GetConsoleOutputCP   000000018005e268     kernel32:KERNEL32.dll
 0002:00000270       __imp_GetConsoleMode       000000018005e270     kernel32:KERNEL32.dll
 0002:00000278       __imp_CloseHandle          000000018005e278     kernel32:KERNEL32.dll
 0002:00000280       __imp_LCMapStringW         000000018005e280     kernel32:KERNEL32.dll
 0002:00000288       __imp_GetLocaleInfoW       000000018005e288     kernel32:KERNEL32.dll
 0002:00000290       __imp_IsValidLocale        000000018005e290     kernel32:KERNEL32.dll
 0002:00000298       __imp_GetUserDefaultLCID   000000018005e298     kernel32:KERNEL32.dll
 0002:000002a0       __imp_EnumSystemLocalesW   000000018005e2a0     kernel32:KERNEL32.dll
 0002:000002a8       __imp_ReadFile             000000018005e2a8     kernel32:KERNEL32.dll
 0002:000002b0       __imp_ReadConsoleW         000000018005e2b0     kernel32:KERNEL32.dll
 0002:000002b8       __imp_FindFirstFileExW     000000018005e2b8     kernel32:KERNEL32.dll
 0002:000002c0       __imp_IsValidCodePage      000000018005e2c0     kernel32:KERNEL32.dll
 0002:000002c8       __imp_GetACP               000000018005e2c8     kernel32:KERNEL32.dll
 0002:000002d0       __imp_GetOEMCP             000000018005e2d0     kernel32:KERNEL32.dll
 0002:000002d8       __imp_GetCommandLineA      000000018005e2d8     kernel32:KERNEL32.dll
 0002:000002e0       __imp_GetCommandLineW      000000018005e2e0     kernel32:KERNEL32.dll
 0002:000002e8       __imp_GetEnvironmentStringsW 000000018005e2e8     kernel32:KERNEL32.dll
 0002:000002f0       __imp_RtlUnwind            000000018005e2f0     kernel32:KERNEL32.dll
 0002:000002f8       \177KERNEL32_NULL_THUNK_DATA 000000018005e2f8     kernel32:KERNEL32.dll
 0002:00000300       __imp_SetDlgItemTextW      000000018005e300     user32:USER32.dll
 0002:00000308       __imp_GetDlgItem           000000018005e308     user32:USER32.dll
 0002:00000310       __imp_SetForegroundWindow  000000018005e310     user32:USER32.dll
 0002:00000318       __imp_ShowWindow           000000018005e318     user32:USER32.dll
 0002:00000320       __imp_CreateDialogParamW   000000018005e320     user32:USER32.dll
 0002:00000328       \177USER32_NULL_THUNK_DATA 000000018005e328     user32:USER32.dll
 0002:00000330       __guard_check_icall_fptr   000000018005e330     LIBCMT:guard_support.obj
 0002:00000338       __guard_xfg_check_icall_fptr 000000018005e338     LIBCMT:guard_support.obj
 0002:00000340       __guard_dispatch_icall_fptr 000000018005e340     LIBCMT:guard_support.obj
 0002:00000348       __guard_xfg_dispatch_icall_fptr 000000018005e348     LIBCMT:guard_support.obj
 0002:00000350       __guard_xfg_table_dispatch_icall_fptr 000000018005e350     LIBCMT:guard_support.obj
 0002:00000358       __xc_a                     000000018005e358     LIBCMT:initializers.obj
 0002:000003a0       __xc_z                     000000018005e3a0     LIBCMT:initializers.obj
 0002:000003a8       __xi_a                     000000018005e3a8     LIBCMT:initializers.obj
 0002:000003b8       __acrt_stdio_initializer   000000018005e3b8     libucrt:stdio_initializer.obj
 0002:000003c0       __acrt_tran_fma3_initializer 000000018005e3c0     libucrt:fma3_initializer.obj
 0002:000003c8       __acrt_timeset_initializer 000000018005e3c8     libucrt:timeset_initializer.obj
 0002:000003d0       __acrt_multibyte_initializer 000000018005e3d0     libucrt:multibyte_initializer.obj
 0002:000003d8       __acrt_fmode_initializer   000000018005e3d8     libucrt:fmode_initializer.obj
 0002:000003e0       __xi_z                     000000018005e3e0     LIBCMT:initializers.obj
 0002:000003e8       __xp_a                     000000018005e3e8     LIBCMT:initializers.obj
 0002:000003f0       __acrt_locale_terminator   000000018005e3f0     libucrt:locale_initializer.obj
 0002:000003f8       __dcrt_console_output_terminator 000000018005e3f8     libucrt:console_output_initializer.obj
 0002:00000400       __acrt_stdio_terminator    000000018005e400     libucrt:stdio_initializer.obj
 0002:00000408       __xp_z                     000000018005e408     LIBCMT:initializers.obj
 0002:00000410       __xt_a                     000000018005e410     LIBCMT:initializers.obj
 0002:00000418       __xt_z                     000000018005e418     LIBCMT:initializers.obj
 0002:00000428       ??_7exception@std@@6B@     000000018005e428     libcpmt:xthrow.obj
 0002:00000440       ??_7bad_alloc@std@@6B@     000000018005e440     libcpmt:xthrow.obj
 0002:00000450       ??_C@_0P@GHFPNOJB@bad?5allocation@ 000000018005e450     libcpmt:xthrow.obj
 0002:00000468       ??_7bad_function_call@std@@6B@ 000000018005e468     libcpmt:xthrow.obj
 0002:00000478       ??_C@_0BC@DPJNKNAF@bad?5function?5call@ 000000018005e478     libcpmt:xthrow.obj
 0002:00000498       ??_7logic_error@std@@6B@   000000018005e498     libcpmt:xthrow.obj
 0002:000004b0       ??_7length_error@std@@6B@  000000018005e4b0     libcpmt:xthrow.obj
 0002:000004c8       ??_7out_of_range@std@@6B@  000000018005e4c8     libcpmt:xthrow.obj
 0002:000004e0       ??_7runtime_error@std@@6B@ 000000018005e4e0     libcpmt:xthrow.obj
 0002:000004f8       ??_7regex_error@std@@6B@   000000018005e4f8     libcpmt:xthrow.obj
 0002:00000510       ??_C@_0FI@CMNGHIFF@regex_error?$CIerror_collate?$CJ?3?5The@ 000000018005e510     libcpmt:xthrow.obj
 0002:00000570       ??_C@_0FE@LJMHKIOC@regex_error?$CIerror_ctype?$CJ?3?5The?5e@ 000000018005e570     libcpmt:xthrow.obj
 0002:000005d0       ??_C@_0GI@HEGGMMDL@regex_error?$CIerror_escape?$CJ?3?5The?5@ 000000018005e5d0     libcpmt:xthrow.obj
 0002:00000640       ??_C@_0FA@HFMLPGNN@regex_error?$CIerror_backref?$CJ?3?5The@ 000000018005e640     libcpmt:xthrow.obj
 0002:00000690       ??_C@_0EH@LGEANNAL@regex_error?$CIerror_brack?$CJ?3?5The?5e@ 000000018005e690     libcpmt:xthrow.obj
 0002:000006e0       ??_C@_0EH@CAGOJGLE@regex_error?$CIerror_paren?$CJ?3?5The?5e@ 000000018005e6e0     libcpmt:xthrow.obj
 0002:00000730       ??_C@_0EH@DICJJKLO@regex_error?$CIerror_brace?$CJ?3?5The?5e@ 000000018005e730     libcpmt:xthrow.obj
 0002:00000780       ??_C@_0FM@BLDIHIBB@regex_error?$CIerror_badbrace?$CJ?3?5Th@ 000000018005e780     libcpmt:xthrow.obj
 0002:000007e0       ??_C@_0HA@ICNJLCMC@regex_error?$CIerror_range?$CJ?3?5The?5e@ 000000018005e7e0     libcpmt:xthrow.obj
 0002:00000850       ??_C@_0GP@PICOBCHA@regex_error?$CIerror_space?$CJ?3?5There@ 000000018005e850     libcpmt:xthrow.obj
 0002:000008c0       ??_C@_0FK@LCHHHEOA@regex_error?$CIerror_badrepeat?$CJ?3?5O@ 000000018005e8c0     libcpmt:xthrow.obj
 0002:00000920       ??_C@_0HL@NEKOFBJA@regex_error?$CIerror_complexity?$CJ?3?5@ 000000018005e920     libcpmt:xthrow.obj
 0002:000009a0       ??_C@_0JC@HCDLJLGO@regex_error?$CIerror_stack?$CJ?3?5There@ 000000018005e9a0     libcpmt:xthrow.obj
 0002:00000a38       ??_C@_0BJ@CHBLKGNM@regex_error?$CIerror_parse?$CJ@ 000000018005ea38     libcpmt:xthrow.obj
 0002:00000a58       ??_C@_0BK@DFJCACNI@regex_error?$CIerror_syntax?$CJ@ 000000018005ea58     libcpmt:xthrow.obj
 0002:00000a78       ??_C@_0M@KGKAAGCA@regex_error@ 000000018005ea78     libcpmt:xthrow.obj
 0002:00000a90       ??_7_Facet_base@std@@6B@   000000018005ea90     libcpmt:locale0.obj
 0002:00000ab0       ??_7_Locimp@locale@std@@6B@ 000000018005eab0     libcpmt:locale0.obj
 0002:00000ac8       ??_C@_01NBENCBCI@?$CK@     000000018005eac8     libcpmt:locale0.obj
 0002:00001230       ??_C@_0BN@LKKBCCDB@address?5family?5not?5supported@ 000000018005f230     libcpmt:syserror.obj
 0002:00001250       ??_C@_0P@LDMLAFHI@address?5in?5use@ 000000018005f250     libcpmt:syserror.obj
 0002:00001260       ??_C@_0BG@DHPCNBJB@address?5not?5available@ 000000018005f260     libcpmt:syserror.obj
 0002:00001278       ??_C@_0BC@DFIBIBIL@already?5connected@ 000000018005f278     libcpmt:syserror.obj
 0002:00001290       ??_C@_0BH@CAKOHOMI@argument?5list?5too?5long@ 000000018005f290     libcpmt:syserror.obj
 0002:000012a8       ??_C@_0BH@CGIMPKIM@argument?5out?5of?5domain@ 000000018005f2a8     libcpmt:syserror.obj
 0002:000012c0       ??_C@_0M@KGHGGJGL@bad?5address@ 000000018005f2c0     libcpmt:syserror.obj
 0002:000012d0       ??_C@_0BE@MPJPGCEO@bad?5file?5descriptor@ 000000018005f2d0     libcpmt:syserror.obj
 0002:000012e8       ??_C@_0M@PMMIEFCP@bad?5message@ 000000018005f2e8     libcpmt:syserror.obj
 0002:000012f8       ??_C@_0M@KPHOFDBE@broken?5pipe@ 000000018005f2f8     libcpmt:syserror.obj
 0002:00001308       ??_C@_0BD@MGNDDEGM@connection?5aborted@ 000000018005f308     libcpmt:syserror.obj
 0002:00001320       ??_C@_0BP@KAIHPOGN@connection?5already?5in?5progress@ 000000018005f320     libcpmt:syserror.obj
 0002:00001340       ??_C@_0BD@PJLIIJEL@connection?5refused@ 000000018005f340     libcpmt:syserror.obj
 0002:00001358       ??_C@_0BB@IECNJNOI@connection?5reset@ 000000018005f358     libcpmt:syserror.obj
 0002:00001370       ??_C@_0BC@PPHBOELF@cross?5device?5link@ 000000018005f370     libcpmt:syserror.obj
 0002:00001388       ??_C@_0BN@KDMIFEIP@destination?5address?5required@ 000000018005f388     libcpmt:syserror.obj
 0002:000013a8       ??_C@_0BI@NGCEHDD@device?5or?5resource?5busy@ 000000018005f3a8     libcpmt:syserror.obj
 0002:000013c0       ??_C@_0BE@JIDOCPHM@directory?5not?5empty@ 000000018005f3c0     libcpmt:syserror.obj
 0002:000013d8       ??_C@_0BI@BNCLIGPB@executable?5format?5error@ 000000018005f3d8     libcpmt:syserror.obj
 0002:000013f0       ??_C@_0M@MIDIAGJP@file?5exists@ 000000018005f3f0     libcpmt:syserror.obj
 0002:00001400       ??_C@_0P@DNAJLBJK@file?5too?5large@ 000000018005f400     libcpmt:syserror.obj
 0002:00001410       ??_C@_0BC@EJHOMAAK@filename?5too?5long@ 000000018005f410     libcpmt:syserror.obj
 0002:00001428       ??_C@_0BH@KEFGLDAF@function?5not?5supported@ 000000018005f428     libcpmt:syserror.obj
 0002:00001440       ??_C@_0BB@DHFDFGDM@host?5unreachable@ 000000018005f440     libcpmt:syserror.obj
 0002:00001458       ??_C@_0BD@JPHBMONG@identifier?5removed@ 000000018005f458     libcpmt:syserror.obj
 0002:00001470       ??_C@_0BG@CDNPAGJK@illegal?5byte?5sequence@ 000000018005f470     libcpmt:syserror.obj
 0002:00001488       ??_C@_0CD@BNPLBMNA@inappropriate?5io?5control?5operat@ 000000018005f488     libcpmt:syserror.obj
 0002:000014b0       ??_C@_0M@EGEKIIMP@interrupted@ 000000018005f4b0     libcpmt:syserror.obj
 0002:000014c0       ??_C@_0BB@FCMFBGOM@invalid?5argument@ 000000018005f4c0     libcpmt:syserror.obj
 0002:000014d8       ??_C@_0N@OHAFKDEK@invalid?5seek@ 000000018005f4d8     libcpmt:syserror.obj
 0002:000014e8       ??_C@_08GLNPIFBN@io?5error@ 000000018005f4e8     libcpmt:syserror.obj
 0002:000014f8       ??_C@_0P@FLLDBIDK@is?5a?5directory@ 000000018005f4f8     libcpmt:syserror.obj
 0002:00001508       ??_C@_0N@IFLPBIOP@message?5size@ 000000018005f508     libcpmt:syserror.obj
 0002:00001518       ??_C@_0N@KIIEAAIO@network?5down@ 000000018005f518     libcpmt:syserror.obj
 0002:00001528       ??_C@_0O@FNPDBHEE@network?5reset@ 000000018005f528     libcpmt:syserror.obj
 0002:00001538       ??_C@_0BE@IFNCKGE@network?5unreachable@ 000000018005f538     libcpmt:syserror.obj
 0002:00001550       ??_C@_0BA@PFFCAOFK@no?5buffer?5space@ 000000018005f550     libcpmt:syserror.obj
 0002:00001560       ??_C@_0BB@IEPBLJHK@no?5child?5process@ 000000018005f560     libcpmt:syserror.obj
 0002:00001578       ??_C@_07PLECNNKG@no?5link@ 000000018005f578     libcpmt:syserror.obj
 0002:00001580       ??_C@_0BC@NJECKMKE@no?5lock?5available@ 000000018005f580     libcpmt:syserror.obj
 0002:00001598       ??_C@_0BF@PBGGPKKE@no?5message?5available@ 000000018005f598     libcpmt:syserror.obj
 0002:000015b0       ??_C@_0L@EDOLMPAK@no?5message@ 000000018005f5b0     libcpmt:syserror.obj
 0002:000015c0       ??_C@_0BD@EAMBFIDF@no?5protocol?5option@ 000000018005f5c0     libcpmt:syserror.obj
 0002:000015d8       ??_C@_0BD@IJDJKDEA@no?5space?5on?5device@ 000000018005f5d8     libcpmt:syserror.obj
 0002:000015f0       ??_C@_0BE@MKFDAFMP@no?5stream?5resources@ 000000018005f5f0     libcpmt:syserror.obj
 0002:00001608       ??_C@_0BK@IMCPHCBI@no?5such?5device?5or?5address@ 000000018005f608     libcpmt:syserror.obj
 0002:00001628       ??_C@_0P@FDINDDOK@no?5such?5device@ 000000018005f628     libcpmt:syserror.obj
 0002:00001638       ??_C@_0BK@NDOCBPGE@no?5such?5file?5or?5directory@ 000000018005f638     libcpmt:syserror.obj
 0002:00001658       ??_C@_0BA@ENLPPKBN@no?5such?5process@ 000000018005f658     libcpmt:syserror.obj
 0002:00001668       ??_C@_0BA@DOCPFFJG@not?5a?5directory@ 000000018005f668     libcpmt:syserror.obj
 0002:00001678       ??_C@_0N@POEIPGGF@not?5a?5socket@ 000000018005f678     libcpmt:syserror.obj
 0002:00001688       ??_C@_0N@LGAPMMPI@not?5a?5stream@ 000000018005f688     libcpmt:syserror.obj
 0002:00001698       ??_C@_0O@GLMIBBEG@not?5connected@ 000000018005f698     libcpmt:syserror.obj
 0002:000016a8       ??_C@_0BC@ENOOLCNF@not?5enough?5memory@ 000000018005f6a8     libcpmt:syserror.obj
 0002:000016c0       ??_C@_0O@NHEDABJP@not?5supported@ 000000018005f6c0     libcpmt:syserror.obj
 0002:000016d0       ??_C@_0BD@MOLBPMEA@operation?5canceled@ 000000018005f6d0     libcpmt:syserror.obj
 0002:000016e8       ??_C@_0BG@KDKHOPCO@operation?5in?5progress@ 000000018005f6e8     libcpmt:syserror.obj
 0002:00001700       ??_C@_0BI@OHIEJAAB@operation?5not?5permitted@ 000000018005f700     libcpmt:syserror.obj
 0002:00001718       ??_C@_0BI@LNEGIFLN@operation?5not?5supported@ 000000018005f718     libcpmt:syserror.obj
 0002:00001730       ??_C@_0BG@OEMDKMEE@operation?5would?5block@ 000000018005f730     libcpmt:syserror.obj
 0002:00001748       ??_C@_0L@BLPOFLNJ@owner?5dead@ 000000018005f748     libcpmt:syserror.obj
 0002:00001758       ??_C@_0BC@CIJDGCDI@permission?5denied@ 000000018005f758     libcpmt:syserror.obj
 0002:00001770       ??_C@_0P@FNPOCJBE@protocol?5error@ 000000018005f770     libcpmt:syserror.obj
 0002:00001780       ??_C@_0BH@JPPPLHJB@protocol?5not?5supported@ 000000018005f780     libcpmt:syserror.obj
 0002:00001798       ??_C@_0BG@EICBIHDP@read?5only?5file?5system@ 000000018005f798     libcpmt:syserror.obj
 0002:000017b0       ??_C@_0BO@BJBOMOEJ@resource?5deadlock?5would?5occur@ 000000018005f7b0     libcpmt:syserror.obj
 0002:000017d0       ??_C@_0BP@LKNGHENJ@resource?5unavailable?5try?5again@ 000000018005f7d0     libcpmt:syserror.obj
 0002:000017f0       ??_C@_0BE@GOIPJJHG@result?5out?5of?5range@ 000000018005f7f0     libcpmt:syserror.obj
 0002:00001808       ??_C@_0BG@MPLKFPAE@state?5not?5recoverable@ 000000018005f808     libcpmt:syserror.obj
 0002:00001820       ??_C@_0P@DIIFGFCG@stream?5timeout@ 000000018005f820     libcpmt:syserror.obj
 0002:00001830       ??_C@_0P@IPFDMIFL@text?5file?5busy@ 000000018005f830     libcpmt:syserror.obj
 0002:00001840       ??_C@_09KJPPMAOI@timed?5out@ 000000018005f840     libcpmt:syserror.obj
 0002:00001850       ??_C@_0BO@HACHBEKI@too?5many?5files?5open?5in?5system@ 000000018005f850     libcpmt:syserror.obj
 0002:00001870       ??_C@_0BE@GHAFMPAH@too?5many?5files?5open@ 000000018005f870     libcpmt:syserror.obj
 0002:00001888       ??_C@_0P@HCOMKFCC@too?5many?5links@ 000000018005f888     libcpmt:syserror.obj
 0002:00001898       ??_C@_0BO@EFGOJEF@too?5many?5symbolic?5link?5levels@ 000000018005f898     libcpmt:syserror.obj
 0002:000018b8       ??_C@_0BA@KGKGOOJA@value?5too?5large@ 000000018005f8b8     libcpmt:syserror.obj
 0002:000018c8       ??_C@_0BE@MIEJDDNH@wrong?5protocol?5type@ 000000018005f8c8     libcpmt:syserror.obj
 0002:000018e0       ??_C@_0O@BFJCFAAK@unknown?5error@ 000000018005f8e0     libcpmt:syserror.obj
 0002:000018f0       ?_BADOFF@std@@3_JB         000000018005f8f0     libcpmt:ios.obj
 0002:00001958       ??_7bad_array_new_length@std@@6B@ 000000018005f958     libcpmt:thread0.obj
 0002:00001970       ??_7_System_error@std@@6B@ 000000018005f970     libcpmt:thread0.obj
 0002:00001988       ??_7system_error@std@@6B@  000000018005f988     libcpmt:thread0.obj
 0002:000019a0       ??_7_Generic_error_category@std@@6B@ 000000018005f9a0     libcpmt:thread0.obj
 0002:000019d0       ??_C@_07DCLBNMLN@generic@  000000018005f9d0     libcpmt:thread0.obj
 0002:00001a58       ??_C@_01KDCPPGHE@r@        000000018005fa58     libcpmt:fiopen.obj
 0002:00001a5c       ??_C@_01MCMALHOG@a@        000000018005fa5c     libcpmt:fiopen.obj
 0002:00001a60       ??_C@_02JDPG@rb@           000000018005fa60     libcpmt:fiopen.obj
 0002:00001a64       ??_C@_02GMLFBBN@wb@        000000018005fa64     libcpmt:fiopen.obj
 0002:00001a68       ??_C@_02BOGAIONP@ab@       000000018005fa68     libcpmt:fiopen.obj
 0002:00001a6c       ??_C@_02CBLLGHLK@r?$CL@    000000018005fa6c     libcpmt:fiopen.obj
 0002:00001a70       ??_C@_02CHHAKFFB@w?$CL@    000000018005fa70     libcpmt:fiopen.obj
 0002:00001a74       ??_C@_02DPNLHKJD@a?$CL@    000000018005fa74     libcpmt:fiopen.obj
 0002:00001a78       ??_C@_03HMFOOINA@r?$CLb@   000000018005fa78     libcpmt:fiopen.obj
 0002:00001a7c       ??_C@_03ELIABIOC@w?$CLb@   000000018005fa7c     libcpmt:fiopen.obj
 0002:00001a80       ??_C@_03DOPCBAKB@a?$CLb@   000000018005fa80     libcpmt:fiopen.obj
 0002:00001a90       ??_7stl_critical_section_vista@details@Concurrency@@6B@ 000000018005fa90     libcpmt:mutex.obj
 0002:00001ac0       ??_7stl_critical_section_win7@details@Concurrency@@6B@ 000000018005fac0     libcpmt:mutex.obj
 0002:00001af0       ??_7bad_cast@std@@6B@      000000018005faf0     libcpmt:locale.obj
 0002:00001b08       ??_7?$ctype@D@std@@6B@     000000018005fb08     libcpmt:locale.obj
 0002:00001b68       ??_7?$num_put@DV?$ostreambuf_iterator@DU?$char_traits@D@std@@@std@@@std@@6B@ 000000018005fb68     libcpmt:locale.obj
 0002:00001bc8       ??_7?$numpunct@D@std@@6B@  000000018005fbc8     libcpmt:locale.obj
 0002:00001c10       ??_7?$codecvt@DDU_Mbstatet@@@std@@6B@ 000000018005fc10     libcpmt:locale.obj
 0002:00001d60       ??_C@_1BK@MGMFAEKH@?$AAk?$AAe?$AAr?$AAn?$AAe?$AAl?$AA3?$AA2?$AA?4?$AAd?$AAl?$AAl@ 000000018005fd60     libcpmt:winapisupp.obj
 0002:00001d80       ??_C@_08KNHFBNJ@FlsAlloc@  000000018005fd80     libcpmt:winapisupp.obj
 0002:00001d90       ??_C@_07PEJMOBNF@FlsFree@  000000018005fd90     libcpmt:winapisupp.obj
 0002:00001d98       ??_C@_0M@GDNOONDI@FlsGetValue@ 000000018005fd98     libcpmt:winapisupp.obj
 0002:00001da8       ??_C@_0M@JCPCPOEF@FlsSetValue@ 000000018005fda8     libcpmt:winapisupp.obj
 0002:00001db8       ??_C@_0BM@HCFOFFN@InitializeCriticalSectionEx@ 000000018005fdb8     libcpmt:winapisupp.obj
 0002:00001dd8       ??_C@_0BE@GPLMMCMH@InitOnceExecuteOnce@ 000000018005fdd8     libcpmt:winapisupp.obj
 0002:00001df0       ??_C@_0P@DLHPPCNH@CreateEventExW@ 000000018005fdf0     libcpmt:winapisupp.obj
 0002:00001e00       ??_C@_0BB@MEFPJLHN@CreateSemaphoreW@ 000000018005fe00     libcpmt:winapisupp.obj
 0002:00001e18       ??_C@_0BD@KIEEOEEH@CreateSemaphoreExW@ 000000018005fe18     libcpmt:winapisupp.obj
 0002:00001e30       ??_C@_0BG@OGFAJCKC@CreateThreadpoolTimer@ 000000018005fe30     libcpmt:winapisupp.obj
 0002:00001e48       ??_C@_0BD@LPLEMMDI@SetThreadpoolTimer@ 000000018005fe48     libcpmt:winapisupp.obj
 0002:00001e60       ??_C@_0CA@FMNJENH@WaitForThreadpoolTimerCallbacks@ 000000018005fe60     libcpmt:winapisupp.obj
 0002:00001e80       ??_C@_0BF@DCFCCNOC@CloseThreadpoolTimer@ 000000018005fe80     libcpmt:winapisupp.obj
 0002:00001e98       ??_C@_0BF@FLABGKKM@CreateThreadpoolWait@ 000000018005fe98     libcpmt:winapisupp.obj
 0002:00001eb0       ??_C@_0BC@MGCOHNA@SetThreadpoolWait@ 000000018005feb0     libcpmt:winapisupp.obj
 0002:00001ec8       ??_C@_0BE@OCIOMIMP@CloseThreadpoolWait@ 000000018005fec8     libcpmt:winapisupp.obj
 0002:00001ee0       ??_C@_0BJ@LKGHFHBO@FlushProcessWriteBuffers@ 000000018005fee0     libcpmt:winapisupp.obj
 0002:00001f00       ??_C@_0BP@KALKKPMO@FreeLibraryWhenCallbackReturns@ 000000018005ff00     libcpmt:winapisupp.obj
 0002:00001f20       ??_C@_0BK@DFNBACLA@GetCurrentProcessorNumber@ 000000018005ff20     libcpmt:winapisupp.obj
 0002:00001f40       ??_C@_0BE@FKKLLFLM@CreateSymbolicLinkW@ 000000018005ff40     libcpmt:winapisupp.obj
 0002:00001f58       ??_C@_0BE@JOGNEJCI@GetCurrentPackageId@ 000000018005ff58     libcpmt:winapisupp.obj
 0002:00001f70       ??_C@_0P@CDHHOHKP@GetTickCount64@ 000000018005ff70     libcpmt:winapisupp.obj
 0002:00001f80       ??_C@_0BN@NEEHBBPO@GetFileInformationByHandleEx@ 000000018005ff80     libcpmt:winapisupp.obj
 0002:00001fa0       ??_C@_0BL@KBBHGKCM@SetFileInformationByHandle@ 000000018005ffa0     libcpmt:winapisupp.obj
 0002:00001fc0       ??_C@_0BP@FPNJPEJC@GetSystemTimePreciseAsFileTime@ 000000018005ffc0     libcpmt:winapisupp.obj
 0002:00001fe0       ??_C@_0BM@HLJJNPAH@InitializeConditionVariable@ 000000018005ffe0     libcpmt:winapisupp.obj
 0002:00002000       ??_C@_0BG@BFNILBLN@WakeConditionVariable@ 0000000180060000     libcpmt:winapisupp.obj
 0002:00002018       ??_C@_0BJ@PGPPEPCC@WakeAllConditionVariable@ 0000000180060018     libcpmt:winapisupp.obj
 0002:00002038       ??_C@_0BJ@JEBJOJFJ@SleepConditionVariableCS@ 0000000180060038     libcpmt:winapisupp.obj
 0002:00002058       ??_C@_0BC@MMLHEBPB@InitializeSRWLock@ 0000000180060058     libcpmt:winapisupp.obj
 0002:00002070       ??_C@_0BI@OMNLIJDB@AcquireSRWLockExclusive@ 0000000180060070     libcpmt:winapisupp.obj
 0002:00002088       ??_C@_0BL@OGHFEMNA@TryAcquireSRWLockExclusive@ 0000000180060088     libcpmt:winapisupp.obj
 0002:000020a8       ??_C@_0BI@HMIEPCNJ@ReleaseSRWLockExclusive@ 00000001800600a8     libcpmt:winapisupp.obj
 0002:000020c0       ??_C@_0BK@LGACAGIC@SleepConditionVariableSRW@ 00000001800600c0     libcpmt:winapisupp.obj
 0002:000020e0       ??_C@_0BF@GGPHFPJA@CreateThreadpoolWork@ 00000001800600e0     libcpmt:winapisupp.obj
 0002:000020f8       ??_C@_0BF@NHDAIMMO@SubmitThreadpoolWork@ 00000001800600f8     libcpmt:winapisupp.obj
 0002:00002110       ??_C@_0BE@NPHIPNPD@CloseThreadpoolWork@ 0000000180060110     libcpmt:winapisupp.obj
 0002:00002128       ??_C@_0BA@IHGNDAEB@CompareStringEx@ 0000000180060128     libcpmt:winapisupp.obj
 0002:00002138       ??_C@_0BA@ONOKGCMP@GetLocaleInfoEx@ 0000000180060138     libcpmt:winapisupp.obj
 0002:00002148       ??_C@_0O@KKBNKAPF@LCMapStringEx@ 0000000180060148     libcpmt:winapisupp.obj
 0002:00002158       ??_C@_11LOCGONAA@@         0000000180060158     libcpmt:wlocale.obj
 0002:0000215c       ??_C@_13IMODFHAA@?$AA?9@   000000018006015c     libcpmt:wlocale.obj
 0002:00002160       __xmm@80000000000000008000000000000000 0000000180060160     libcpmt:wlocale.obj
 0002:00002178       ??_7?$collate@D@std@@6B@   0000000180060178     libcpmt:xlocale.obj
 0002:00002250       ??_7type_info@@6B@         0000000180060250     LIBCMT:std_type_info_static.obj
 0002:00002260       __xmm@ffffffffffffffffffffffffffffffff 0000000180060260     LIBCMT:utility.obj
 0002:00002270       _pRawDllMain               0000000180060270     LIBCMT:dll_dllmain.obj
 0002:00002270       _pDefaultRawDllMain        0000000180060270     LIBCMT:dll_dllmain.obj
 0002:00002288       ?s_negLengthTab@FH4@@3QBCB 0000000180060288     libvcruntime:risctrnsctrl.obj
 0002:00002298       ?s_shiftTab@FH4@@3QBEB     0000000180060298     libvcruntime:risctrnsctrl.obj
 0002:000023e8       _pDestructExceptionObject  00000001800603e8     libvcruntime:ehhelpers.obj
 0002:000023f8       ??_7bad_exception@std@@6B@ 00000001800603f8     libvcruntime:frame.obj
 0002:00002408       ??_C@_0O@DPKOEFFH@bad?5exception@ 0000000180060408     libvcruntime:frame.obj
 0002:00002b20       ??_C@_08EHJDFFNH@__based?$CI@ 0000000180060b20     libvcruntime:undname.obj
 0002:00002b30       ??_C@_07KOLFKCDI@__cdecl@  0000000180060b30     libvcruntime:undname.obj
 0002:00002b38       ??_C@_08GHMPAG@__pascal@   0000000180060b38     libvcruntime:undname.obj
 0002:00002b48       ??_C@_09IFJBGAPI@__stdcall@ 0000000180060b48     libvcruntime:undname.obj
 0002:00002b58       ??_C@_0L@NPHFGOKO@__thiscall@ 0000000180060b58     libvcruntime:undname.obj
 0002:00002b68       ??_C@_0L@JMKHOMEK@__fastcall@ 0000000180060b68     libvcruntime:undname.obj
 0002:00002b78       ??_C@_0N@BCKKPABJ@__vectorcall@ 0000000180060b78     libvcruntime:undname.obj
 0002:00002b88       ??_C@_09HIJEGCPM@__clrcall@ 0000000180060b88     libvcruntime:undname.obj
 0002:00002b94       ??_C@_06GHPCKEAG@__eabi@   0000000180060b94     libvcruntime:undname.obj
 0002:00002ba0       ??_C@_09IOPIDJLG@__swift_1@ 0000000180060ba0     libvcruntime:undname.obj
 0002:00002bb0       ??_C@_09KFNFGKHF@__swift_2@ 0000000180060bb0     libvcruntime:undname.obj
 0002:00002bc0       ??_C@_07JOMMBBKO@__ptr64@  0000000180060bc0     libvcruntime:undname.obj
 0002:00002bc8       ??_C@_0L@PILCLIHE@__restrict@ 0000000180060bc8     libvcruntime:undname.obj
 0002:00002bd8       ??_C@_0M@GFIIJFMG@__unaligned@ 0000000180060bd8     libvcruntime:undname.obj
 0002:00002be8       ??_C@_09DHDLOLLB@restrict?$CI@ 0000000180060be8     libvcruntime:undname.obj
 0002:00002bf4       ??_C@_04NIHEBCM@?5new@     0000000180060bf4     libvcruntime:undname.obj
 0002:00002c00       ??_C@_07FPCDHGMM@?5delete@ 0000000180060c00     libvcruntime:undname.obj
 0002:00002c08       ??_C@_01NEMOKFLO@?$DN@     0000000180060c08     libvcruntime:undname.obj
 0002:00002c0c       ??_C@_02GPIOPFAK@?$DO?$DO@ 0000000180060c0c     libvcruntime:undname.obj
 0002:00002c10       ??_C@_02FODMEDOG@?$DM?$DM@ 0000000180060c10     libvcruntime:undname.obj
 0002:00002c14       ??_C@_01DCLJPIOD@?$CB@     0000000180060c14     libvcruntime:undname.obj
 0002:00002c18       ??_C@_02EGOFBIJA@?$DN?$DN@ 0000000180060c18     libvcruntime:undname.obj
 0002:00002c1c       ??_C@_02FDNJECIE@?$CB?$DN@ 0000000180060c1c     libvcruntime:undname.obj
 0002:00002c20       ??_C@_02GPECMEKF@?$FL?$FN@ 0000000180060c20     libvcruntime:undname.obj
 0002:00002c28       ??_C@_08LHJFAFGD@operator@ 0000000180060c28     libvcruntime:undname.obj
 0002:00002c34       ??_C@_02HBOOOICD@?9?$DO@   0000000180060c34     libvcruntime:undname.obj
 0002:00002c38       ??_C@_01HNPIGOCE@?$CG@     0000000180060c38     libvcruntime:undname.obj
 0002:00002c3c       ??_C@_03MNHNFDLC@?9?$DO?$CK@ 0000000180060c3c     libvcruntime:undname.obj
 0002:00002c40       ??_C@_01FGNFDNOH@?$CF@     0000000180060c40     libvcruntime:undname.obj
 0002:00002c44       ??_C@_01MNNFJEPP@?$DM@     0000000180060c44     libvcruntime:undname.obj
 0002:00002c48       ??_C@_02EHCHHCKH@?$DM?$DN@ 0000000180060c48     libvcruntime:undname.obj
 0002:00002c4c       ??_C@_02EEKDKGMJ@?$DO?$DN@ 0000000180060c4c     libvcruntime:undname.obj
 0002:00002c50       ??_C@_01IHBHIGKO@?0@       0000000180060c50     libvcruntime:undname.obj
 0002:00002c54       ??_C@_02HCKGKOFO@?$CI?$CJ@ 0000000180060c54     libvcruntime:undname.obj
 0002:00002c58       ??_C@_01PJKLJHI@?$HO@      0000000180060c58     libvcruntime:undname.obj
 0002:00002c5c       ??_C@_01JKBOJNNK@?$FO@     0000000180060c5c     libvcruntime:undname.obj
 0002:00002c60       ??_C@_01DNKMNLPK@?$HM@     0000000180060c60     libvcruntime:undname.obj
 0002:00002c64       ??_C@_02PPKAJPJL@?$CG?$CG@ 0000000180060c64     libvcruntime:undname.obj
 0002:00002c68       ??_C@_02NONPIBCD@?$HM?$HM@ 0000000180060c68     libvcruntime:undname.obj
 0002:00002c6c       ??_C@_02FPIMKNGF@?$CK?$DN@ 0000000180060c6c     libvcruntime:undname.obj
 0002:00002c70       ??_C@_02FOEOMHFC@?$CL?$DN@ 0000000180060c70     libvcruntime:undname.obj
 0002:00002c74       ??_C@_02FKMDLLOA@?9?$DN@   0000000180060c74     libvcruntime:undname.obj
 0002:00002c78       ??_C@_02FJEHGPIO@?1?$DN@   0000000180060c78     libvcruntime:undname.obj
 0002:00002c7c       ??_C@_02FENAOKFI@?$CF?$DN@ 0000000180060c7c     libvcruntime:undname.obj
 0002:00002c80       ??_C@_03IKFCCPFF@?$DO?$DO?$DN@ 0000000180060c80     libvcruntime:undname.obj
 0002:00002c84       ??_C@_03CDNPDDLA@?$DM?$DM?$DN@ 0000000180060c84     libvcruntime:undname.obj
 0002:00002c88       ??_C@_02FGJGFEAB@?$CG?$DN@ 0000000180060c88     libvcruntime:undname.obj
 0002:00002c8c       ??_C@_02DHLNPPGH@?$HM?$DN@ 0000000180060c8c     libvcruntime:undname.obj
 0002:00002c90       ??_C@_02MHEGNOJ@?$FO?$DN@  0000000180060c90     libvcruntime:undname.obj
 0002:00002c98       ??_C@_09IFPLHPGF@?$GAvftable?8@ 0000000180060c98     libvcruntime:undname.obj
 0002:00002ca8       ??_C@_09BLBHBJP@?$GAvbtable?8@ 0000000180060ca8     libvcruntime:undname.obj
 0002:00002cb8       ??_C@_07FEEIOKP@?$GAvcall?8@ 0000000180060cb8     libvcruntime:undname.obj
 0002:00002cc0       ??_C@_08LLFFHHDJ@?$GAtypeof?8@ 0000000180060cc0     libvcruntime:undname.obj
 0002:00002cd0       ??_C@_0BF@KDPPACIK@?$GAlocal?5static?5guard?8@ 0000000180060cd0     libvcruntime:undname.obj
 0002:00002ce8       ??_C@_08OBABFOLI@?$GAstring?8@ 0000000180060ce8     libvcruntime:undname.obj
 0002:00002cf8       ??_C@_0BD@JDLKDPAB@?$GAvbase?5destructor?8@ 0000000180060cf8     libvcruntime:undname.obj
 0002:00002d10       ??_C@_0BN@DEGPLNFK@?$GAvector?5deleting?5destructor?8@ 0000000180060d10     libvcruntime:undname.obj
 0002:00002d30       ??_C@_0BO@OBMKPJIG@?$GAdefault?5constructor?5closure?8@ 0000000180060d30     libvcruntime:undname.obj
 0002:00002d50       ??_C@_0BN@IMDCHIKM@?$GAscalar?5deleting?5destructor?8@ 0000000180060d50     libvcruntime:undname.obj
 0002:00002d70       ??_C@_0BO@PFGOCPJJ@?$GAvector?5constructor?5iterator?8@ 0000000180060d70     libvcruntime:undname.obj
 0002:00002d90       ??_C@_0BN@LFPFMEDL@?$GAvector?5destructor?5iterator?8@ 0000000180060d90     libvcruntime:undname.obj
 0002:00002db0       ??_C@_0CE@IKBNEHA@?$GAvector?5vbase?5constructor?5itera@ 0000000180060db0     libvcruntime:undname.obj
 0002:00002dd8       ??_C@_0BL@NILFHHPC@?$GAvirtual?5displacement?5map?8@ 0000000180060dd8     libvcruntime:undname.obj
 0002:00002df8       ??_C@_0CB@JONCMFFK@?$GAeh?5vector?5constructor?5iterator@ 0000000180060df8     libvcruntime:undname.obj
 0002:00002e20       ??_C@_0CA@GCEOPDGL@?$GAeh?5vector?5destructor?5iterator?8@ 0000000180060e20     libvcruntime:undname.obj
 0002:00002e40       ??_C@_0CH@OOJPLCPH@?$GAeh?5vector?5vbase?5constructor?5it@ 0000000180060e40     libvcruntime:undname.obj
 0002:00002e68       ??_C@_0BL@LLKPOHJI@?$GAcopy?5constructor?5closure?8@ 0000000180060e68     libvcruntime:undname.obj
 0002:00002e88       ??_C@_0BA@KBCDOMBN@?$GAudt?5returning?8@ 0000000180060e88     libvcruntime:undname.obj
 0002:00002e98       ??_C@_03KLGMFNMG@?$GAEH@   0000000180060e98     libvcruntime:undname.obj
 0002:00002e9c       ??_C@_05KHLCHHI@?$GARTTI@  0000000180060e9c     libvcruntime:undname.obj
 0002:00002ea8       ??_C@_0BA@KKLDJDLB@?$GAlocal?5vftable?8@ 0000000180060ea8     libvcruntime:undname.obj
 0002:00002eb8       ??_C@_0CE@IIHCMGGL@?$GAlocal?5vftable?5constructor?5clos@ 0000000180060eb8     libvcruntime:undname.obj
 0002:00002edc       ??_C@_06FHBGPFGH@?5new?$FL?$FN@ 0000000180060edc     libvcruntime:undname.obj
 0002:00002ee8       ??_C@_09LBNFPBCA@?5delete?$FL?$FN@ 0000000180060ee8     libvcruntime:undname.obj
 0002:00002ef8       ??_C@_0P@HJKNJFNN@?$GAomni?5callsig?8@ 0000000180060ef8     libvcruntime:undname.obj
 0002:00002f08       ??_C@_0BL@CNOONJFP@?$GAplacement?5delete?5closure?8@ 0000000180060f08     libvcruntime:undname.obj
 0002:00002f28       ??_C@_0BN@CKNJLHMB@?$GAplacement?5delete?$FL?$FN?5closure?8@ 0000000180060f28     libvcruntime:undname.obj
 0002:00002f48       ??_C@_0CG@CFDHKGGD@?$GAmanaged?5vector?5constructor?5ite@ 0000000180060f48     libvcruntime:undname.obj
 0002:00002f70       ??_C@_0CF@IMGKMJNO@?$GAmanaged?5vector?5destructor?5iter@ 0000000180060f70     libvcruntime:undname.obj
 0002:00002f98       ??_C@_0CG@HLDDJMAG@?$GAeh?5vector?5copy?5constructor?5ite@ 0000000180060f98     libvcruntime:undname.obj
 0002:00002fc0       ??_C@_0CM@FCBBDIGB@?$GAeh?5vector?5vbase?5copy?5construct@ 0000000180060fc0     libvcruntime:undname.obj
 0002:00002ff0       ??_C@_0BL@CLIPGLGB@?$GAdynamic?5initializer?5for?5?8@ 0000000180060ff0     libvcruntime:undname.obj
 0002:00003010       ??_C@_0CB@PDBIFEP@?$GAdynamic?5atexit?5destructor?5for?5@ 0000000180061010     libvcruntime:undname.obj
 0002:00003038       ??_C@_0CD@CGAJBKEJ@?$GAvector?5copy?5constructor?5iterat@ 0000000180061038     libvcruntime:undname.obj
 0002:00003060       ??_C@_0CJ@GJELGAMM@?$GAvector?5vbase?5copy?5constructor?5@ 0000000180061060     libvcruntime:undname.obj
 0002:00003090       ??_C@_0CL@FGIJHLCE@?$GAmanaged?5vector?5copy?5constructo@ 0000000180061090     libvcruntime:undname.obj
 0002:000030c0       ??_C@_0BM@PMGGMLDN@?$GAlocal?5static?5thread?5guard?8@ 00000001800610c0     libvcruntime:undname.obj
 0002:000030e0       ??_C@_0N@BDNMDMOL@operator?5?$CC?$CC?5@ 00000001800610e0     libvcruntime:undname.obj
 0002:000030f0       ??_C@_0BC@GGEBGALA@operator?5co_await@ 00000001800610f0     libvcruntime:undname.obj
 0002:00003108       ??_C@_0M@GAAIMMOH@operator?$DM?$DN?$DO@ 0000000180061108     libvcruntime:undname.obj
 0002:00003118       ??_C@_0BC@DAFEJGAK@?5Type?5Descriptor?8@ 0000000180061118     libvcruntime:undname.obj
 0002:00003130       ??_C@_0BM@LDKODKLH@?5Base?5Class?5Descriptor?5at?5?$CI@ 0000000180061130     libvcruntime:undname.obj
 0002:00003150       ??_C@_0BD@LGICGFMM@?5Base?5Class?5Array?8@ 0000000180061150     libvcruntime:undname.obj
 0002:00003168       ??_C@_0BN@MECKDCOJ@?5Class?5Hierarchy?5Descriptor?8@ 0000000180061168     libvcruntime:undname.obj
 0002:00003188       ??_C@_0BK@CFCOFLF@?5Complete?5Object?5Locator?8@ 0000000180061188     libvcruntime:undname.obj
 0002:000031a8       ??_C@_0BG@JNJLAMPM@?$GAanonymous?5namespace?8@ 00000001800611a8     libvcruntime:undname.obj
 0002:000031d8       ??_C@_1DM@KHCHBNEB@?$AAa?$AAp?$AAi?$AA?9?$AAm?$AAs?$AA?9?$AAw?$AAi?$AAn?$AA?9?$AAc?$AAo?$AAr?$AAe@ 00000001800611d8     libvcruntime:winapi_downlevel.obj
 0002:00003218       ??_C@_1DK@LPPGFMPP@?$AAa?$AAp?$AAi?$AA?9?$AAm?$AAs?$AA?9?$AAw?$AAi?$AAn?$AA?9?$AAc?$AAo?$AAr?$AAe@ 0000000180061218     libvcruntime:winapi_downlevel.obj
 0002:00003258       ??_C@_1BC@GDMECMAK@?$AAk?$AAe?$AAr?$AAn?$AAe?$AAl?$AA3?$AA2@ 0000000180061258     libvcruntime:winapi_downlevel.obj
 0002:00003270       ??_C@_1BA@PFFKHIOG@?$AAa?$AAp?$AAi?$AA?9?$AAm?$AAs?$AA?9@ 0000000180061270     libvcruntime:winapi_downlevel.obj
 0002:000032b0       ?format_validation_lookup_table_spectre@__crt_stdio_output@@3V?$spectre_mitigated_lookup_table@Ustate_transition_pair@__crt_stdio_output@@$0IA@@1@B 00000001800612b0     libucrt:output.obj
 0002:000036b0       ??_C@_1O@CEDCILHN@?$AA?$CI?$AAn?$AAu?$AAl?$AAl?$AA?$CJ@ 00000001800616b0     libucrt:output.obj
 0002:000036c0       ??_C@_06OJHGLDPL@?$CInull?$CJ@ 00000001800616c0     libucrt:output.obj
 0002:000036c8       __real@0000000000000000    00000001800616c8     libucrt:frexp.obj
 0002:000036d0       __real@8000000000000000    00000001800616d0     libucrt:frexp.obj
 0002:000036e0       ?large_power_data@?1??multiply_by_power_of_ten@__crt_strtox@@YA_NAEAUbig_integer@2@I@Z@4QBIB 00000001800616e0     libucrt:atof.obj
 0002:00003ff0       ?large_power_indices@?1??multiply_by_power_of_ten@__crt_strtox@@YA_NAEAUbig_integer@2@I@Z@4QBUunpack_index@?1??12@YA_N0I@Z@B 0000000180061ff0     libucrt:atof.obj
 0002:00004088       ?small_powers_of_ten@?1??multiply_by_power_of_ten@__crt_strtox@@YA_NAEAUbig_integer@2@I@Z@4QBIB 0000000180062088     libucrt:atof.obj
 0002:000040b0       ??_C@_1GE@DPGDJKLM@?$AAm?$AAi?$AAn?$AAk?$AAe?$AAr?$AAn?$AAe?$AAl?$AA?2?$AAc?$AAr?$AAt?$AAs?$AA?2@ 00000001800620b0     libucrt:atof.obj
 0002:00004120       ??_C@_1FM@FELNCOBF@?$AA_?$AA_?$AAc?$AAr?$AAt?$AA_?$AAs?$AAt?$AAr?$AAt?$AAo?$AAx?$AA?3?$AA?3?$AAf@ 0000000180062120     libucrt:atof.obj
 0002:00004180       ??_C@_1BG@GEMHBGAF@?$AA_?$AAi?$AAs?$AA_?$AAd?$AAo?$AAu?$AAb?$AAl?$AAe@ 0000000180062180     libucrt:atof.obj
 0002:000041a0       ??_C@_1FK@JOJELFFO@?$AA_?$AA_?$AAc?$AAr?$AAt?$AA_?$AAs?$AAt?$AAr?$AAt?$AAo?$AAx?$AA?3?$AA?3?$AAf@ 00000001800621a0     libucrt:atof.obj
 0002:00004200       ??_C@_1BI@BANMPGJI@?$AA?$CB?$AA_?$AAi?$AAs?$AA_?$AAd?$AAo?$AAu?$AAb?$AAl?$AAe@ 0000000180062200     libucrt:atof.obj
 0002:00004218       ?inf_uppercase@?1???$parse_floating_point_possible_infinity@DV?$c_string_character_source@D@__crt_strtox@@PEBD@__crt_strtox@@YA?AW4floating_point_parse_result@1@AEADAEAV?$c_string_character_source@D@1@PEBD@Z@4QBDB 0000000180062218     libucrt:atof.obj
 0002:0000421c       ?inf_lowercase@?1???$parse_floating_point_possible_infinity@DV?$c_string_character_source@D@__crt_strtox@@PEBD@__crt_strtox@@YA?AW4floating_point_parse_result@1@AEADAEAV?$c_string_character_source@D@1@PEBD@Z@4QBDB 000000018006221c     libucrt:atof.obj
 0002:00004220       ?inity_uppercase@?1???$parse_floating_point_possible_infinity@DV?$c_string_character_source@D@__crt_strtox@@PEBD@__crt_strtox@@YA?AW4floating_point_parse_result@1@AEADAEAV?$c_string_character_source@D@1@PEBD@Z@4QBDB 0000000180062220     libucrt:atof.obj
 0002:00004228       ?inity_lowercase@?1???$parse_floating_point_possible_infinity@DV?$c_string_character_source@D@__crt_strtox@@PEBD@__crt_strtox@@YA?AW4floating_point_parse_result@1@AEADAEAV?$c_string_character_source@D@1@PEBD@Z@4QBDB 0000000180062228     libucrt:atof.obj
 0002:00004230       ?uppercase@?1???$parse_floating_point_possible_nan@DV?$c_string_character_source@D@__crt_strtox@@PEBD@__crt_strtox@@YA?AW4floating_point_parse_result@1@AEADAEAV?$c_string_character_source@D@1@PEBD@Z@4QBDB 0000000180062230     libucrt:atof.obj
 0002:00004234       ?lowercase@?1???$parse_floating_point_possible_nan@DV?$c_string_character_source@D@__crt_strtox@@PEBD@__crt_strtox@@YA?AW4floating_point_parse_result@1@AEADAEAV?$c_string_character_source@D@1@PEBD@Z@4QBDB 0000000180062234     libucrt:atof.obj
 0002:00004238       ?uppercase@?1???$parse_floating_point_possible_nan_is_snan@DV?$c_string_character_source@D@__crt_strtox@@@__crt_strtox@@YA_NAEADAEAV?$c_string_character_source@D@1@@Z@4QBDB 0000000180062238     libucrt:atof.obj
 0002:00004240       ?lowercase@?1???$parse_floating_point_possible_nan_is_snan@DV?$c_string_character_source@D@__crt_strtox@@@__crt_strtox@@YA_NAEADAEAV?$c_string_character_source@D@1@@Z@4QBDB 0000000180062240     libucrt:atof.obj
 0002:00004248       ?uppercase@?1???$parse_floating_point_possible_nan_is_ind@DV?$c_string_character_source@D@__crt_strtox@@@__crt_strtox@@YA_NAEADAEAV?$c_string_character_source@D@1@@Z@4QBDB 0000000180062248     libucrt:atof.obj
 0002:0000424c       ?lowercase@?1???$parse_floating_point_possible_nan_is_ind@DV?$c_string_character_source@D@__crt_strtox@@@__crt_strtox@@YA_NAEADAEAV?$c_string_character_source@D@1@@Z@4QBDB 000000018006224c     libucrt:atof.obj
 0002:00004250       __newctype                 0000000180062250     libucrt:ctype.obj
 0002:00004550       __newclmap                 0000000180062550     libucrt:ctype.obj
 0002:000046d0       __newcumap                 00000001800626d0     libucrt:ctype.obj
 0002:00004850       _wctype                    0000000180062850     libucrt:ctype.obj
 0002:00006880       __acrt_exception_action_table 0000000180064880     libucrt:exception_filter.obj
 0002:00006940       __acrt_signal_action_table_count 0000000180064940     libucrt:exception_filter.obj
 0002:00006948       __acrt_signal_action_first_fpe_index 0000000180064948     libucrt:exception_filter.obj
 0002:00006950       __acrt_signal_action_fpe_count 0000000180064950     libucrt:exception_filter.obj
 0002:00006958       ??_C@_1BI@BGOHAHKC@?$AAm?$AAs?$AAc?$AAo?$AAr?$AAe?$AAe?$AA?4?$AAd?$AAl?$AAl@ 0000000180064958     libucrt:exit.obj
 0002:00006970       ??_C@_0P@MIGLKIOC@CorExitProcess@ 0000000180064970     libucrt:exit.obj
 0002:00006b00       ??_C@_03OEIAHPBN@INF@      0000000180064b00     libucrt:cvt.obj
 0002:00006b04       ??_C@_03OJHLLCGB@inf@      0000000180064b04     libucrt:cvt.obj
 0002:00006b08       ??_C@_03LKNCIKJB@NAN@      0000000180064b08     libucrt:cvt.obj
 0002:00006b0c       ??_C@_03LHCJEHON@nan@      0000000180064b0c     libucrt:cvt.obj
 0002:00006b10       ??_C@_09OFJJIMPC@NAN?$CISNAN?$CJ@ 0000000180064b10     libucrt:cvt.obj
 0002:00006b20       ??_C@_09IPFBKMDL@nan?$CIsnan?$CJ@ 0000000180064b20     libucrt:cvt.obj
 0002:00006b30       ??_C@_08IKHNHAJ@NAN?$CIIND?$CJ@ 0000000180064b30     libucrt:cvt.obj
 0002:00006b40       ??_C@_08OFCDMILK@nan?$CIind?$CJ@ 0000000180064b40     libucrt:cvt.obj
 0002:00006b4c       ??_C@_05KLBDPFGC@e?$CL000@ 0000000180064b4c     libucrt:cvt.obj
 0002:00006be0       __lc_category              0000000180064be0     libucrt:wsetlocale.obj
 0002:00006c70       ??_C@_1O@GIFLHMA@?$AAL?$AAC?$AA_?$AAA?$AAL?$AAL@ 0000000180064c70     libucrt:wsetlocale.obj
 0002:00006c80       ??_C@_1BG@PPOMIBNJ@?$AAL?$AAC?$AA_?$AAC?$AAO?$AAL?$AAL?$AAA?$AAT?$AAE@ 0000000180064c80     libucrt:wsetlocale.obj
 0002:00006c98       ??_C@_1BC@FFJGAPJM@?$AAL?$AAC?$AA_?$AAC?$AAT?$AAY?$AAP?$AAE@ 0000000180064c98     libucrt:wsetlocale.obj
 0002:00006cb0       ??_C@_1BI@PCKFNJFB@?$AAL?$AAC?$AA_?$AAM?$AAO?$AAN?$AAE?$AAT?$AAA?$AAR?$AAY@ 0000000180064cb0     libucrt:wsetlocale.obj
 0002:00006cc8       ??_C@_1BG@ENIEDKID@?$AAL?$AAC?$AA_?$AAN?$AAU?$AAM?$AAE?$AAR?$AAI?$AAC@ 0000000180064cc8     libucrt:wsetlocale.obj
 0002:00006ce0       ??_C@_1BA@HAAOMIIG@?$AAL?$AAC?$AA_?$AAT?$AAI?$AAM?$AAE@ 0000000180064ce0     libucrt:wsetlocale.obj
 0002:00006cf0       ??_C@_15NBPDDFIP@?$AA?$DN?$AA?$DL@ 0000000180064cf0     libucrt:wsetlocale.obj
 0002:00006cf8       ??_C@_13PJJBFPED@?$AA?$DL@ 0000000180064cf8     libucrt:wsetlocale.obj
 0002:00006cfc       ??_C@_13NMPKAAJP@?$AA?$DN@ 0000000180064cfc     libucrt:wsetlocale.obj
 0002:00006d00       ??_C@_17EFJLDFDO@?$AA?9?$AA_?$AA?4@ 0000000180064d00     libucrt:wsetlocale.obj
 0002:00006d08       ??_C@_13FHBKNHDA@?$AAC@    0000000180064d08     libucrt:wsetlocale.obj
 0002:00006d10       ??_C@_17MBJJLFDM@?$AA_?$AA?4?$AA?0@ 0000000180064d10     libucrt:wsetlocale.obj
 0002:00006d18       ??_C@_13ENNFDPBH@?$AA_@    0000000180064d18     libucrt:wsetlocale.obj
 0002:00006d1c       ??_C@_13JOFGPIOO@?$AA?4@   0000000180064d1c     libucrt:wsetlocale.obj
 0002:00006d20       __lc_time_c                0000000180064d20     libucrt:nlsdata.obj
 0002:00006fe0       ??_C@_03KOEHGMDN@Sun@      0000000180064fe0     libucrt:nlsdata.obj
 0002:00006fe4       ??_C@_03PDAGKDH@Mon@       0000000180064fe4     libucrt:nlsdata.obj
 0002:00006fe8       ??_C@_03NAGEINEP@Tue@      0000000180064fe8     libucrt:nlsdata.obj
 0002:00006fec       ??_C@_03MHOMLAJA@Wed@      0000000180064fec     libucrt:nlsdata.obj
 0002:00006ff0       ??_C@_03IOFIKPDN@Thu@      0000000180064ff0     libucrt:nlsdata.obj
 0002:00006ff4       ??_C@_03IDIOELNC@Fri@      0000000180064ff4     libucrt:nlsdata.obj
 0002:00006ff8       ??_C@_03FEFJNEK@Sat@       0000000180064ff8     libucrt:nlsdata.obj
 0002:00006ffc       ??_C@_06OOPIFAJ@Sunday@    0000000180064ffc     libucrt:nlsdata.obj
 0002:00007004       ??_C@_06JLEDEDGH@Monday@   0000000180065004     libucrt:nlsdata.obj
 0002:00007010       ??_C@_07BAAGCFCM@Tuesday@  0000000180065010     libucrt:nlsdata.obj
 0002:00007018       ??_C@_09DLIGFAKA@Wednesday@ 0000000180065018     libucrt:nlsdata.obj
 0002:00007028       ??_C@_08HACCIKIA@Thursday@ 0000000180065028     libucrt:nlsdata.obj
 0002:00007034       ??_C@_06JECMNKMI@Friday@   0000000180065034     libucrt:nlsdata.obj
 0002:00007040       ??_C@_08INBOOONO@Saturday@ 0000000180065040     libucrt:nlsdata.obj
 0002:0000704c       ??_C@_03JIHJHPIE@Jan@      000000018006504c     libucrt:nlsdata.obj
 0002:00007050       ??_C@_03HJBDCHOM@Feb@      0000000180065050     libucrt:nlsdata.obj
 0002:00007054       ??_C@_03ODNJBKGA@Mar@      0000000180065054     libucrt:nlsdata.obj
 0002:00007058       ??_C@_03LEOLGMJP@Apr@      0000000180065058     libucrt:nlsdata.obj
 0002:0000705c       ??_C@_03CNMDKL@May@        000000018006505c     libucrt:nlsdata.obj
 0002:00007060       ??_C@_03IDFGHECI@Jun@      0000000180065060     libucrt:nlsdata.obj
 0002:00007064       ??_C@_03LBGABGKK@Jul@      0000000180065064     libucrt:nlsdata.obj
 0002:00007068       ??_C@_03IFJFEIGA@Aug@      0000000180065068     libucrt:nlsdata.obj
 0002:0000706c       ??_C@_03GGCAPAJC@Sep@      000000018006506c     libucrt:nlsdata.obj
 0002:00007070       ??_C@_03BMAOKBAD@Oct@      0000000180065070     libucrt:nlsdata.obj
 0002:00007074       ??_C@_03JPJOFNIA@Nov@      0000000180065074     libucrt:nlsdata.obj
 0002:00007078       ??_C@_03MKABNOCG@Dec@      0000000180065078     libucrt:nlsdata.obj
 0002:00007080       ??_C@_07CGJPFGJA@January@  0000000180065080     libucrt:nlsdata.obj
 0002:00007088       ??_C@_08GNJGEPFN@February@ 0000000180065088     libucrt:nlsdata.obj
 0002:00007094       ??_C@_05HPCKOFNC@March@    0000000180065094     libucrt:nlsdata.obj
 0002:0000709c       ??_C@_05DMJDNLEJ@April@    000000018006509c     libucrt:nlsdata.obj
 0002:000070a4       ??_C@_04CNLMGBGM@June@     00000001800650a4     libucrt:nlsdata.obj
 0002:000070ac       ??_C@_04MIEPOIFP@July@     00000001800650ac     libucrt:nlsdata.obj
 0002:000070b4       ??_C@_06LBBHFDDG@August@   00000001800650b4     libucrt:nlsdata.obj
 0002:000070c0       ??_C@_09BHHEALKD@September@ 00000001800650c0     libucrt:nlsdata.obj
 0002:000070d0       ??_C@_07JJNFCEND@October@  00000001800650d0     libucrt:nlsdata.obj
 0002:000070d8       ??_C@_08HCHEGEOA@November@ 00000001800650d8     libucrt:nlsdata.obj
 0002:000070e8       ??_C@_08EDHMEBNP@December@ 00000001800650e8     libucrt:nlsdata.obj
 0002:000070f4       ??_C@_02DEDBPAFC@AM@       00000001800650f4     libucrt:nlsdata.obj
 0002:000070f8       ??_C@_02CJNFDJBF@PM@       00000001800650f8     libucrt:nlsdata.obj
 0002:00007100       ??_C@_08BPBNCDIB@MM?1dd?1yy@ 0000000180065100     libucrt:nlsdata.obj
 0002:00007110       ??_C@_0BE@CKGJFCPC@dddd?0?5MMMM?5dd?0?5yyyy@ 0000000180065110     libucrt:nlsdata.obj
 0002:00007128       ??_C@_08JCCMCCIL@HH?3mm?3ss@ 0000000180065128     libucrt:nlsdata.obj
 0002:00007138       ??_C@_17MBGCMIPB@?$AAS?$AAu?$AAn@ 0000000180065138     libucrt:nlsdata.obj
 0002:00007140       ??_C@_17KBOMKBF@?$AAM?$AAo?$AAn@ 0000000180065140     libucrt:nlsdata.obj
 0002:00007148       ??_C@_17BMKGEGOJ@?$AAT?$AAu?$AAe@ 0000000180065148     libucrt:nlsdata.obj
 0002:00007150       ??_C@_17CJEDCEPE@?$AAW?$AAe?$AAd@ 0000000180065150     libucrt:nlsdata.obj
 0002:00007158       ??_C@_17PDPHAADD@?$AAT?$AAh?$AAu@ 0000000180065158     libucrt:nlsdata.obj
 0002:00007160       ??_C@_17HFOLPPLP@?$AAF?$AAr?$AAi@ 0000000180065160     libucrt:nlsdata.obj
 0002:00007168       ??_C@_17GGIBDPIH@?$AAS?$AAa?$AAt@ 0000000180065168     libucrt:nlsdata.obj
 0002:00007170       ??_C@_1O@IHNHDHPB@?$AAS?$AAu?$AAn?$AAd?$AAa?$AAy@ 0000000180065170     libucrt:nlsdata.obj
 0002:00007180       ??_C@_1O@MMNBFLIA@?$AAM?$AAo?$AAn?$AAd?$AAa?$AAy@ 0000000180065180     libucrt:nlsdata.obj
 0002:00007190       ??_C@_1BA@ENFBFFEK@?$AAT?$AAu?$AAe?$AAs?$AAd?$AAa?$AAy@ 0000000180065190     libucrt:nlsdata.obj
 0002:000071a0       ??_C@_1BE@EBOGMDOH@?$AAW?$AAe?$AAd?$AAn?$AAe?$AAs?$AAd?$AAa?$AAy@ 00000001800651a0     libucrt:nlsdata.obj
 0002:000071b8       ??_C@_1BC@HHMNLIHE@?$AAT?$AAh?$AAu?$AAr?$AAs?$AAd?$AAa?$AAy@ 00000001800651b8     libucrt:nlsdata.obj
 0002:000071d0       ??_C@_1O@PDICJHAG@?$AAF?$AAr?$AAi?$AAd?$AAa?$AAy@ 00000001800651d0     libucrt:nlsdata.obj
 0002:000071e0       ??_C@_1BC@ENMNNPAJ@?$AAS?$AAa?$AAt?$AAu?$AAr?$AAd?$AAa?$AAy@ 00000001800651e0     libucrt:nlsdata.obj
 0002:000071f8       ??_C@_17DKNBKCHM@?$AAJ?$AAa?$AAn@ 00000001800651f8     libucrt:nlsdata.obj
 0002:00007200       ??_C@_17LMDJEKJN@?$AAF?$AAe?$AAb@ 0000000180065200     libucrt:nlsdata.obj
 0002:00007208       ??_C@_17CKNLEDEC@?$AAM?$AAa?$AAr@ 0000000180065208     libucrt:nlsdata.obj
 0002:00007210       ??_C@_17LFPOIHDD@?$AAA?$AAp?$AAr@ 0000000180065210     libucrt:nlsdata.obj
 0002:00007218       ??_C@_17PNNKMEED@?$AAM?$AAa?$AAy@ 0000000180065218     libucrt:nlsdata.obj
 0002:00007220       ??_C@_17KCJGOCPB@?$AAJ?$AAu?$AAn@ 0000000180065220     libucrt:nlsdata.obj
 0002:00007228       ??_C@_17IJPCKHK@?$AAJ?$AAu?$AAl@ 0000000180065228     libucrt:nlsdata.obj
 0002:00007230       ??_C@_17ICPELBCN@?$AAA?$AAu?$AAg@ 0000000180065230     libucrt:nlsdata.obj
 0002:00007238       ??_C@_17HCHCOKMG@?$AAS?$AAe?$AAp@ 0000000180065238     libucrt:nlsdata.obj
 0002:00007240       ??_C@_17FNLKOI@?$AAO?$AAc?$AAt@ 0000000180065240     libucrt:nlsdata.obj
 0002:00007248       ??_C@_17BBDMLCIG@?$AAN?$AAo?$AAv@ 0000000180065248     libucrt:nlsdata.obj
 0002:00007250       ??_C@_17EGKACKIF@?$AAD?$AAe?$AAc@ 0000000180065250     libucrt:nlsdata.obj
 0002:00007258       ??_C@_1BA@EFMEIEBA@?$AAJ?$AAa?$AAn?$AAu?$AAa?$AAr?$AAy@ 0000000180065258     libucrt:nlsdata.obj
 0002:00007268       ??_C@_1BC@JGDDFFAM@?$AAF?$AAe?$AAb?$AAr?$AAu?$AAa?$AAr?$AAy@ 0000000180065268     libucrt:nlsdata.obj
 0002:00007280       ??_C@_1M@IKEENEDF@?$AAM?$AAa?$AAr?$AAc?$AAh@ 0000000180065280     libucrt:nlsdata.obj
 0002:00007290       ??_C@_1M@GJNLMHFD@?$AAA?$AAp?$AAr?$AAi?$AAl@ 0000000180065290     libucrt:nlsdata.obj
 0002:000072a0       ??_C@_19EPFLPGAP@?$AAJ?$AAu?$AAn?$AAe@ 00000001800652a0     libucrt:nlsdata.obj
 0002:000072b0       ??_C@_19BIFMLPCD@?$AAJ?$AAu?$AAl?$AAy@ 00000001800652b0     libucrt:nlsdata.obj
 0002:000072c0       ??_C@_1O@PAHLKOAC@?$AAA?$AAu?$AAg?$AAu?$AAs?$AAt@ 00000001800652c0     libucrt:nlsdata.obj
 0002:000072d0       ??_C@_1BE@DKAAMBJL@?$AAS?$AAe?$AAp?$AAt?$AAe?$AAm?$AAb?$AAe?$AAr@ 00000001800652d0     libucrt:nlsdata.obj
 0002:000072e8       ??_C@_1BA@EPANDLNG@?$AAO?$AAc?$AAt?$AAo?$AAb?$AAe?$AAr@ 00000001800652e8     libucrt:nlsdata.obj
 0002:000072f8       ??_C@_1BC@BGLIFPF@?$AAN?$AAo?$AAv?$AAe?$AAm?$AAb?$AAe?$AAr@ 00000001800652f8     libucrt:nlsdata.obj
 0002:00007310       ??_C@_1BC@FEMKIFH@?$AAD?$AAe?$AAc?$AAe?$AAm?$AAb?$AAe?$AAr@ 0000000180065310     libucrt:nlsdata.obj
 0002:00007324       ??_C@_15ODEHAHHF@?$AAA?$AAM@ 0000000180065324     libucrt:nlsdata.obj
 0002:0000732c       ??_C@_15CLMNNGEL@?$AAP?$AAM@ 000000018006532c     libucrt:nlsdata.obj
 0002:00007338       ??_C@_1BC@IEBCMHCM@?$AAM?$AAM?$AA?1?$AAd?$AAd?$AA?1?$AAy?$AAy@ 0000000180065338     libucrt:nlsdata.obj
 0002:00007350       ??_C@_1CI@KNAKOEBC@?$AAd?$AAd?$AAd?$AAd?$AA?0?$AA?5?$AAM?$AAM?$AAM?$AAM?$AA?5?$AAd?$AAd?$AA?0?$AA?5@ 0000000180065350     libucrt:nlsdata.obj
 0002:00007378       ??_C@_1BC@GDGBMEMK@?$AAH?$AAH?$AA?3?$AAm?$AAm?$AA?3?$AAs?$AAs@ 0000000180065378     libucrt:nlsdata.obj
 0002:00007390       ??_C@_1M@BMHNFIME@?$AAe?$AAn?$AA?9?$AAU?$AAS@ 0000000180065390     libucrt:nlsdata.obj
 0002:00007570       ??_C@_03KHJOGHMM@exp@      0000000180065570     libucrt:fpexcept.obj
 0002:00007574       ??_C@_03JGHBODFD@pow@      0000000180065574     libucrt:fpexcept.obj
 0002:00007578       ??_C@_03MGHMBJCF@log@      0000000180065578     libucrt:fpexcept.obj
 0002:0000757c       ??_C@_05HGHHAHAP@log10@    000000018006557c     libucrt:fpexcept.obj
 0002:00007584       ??_C@_04COOMCNPB@sinh@     0000000180065584     libucrt:fpexcept.obj
 0002:0000758c       ??_C@_04HPJJNFIM@cosh@     000000018006558c     libucrt:fpexcept.obj
 0002:00007594       ??_C@_04FJHINJAO@tanh@     0000000180065594     libucrt:fpexcept.obj
 0002:0000759c       ??_C@_04FIHNOPOL@asin@     000000018006559c     libucrt:fpexcept.obj
 0002:000075a4       ??_C@_04PDIFKINK@acos@     00000001800655a4     libucrt:fpexcept.obj
 0002:000075ac       ??_C@_04MLLJIGOK@atan@     00000001800655ac     libucrt:fpexcept.obj
 0002:000075b4       ??_C@_05KNGEOGJB@atan2@    00000001800655b4     libucrt:fpexcept.obj
 0002:000075bc       ??_C@_04EIAKFFMI@sqrt@     00000001800655bc     libucrt:fpexcept.obj
 0002:000075c4       ??_C@_03BLEJJJBH@sin@      00000001800655c4     libucrt:fpexcept.obj
 0002:000075c8       ??_C@_03LALBNOCG@cos@      00000001800655c8     libucrt:fpexcept.obj
 0002:000075cc       ??_C@_03IIINPABG@tan@      00000001800655cc     libucrt:fpexcept.obj
 0002:000075d0       ??_C@_04GFPJNGEK@ceil@     00000001800655d0     libucrt:fpexcept.obj
 0002:000075d8       ??_C@_05PBJFFIGL@floor@    00000001800655d8     libucrt:fpexcept.obj
 0002:000075e0       ??_C@_04ODHECPBC@fabs@     00000001800655e0     libucrt:fpexcept.obj
 0002:000075e8       ??_C@_04EHEDPDJG@modf@     00000001800655e8     libucrt:fpexcept.obj
 0002:000075f0       ??_C@_05CEJMAHNP@ldexp@    00000001800655f0     libucrt:fpexcept.obj
 0002:000075f8       ??_C@_05KBKMEMPO@_cabs@    00000001800655f8     libucrt:fpexcept.obj
 0002:00007600       ??_C@_06MEIMCGCF@_hypot@   0000000180065600     libucrt:fpexcept.obj
 0002:00007608       ??_C@_04KEPJIHGP@fmod@     0000000180065608     libucrt:fpexcept.obj
 0002:00007610       ??_C@_05GKKHEGJL@frexp@    0000000180065610     libucrt:fpexcept.obj
 0002:00007618       ??_C@_03MJLDFKDL@_y0@      0000000180065618     libucrt:fpexcept.obj
 0002:0000761c       ??_C@_03NAKIGLHK@_y1@      000000018006561c     libucrt:fpexcept.obj
 0002:00007620       ??_C@_03ONILCKOB@_yn@      0000000180065620     libucrt:fpexcept.obj
 0002:00007624       ??_C@_05JGDBENOH@_logb@    0000000180065624     libucrt:fpexcept.obj
 0002:00007630       ??_C@_0L@KDOEJCKC@_nextafter@ 0000000180065630     libucrt:fpexcept.obj
 0002:00007640       _d_inf                     0000000180065640     libucrt:util.obj
 0002:00007648       _d_max                     0000000180065648     libucrt:util.obj
 0002:000076f0       ??_C@_1EA@JGEFHKEI@?$AAa?$AAp?$AAi?$AA?9?$AAm?$AAs?$AA?9?$AAw?$AAi?$AAn?$AA?9?$AAc?$AAo?$AAr?$AAe@ 00000001800656f0     libucrt:winapi_thunks.obj
 0002:00007730       ??_C@_1DI@IJCEHOCB@?$AAa?$AAp?$AAi?$AA?9?$AAm?$AAs?$AA?9?$AAw?$AAi?$AAn?$AA?9?$AAc?$AAo?$AAr?$AAe@ 0000000180065730     libucrt:winapi_thunks.obj
 0002:00007770       ??_C@_1EI@MPIAOHOC@?$AAa?$AAp?$AAi?$AA?9?$AAm?$AAs?$AA?9?$AAw?$AAi?$AAn?$AA?9?$AAc?$AAo?$AAr?$AAe@ 0000000180065770     libucrt:winapi_thunks.obj
 0002:000077c0       ??_C@_1FK@FPHCKFIE@?$AAa?$AAp?$AAi?$AA?9?$AAm?$AAs?$AA?9?$AAw?$AAi?$AAn?$AA?9?$AAc?$AAo?$AAr?$AAe@ 00000001800657c0     libucrt:winapi_thunks.obj
 0002:00007820       ??_C@_1EM@DILCGIIO@?$AAa?$AAp?$AAi?$AA?9?$AAm?$AAs?$AA?9?$AAw?$AAi?$AAn?$AA?9?$AAc?$AAo?$AAr?$AAe@ 0000000180065820     libucrt:winapi_thunks.obj
 0002:00007870       ??_C@_1DM@LNCGDDPN@?$AAa?$AAp?$AAi?$AA?9?$AAm?$AAs?$AA?9?$AAw?$AAi?$AAn?$AA?9?$AAc?$AAo?$AAr?$AAe@ 0000000180065870     libucrt:winapi_thunks.obj
 0002:000078b0       ??_C@_1DO@FPAPJEMD@?$AAa?$AAp?$AAi?$AA?9?$AAm?$AAs?$AA?9?$AAw?$AAi?$AAn?$AA?9?$AAc?$AAo?$AAr?$AAe@ 00000001800658b0     libucrt:winapi_thunks.obj
 0002:000078f0       ??_C@_1DK@NDHNAHIO@?$AAa?$AAp?$AAi?$AA?9?$AAm?$AAs?$AA?9?$AAw?$AAi?$AAn?$AA?9?$AAc?$AAo?$AAr?$AAe@ 00000001800658f0     libucrt:winapi_thunks.obj
 0002:00007930       ??_C@_1DM@KGHDGBCM@?$AAa?$AAp?$AAi?$AA?9?$AAm?$AAs?$AA?9?$AAw?$AAi?$AAn?$AA?9?$AAc?$AAo?$AAr?$AAe@ 0000000180065930     libucrt:winapi_thunks.obj
 0002:00007970       ??_C@_1EO@IJIOEFOH@?$AAa?$AAp?$AAi?$AA?9?$AAm?$AAs?$AA?9?$AAw?$AAi?$AAn?$AA?9?$AAr?$AAt?$AAc?$AAo@ 0000000180065970     libucrt:winapi_thunks.obj
 0002:000079c0       ??_C@_1FG@HHGEKANL@?$AAa?$AAp?$AAi?$AA?9?$AAm?$AAs?$AA?9?$AAw?$AAi?$AAn?$AA?9?$AAs?$AAe?$AAc?$AAu@ 00000001800659c0     libucrt:winapi_thunks.obj
 0002:00007a20       ??_C@_1EG@DBIOJECG@?$AAe?$AAx?$AAt?$AA?9?$AAm?$AAs?$AA?9?$AAw?$AAi?$AAn?$AA?9?$AAn?$AAt?$AAu?$AAs@ 0000000180065a20     libucrt:winapi_thunks.obj
 0002:00007a70       ??_C@_1EO@FIHMJCLF@?$AAe?$AAx?$AAt?$AA?9?$AAm?$AAs?$AA?9?$AAw?$AAi?$AAn?$AA?9?$AAn?$AAt?$AAu?$AAs@ 0000000180065a70     libucrt:winapi_thunks.obj
 0002:00007ac0       ??_C@_1BC@DNHGCMLG@?$AAa?$AAd?$AAv?$AAa?$AAp?$AAi?$AA3?$AA2@ 0000000180065ac0     libucrt:winapi_thunks.obj
 0002:00007ad8       ??_C@_1M@OAIMIKLP@?$AAn?$AAt?$AAd?$AAl?$AAl@ 0000000180065ad8     libucrt:winapi_thunks.obj
 0002:00007af0       ??_C@_1EG@DPGNFKGC@?$AAa?$AAp?$AAi?$AA?9?$AAm?$AAs?$AA?9?$AAw?$AAi?$AAn?$AA?9?$AAa?$AAp?$AAp?$AAm@ 0000000180065af0     libucrt:winapi_thunks.obj
 0002:00007b38       ??_C@_1O@BCCLBEOE@?$AAu?$AAs?$AAe?$AAr?$AA3?$AA2@ 0000000180065b38     libucrt:winapi_thunks.obj
 0002:00007b48       ??_C@_1BA@IAIFMGEF@?$AAe?$AAx?$AAt?$AA?9?$AAm?$AAs?$AA?9@ 0000000180065b48     libucrt:winapi_thunks.obj
 0002:00007b60       ??_C@_0BA@FHFNEAED@AreFileApisANSI@ 0000000180065b60     libucrt:winapi_thunks.obj
 0002:00007b80       ??_C@_0BE@LJANKFHF@EnumSystemLocalesEx@ 0000000180065b80     libucrt:winapi_thunks.obj
 0002:00007bc0       ??_C@_0BA@EPCJIIPD@GetDateFormatEx@ 0000000180065bc0     libucrt:winapi_thunks.obj
 0002:00007be0       ??_C@_0BA@CIJJKCJJ@GetTimeFormatEx@ 0000000180065be0     libucrt:winapi_thunks.obj
 0002:00007bf8       ??_C@_0BJ@PBCCBIPI@GetUserDefaultLocaleName@ 0000000180065bf8     libucrt:winapi_thunks.obj
 0002:00007c28       ??_C@_0BC@CELBKLLA@IsValidLocaleName@ 0000000180065c28     libucrt:winapi_thunks.obj
 0002:00007c50       ??_C@_0BB@CDHDDLLP@LCIDToLocaleName@ 0000000180065c50     libucrt:winapi_thunks.obj
 0002:00007c70       ??_C@_0BB@HBDEELFH@LocaleNameToLCID@ 0000000180065c70     libucrt:winapi_thunks.obj
 0002:00007c88       ??_C@_0CF@OJOFEIGO@AppPolicyGetProcessTerminationM@ 0000000180065c88     libucrt:winapi_thunks.obj
 0002:00007cd8       ?ccs@?1???$__acrt_stdio_parse_mode@D@@YA?AU__acrt_stdio_stream_mode@@QEBD@Z@4QBDB 0000000180065cd8     libucrt:openfile.obj
 0002:00007cdc       ?utf8_encoding@?1???$__acrt_stdio_parse_mode@D@@YA?AU__acrt_stdio_stream_mode@@QEBD@Z@4QBDB 0000000180065cdc     libucrt:openfile.obj
 0002:00007ce8       ?utf16_encoding@?1???$__acrt_stdio_parse_mode@D@@YA?AU__acrt_stdio_stream_mode@@QEBD@Z@4QBDB 0000000180065ce8     libucrt:openfile.obj
 0002:00007cf0       ?unicode_encoding@?1???$__acrt_stdio_parse_mode@D@@YA?AU__acrt_stdio_stream_mode@@QEBD@Z@4QBDB 0000000180065cf0     libucrt:openfile.obj
 0002:00007d00       __log_256_lead             0000000180065d00     libucrt:log_256_lead_tail_table.obj
 0002:00008510       __log_256_tail             0000000180066510     libucrt:log_256_lead_tail_table.obj
 0002:00008d20       __two_to_jby64_head_table  0000000180066d20     libucrt:two_to_jby64_head_tail_table.obj
 0002:00008f20       __two_to_jby64_tail_table  0000000180066f20     libucrt:two_to_jby64_head_tail_table.obj
 0002:00009120       ??_C@_04MBFDLNIM@powf@     0000000180067120     libucrt:pow_special.obj
 0002:00009130       __two_to_jby64_table       0000000180067130     libucrt:two_to_jby64_table.obj
 0002:00009330       __log_F_inv_qword          0000000180067330     libucrt:log_f_inv_qword_table.obj
 0002:00009b60       ??_C@_1M@HPNHIDJI@?$AAj?$AAa?$AA?9?$AAJ?$AAP@ 0000000180067b60     libucrt:mbctype.obj
 0002:00009b70       ??_C@_1M@BIBDDEMK@?$AAz?$AAh?$AA?9?$AAC?$AAN@ 0000000180067b70     libucrt:mbctype.obj
 0002:00009b80       ??_C@_1M@JLOOOEGK@?$AAk?$AAo?$AA?9?$AAK?$AAR@ 0000000180067b80     libucrt:mbctype.obj
 0002:00009b90       ??_C@_1M@CLNBBOPM@?$AAz?$AAh?$AA?9?$AAT?$AAW@ 0000000180067b90     libucrt:mbctype.obj
 0002:00009b9c       ??_C@_05DNEBIAHO@1?$CDINF@ 0000000180067b9c     libucrt:cfout.obj
 0002:00009ba4       ??_C@_06IMKFLFPG@1?$CDQNAN@ 0000000180067ba4     libucrt:cfout.obj
 0002:00009bac       ??_C@_06PGGFOGJG@1?$CDSNAN@ 0000000180067bac     libucrt:cfout.obj
 0002:00009bb4       ??_C@_05PHHOCPM@1?$CDIND@  0000000180067bb4     libucrt:cfout.obj
 0002:00009bc0       __acrt_rg_language         0000000180067bc0     libucrt:get_qualified_locale.obj
 0002:00009fd0       __acrt_rg_language_count   0000000180067fd0     libucrt:get_qualified_locale.obj
 0002:00009fe0       __acrt_rg_country          0000000180067fe0     libucrt:get_qualified_locale.obj
 0002:0000a150       __acrt_rg_country_count    0000000180068150     libucrt:get_qualified_locale.obj
 0002:0000a158       ??_C@_1BC@LLOKLNP@?$AAa?$AAm?$AAe?$AAr?$AAi?$AAc?$AAa?$AAn@ 0000000180068158     libucrt:get_qualified_locale.obj
 0002:0000a170       ??_C@_1CC@HEIGCDGG@?$AAa?$AAm?$AAe?$AAr?$AAi?$AAc?$AAa?$AAn?$AA?5?$AAe?$AAn?$AAg?$AAl?$AAi?$AAs@ 0000000180068170     libucrt:get_qualified_locale.obj
 0002:0000a198       ??_C@_1CC@IHCNOMIN@?$AAa?$AAm?$AAe?$AAr?$AAi?$AAc?$AAa?$AAn?$AA?9?$AAe?$AAn?$AAg?$AAl?$AAi?$AAs@ 0000000180068198     libucrt:get_qualified_locale.obj
 0002:0000a1c0       ??_C@_1BG@GKAGPCGG@?$AAa?$AAu?$AAs?$AAt?$AAr?$AAa?$AAl?$AAi?$AAa?$AAn@ 00000001800681c0     libucrt:get_qualified_locale.obj
 0002:0000a1d8       ??_C@_1BA@GMENCENF@?$AAb?$AAe?$AAl?$AAg?$AAi?$AAa?$AAn@ 00000001800681d8     libucrt:get_qualified_locale.obj
 0002:0000a1e8       ??_C@_1BC@PJMIIAAN@?$AAc?$AAa?$AAn?$AAa?$AAd?$AAi?$AAa?$AAn@ 00000001800681e8     libucrt:get_qualified_locale.obj
 0002:0000a200       ??_C@_17NOIMNFBF@?$AAc?$AAh?$AAh@ 0000000180068200     libucrt:get_qualified_locale.obj
 0002:0000a208       ??_C@_17GGDALCHA@?$AAc?$AAh?$AAi@ 0000000180068208     libucrt:get_qualified_locale.obj
 0002:0000a210       ??_C@_1BA@NPNJKIBL@?$AAc?$AAh?$AAi?$AAn?$AAe?$AAs?$AAe@ 0000000180068210     libucrt:get_qualified_locale.obj
 0002:0000a220       ??_C@_1CC@DINBAMMJ@?$AAc?$AAh?$AAi?$AAn?$AAe?$AAs?$AAe?$AA?9?$AAh?$AAo?$AAn?$AAg?$AAk?$AAo?$AAn@ 0000000180068220     libucrt:get_qualified_locale.obj
 0002:0000a248       ??_C@_1CG@IOBJPACO@?$AAc?$AAh?$AAi?$AAn?$AAe?$AAs?$AAe?$AA?9?$AAs?$AAi?$AAm?$AAp?$AAl?$AAi?$AAf@ 0000000180068248     libucrt:get_qualified_locale.obj
 0002:0000a270       ??_C@_1CE@GAJNDCKG@?$AAc?$AAh?$AAi?$AAn?$AAe?$AAs?$AAe?$AA?9?$AAs?$AAi?$AAn?$AAg?$AAa?$AAp?$AAo@ 0000000180068270     libucrt:get_qualified_locale.obj
 0002:0000a298       ??_C@_1CI@PAJPIOOD@?$AAc?$AAh?$AAi?$AAn?$AAe?$AAs?$AAe?$AA?9?$AAt?$AAr?$AAa?$AAd?$AAi?$AAt?$AAi@ 0000000180068298     libucrt:get_qualified_locale.obj
 0002:0000a2c0       ??_C@_1BM@NILJBMMD@?$AAd?$AAu?$AAt?$AAc?$AAh?$AA?9?$AAb?$AAe?$AAl?$AAg?$AAi?$AAa?$AAn@ 00000001800682c0     libucrt:get_qualified_locale.obj
 0002:0000a2e0       ??_C@_1CC@OOJPJNEJ@?$AAe?$AAn?$AAg?$AAl?$AAi?$AAs?$AAh?$AA?9?$AAa?$AAm?$AAe?$AAr?$AAi?$AAc?$AAa@ 00000001800682e0     libucrt:get_qualified_locale.obj
 0002:0000a308       ??_C@_1BI@IOLFEEM@?$AAe?$AAn?$AAg?$AAl?$AAi?$AAs?$AAh?$AA?9?$AAa?$AAu?$AAs@ 0000000180068308     libucrt:get_qualified_locale.obj
 0002:0000a320       ??_C@_1BO@HFFNLENJ@?$AAe?$AAn?$AAg?$AAl?$AAi?$AAs?$AAh?$AA?9?$AAb?$AAe?$AAl?$AAi?$AAz?$AAe@ 0000000180068320     libucrt:get_qualified_locale.obj
 0002:0000a340       ??_C@_1BI@HAPKJMPO@?$AAe?$AAn?$AAg?$AAl?$AAi?$AAs?$AAh?$AA?9?$AAc?$AAa?$AAn@ 0000000180068340     libucrt:get_qualified_locale.obj
 0002:0000a358       ??_C@_1CE@HLNDMIOJ@?$AAe?$AAn?$AAg?$AAl?$AAi?$AAs?$AAh?$AA?9?$AAc?$AAa?$AAr?$AAi?$AAb?$AAb?$AAe@ 0000000180068358     libucrt:get_qualified_locale.obj
 0002:0000a380       ??_C@_1BI@LDHJHHAC@?$AAe?$AAn?$AAg?$AAl?$AAi?$AAs?$AAh?$AA?9?$AAi?$AAr?$AAe@ 0000000180068380     libucrt:get_qualified_locale.obj
 0002:0000a398       ??_C@_1CA@NJMMCFOC@?$AAe?$AAn?$AAg?$AAl?$AAi?$AAs?$AAh?$AA?9?$AAj?$AAa?$AAm?$AAa?$AAi?$AAc?$AAa@ 0000000180068398     libucrt:get_qualified_locale.obj
 0002:0000a3b8       ??_C@_1BG@BHJEBBGG@?$AAe?$AAn?$AAg?$AAl?$AAi?$AAs?$AAh?$AA?9?$AAn?$AAz@ 00000001800683b8     libucrt:get_qualified_locale.obj
 0002:0000a3d0       ??_C@_1CK@FGOEJJCO@?$AAe?$AAn?$AAg?$AAl?$AAi?$AAs?$AAh?$AA?9?$AAs?$AAo?$AAu?$AAt?$AAh?$AA?5?$AAa@ 00000001800683d0     libucrt:get_qualified_locale.obj
 0002:0000a400       ??_C@_1DE@PDBJPCJ@?$AAe?$AAn?$AAg?$AAl?$AAi?$AAs?$AAh?$AA?9?$AAt?$AAr?$AAi?$AAn?$AAi?$AAd?$AAa@ 0000000180068400     libucrt:get_qualified_locale.obj
 0002:0000a438       ??_C@_1BG@JGCANDME@?$AAe?$AAn?$AAg?$AAl?$AAi?$AAs?$AAh?$AA?9?$AAu?$AAk@ 0000000180068438     libucrt:get_qualified_locale.obj
 0002:0000a450       ??_C@_1BG@DINKMLE@?$AAe?$AAn?$AAg?$AAl?$AAi?$AAs?$AAh?$AA?9?$AAu?$AAs@ 0000000180068450     libucrt:get_qualified_locale.obj
 0002:0000a468       ??_C@_1BI@NMFDBHJE@?$AAe?$AAn?$AAg?$AAl?$AAi?$AAs?$AAh?$AA?9?$AAu?$AAs?$AAa@ 0000000180068468     libucrt:get_qualified_locale.obj
 0002:0000a480       ??_C@_1BO@OIHKJKII@?$AAf?$AAr?$AAe?$AAn?$AAc?$AAh?$AA?9?$AAb?$AAe?$AAl?$AAg?$AAi?$AAa?$AAn@ 0000000180068480     libucrt:get_qualified_locale.obj
 0002:0000a4a0       ??_C@_1CA@NKAELJKI@?$AAf?$AAr?$AAe?$AAn?$AAc?$AAh?$AA?9?$AAc?$AAa?$AAn?$AAa?$AAd?$AAi?$AAa?$AAn@ 00000001800684a0     libucrt:get_qualified_locale.obj
 0002:0000a4c0       ??_C@_1CE@MGKCNLGN@?$AAf?$AAr?$AAe?$AAn?$AAc?$AAh?$AA?9?$AAl?$AAu?$AAx?$AAe?$AAm?$AAb?$AAo?$AAu@ 00000001800684c0     libucrt:get_qualified_locale.obj
 0002:0000a4e8       ??_C@_1BK@CEGEAILM@?$AAf?$AAr?$AAe?$AAn?$AAc?$AAh?$AA?9?$AAs?$AAw?$AAi?$AAs?$AAs@ 00000001800684e8     libucrt:get_qualified_locale.obj
 0002:0000a508       ??_C@_1CA@PAFKEOCC@?$AAg?$AAe?$AAr?$AAm?$AAa?$AAn?$AA?9?$AAa?$AAu?$AAs?$AAt?$AAr?$AAi?$AAa?$AAn@ 0000000180068508     libucrt:get_qualified_locale.obj
 0002:0000a528       ??_C@_1CI@HCFHGOFD@?$AAg?$AAe?$AAr?$AAm?$AAa?$AAn?$AA?9?$AAl?$AAi?$AAc?$AAh?$AAt?$AAe?$AAn?$AAs@ 0000000180068528     libucrt:get_qualified_locale.obj
 0002:0000a550       ??_C@_1CE@FEDDNPDG@?$AAg?$AAe?$AAr?$AAm?$AAa?$AAn?$AA?9?$AAl?$AAu?$AAx?$AAe?$AAm?$AAb?$AAo?$AAu@ 0000000180068550     libucrt:get_qualified_locale.obj
 0002:0000a578       ??_C@_1BK@LIMINNMN@?$AAg?$AAe?$AAr?$AAm?$AAa?$AAn?$AA?9?$AAs?$AAw?$AAi?$AAs?$AAs@ 0000000180068578     libucrt:get_qualified_locale.obj
 0002:0000a598       ??_C@_1BM@LGMDBEPD@?$AAi?$AAr?$AAi?$AAs?$AAh?$AA?9?$AAe?$AAn?$AAg?$AAl?$AAi?$AAs?$AAh@ 0000000180068598     libucrt:get_qualified_locale.obj
 0002:0000a5b8       ??_C@_1BM@NNCFBAEE@?$AAi?$AAt?$AAa?$AAl?$AAi?$AAa?$AAn?$AA?9?$AAs?$AAw?$AAi?$AAs?$AAs@ 00000001800685b8     libucrt:get_qualified_locale.obj
 0002:0000a5d8       ??_C@_1BE@FEDJNPIB@?$AAn?$AAo?$AAr?$AAw?$AAe?$AAg?$AAi?$AAa?$AAn@ 00000001800685d8     libucrt:get_qualified_locale.obj
 0002:0000a5f0       ??_C@_1CC@CILKDEIE@?$AAn?$AAo?$AAr?$AAw?$AAe?$AAg?$AAi?$AAa?$AAn?$AA?9?$AAb?$AAo?$AAk?$AAm?$AAa@ 00000001800685f0     libucrt:get_qualified_locale.obj
 0002:0000a618       ??_C@_1CE@DHMMHEPL@?$AAn?$AAo?$AAr?$AAw?$AAe?$AAg?$AAi?$AAa?$AAn?$AA?9?$AAn?$AAy?$AAn?$AAo?$AAr@ 0000000180068618     libucrt:get_qualified_locale.obj
 0002:0000a640       ??_C@_1CK@OPNMHECD@?$AAp?$AAo?$AAr?$AAt?$AAu?$AAg?$AAu?$AAe?$AAs?$AAe?$AA?9?$AAb?$AAr?$AAa?$AAz@ 0000000180068640     libucrt:get_qualified_locale.obj
 0002:0000a670       ??_C@_1CE@KEEHCDB@?$AAs?$AAp?$AAa?$AAn?$AAi?$AAs?$AAh?$AA?9?$AAa?$AAr?$AAg?$AAe?$AAn?$AAt?$AAi@ 0000000180068670     libucrt:get_qualified_locale.obj
 0002:0000a698       ??_C@_1CA@GIAOLHJD@?$AAs?$AAp?$AAa?$AAn?$AAi?$AAs?$AAh?$AA?9?$AAb?$AAo?$AAl?$AAi?$AAv?$AAi?$AAa@ 0000000180068698     libucrt:get_qualified_locale.obj
 0002:0000a6b8       ??_C@_1BM@OJNDFNPD@?$AAs?$AAp?$AAa?$AAn?$AAi?$AAs?$AAh?$AA?9?$AAc?$AAh?$AAi?$AAl?$AAe@ 00000001800686b8     libucrt:get_qualified_locale.obj
 0002:0000a6d8       ??_C@_1CC@OCOLPALL@?$AAs?$AAp?$AAa?$AAn?$AAi?$AAs?$AAh?$AA?9?$AAc?$AAo?$AAl?$AAo?$AAm?$AAb?$AAi@ 00000001800686d8     libucrt:get_qualified_locale.obj
 0002:0000a700       ??_C@_1CG@BPOFMKBB@?$AAs?$AAp?$AAa?$AAn?$AAi?$AAs?$AAh?$AA?9?$AAc?$AAo?$AAs?$AAt?$AAa?$AA?5?$AAr@ 0000000180068700     libucrt:get_qualified_locale.obj
 0002:0000a728       ??_C@_1DG@IGOBAPBB@?$AAs?$AAp?$AAa?$AAn?$AAi?$AAs?$AAh?$AA?9?$AAd?$AAo?$AAm?$AAi?$AAn?$AAi?$AAc@ 0000000180068728     libucrt:get_qualified_locale.obj
 0002:0000a760       ??_C@_1CA@JHAPGEGI@?$AAs?$AAp?$AAa?$AAn?$AAi?$AAs?$AAh?$AA?9?$AAe?$AAc?$AAu?$AAa?$AAd?$AAo?$AAr@ 0000000180068760     libucrt:get_qualified_locale.obj
 0002:0000a780       ??_C@_1CI@LAPALJPP@?$AAs?$AAp?$AAa?$AAn?$AAi?$AAs?$AAh?$AA?9?$AAe?$AAl?$AA?5?$AAs?$AAa?$AAl?$AAv@ 0000000180068780     libucrt:get_qualified_locale.obj
 0002:0000a7a8       ??_C@_1CE@PDGBOFOM@?$AAs?$AAp?$AAa?$AAn?$AAi?$AAs?$AAh?$AA?9?$AAg?$AAu?$AAa?$AAt?$AAe?$AAm?$AAa@ 00000001800687a8     libucrt:get_qualified_locale.obj
 0002:0000a7d0       ??_C@_1CC@NBEBAODI@?$AAs?$AAp?$AAa?$AAn?$AAi?$AAs?$AAh?$AA?9?$AAh?$AAo?$AAn?$AAd?$AAu?$AAr?$AAa@ 00000001800687d0     libucrt:get_qualified_locale.obj
 0002:0000a7f8       ??_C@_1CA@LLKGHBMF@?$AAs?$AAp?$AAa?$AAn?$AAi?$AAs?$AAh?$AA?9?$AAm?$AAe?$AAx?$AAi?$AAc?$AAa?$AAn@ 00000001800687f8     libucrt:get_qualified_locale.obj
 0002:0000a818       ??_C@_1BO@LKNDOIGD@?$AAs?$AAp?$AAa?$AAn?$AAi?$AAs?$AAh?$AA?9?$AAm?$AAo?$AAd?$AAe?$AAr?$AAn@ 0000000180068818     libucrt:get_qualified_locale.obj
 0002:0000a838       ??_C@_1CE@NMDMOEEB@?$AAs?$AAp?$AAa?$AAn?$AAi?$AAs?$AAh?$AA?9?$AAn?$AAi?$AAc?$AAa?$AAr?$AAa?$AAg@ 0000000180068838     libucrt:get_qualified_locale.obj
 0002:0000a860       ??_C@_1BO@LLCBEJGB@?$AAs?$AAp?$AAa?$AAn?$AAi?$AAs?$AAh?$AA?9?$AAp?$AAa?$AAn?$AAa?$AAm?$AAa@ 0000000180068860     libucrt:get_qualified_locale.obj
 0002:0000a880       ??_C@_1CC@FKPGGIHO@?$AAs?$AAp?$AAa?$AAn?$AAi?$AAs?$AAh?$AA?9?$AAp?$AAa?$AAr?$AAa?$AAg?$AAu?$AAa@ 0000000180068880     libucrt:get_qualified_locale.obj
 0002:0000a8a8       ??_C@_1BK@CDEIHOOP@?$AAs?$AAp?$AAa?$AAn?$AAi?$AAs?$AAh?$AA?9?$AAp?$AAe?$AAr?$AAu@ 00000001800688a8     libucrt:get_qualified_locale.obj
 0002:0000a8c8       ??_C@_1CI@GAHAKKGP@?$AAs?$AAp?$AAa?$AAn?$AAi?$AAs?$AAh?$AA?9?$AAp?$AAu?$AAe?$AAr?$AAt?$AAo?$AA?5@ 00000001800688c8     libucrt:get_qualified_locale.obj
 0002:0000a8f0       ??_C@_1CA@NKJBCAGP@?$AAs?$AAp?$AAa?$AAn?$AAi?$AAs?$AAh?$AA?9?$AAu?$AAr?$AAu?$AAg?$AAu?$AAa?$AAy@ 00000001800688f0     libucrt:get_qualified_locale.obj
 0002:0000a910       ??_C@_1CE@ODILCONM@?$AAs?$AAp?$AAa?$AAn?$AAi?$AAs?$AAh?$AA?9?$AAv?$AAe?$AAn?$AAe?$AAz?$AAu?$AAe@ 0000000180068910     libucrt:get_qualified_locale.obj
 0002:0000a938       ??_C@_1CA@OBNMCGFO@?$AAs?$AAw?$AAe?$AAd?$AAi?$AAs?$AAh?$AA?9?$AAf?$AAi?$AAn?$AAl?$AAa?$AAn?$AAd@ 0000000180068938     libucrt:get_qualified_locale.obj
 0002:0000a958       ??_C@_1M@PIPDDPPI@?$AAs?$AAw?$AAi?$AAs?$AAs@ 0000000180068958     libucrt:get_qualified_locale.obj
 0002:0000a964       ??_C@_15PJPFLCCM@?$AAu?$AAk@ 0000000180068964     libucrt:get_qualified_locale.obj
 0002:0000a96c       ??_C@_15GMFIMNFM@?$AAu?$AAs@ 000000018006896c     libucrt:get_qualified_locale.obj
 0002:0000a978       ??_C@_17HAEBFAGL@?$AAu?$AAs?$AAa@ 0000000180068978     libucrt:get_qualified_locale.obj
 0002:0000a980       ??_C@_1BA@DPFJEPHB@?$AAa?$AAm?$AAe?$AAr?$AAi?$AAc?$AAa@ 0000000180068980     libucrt:get_qualified_locale.obj
 0002:0000a990       ??_C@_1BA@ELOGGFK@?$AAb?$AAr?$AAi?$AAt?$AAa?$AAi?$AAn@ 0000000180068990     libucrt:get_qualified_locale.obj
 0002:0000a9a0       ??_C@_1M@GHBGIGDA@?$AAc?$AAh?$AAi?$AAn?$AAa@ 00000001800689a0     libucrt:get_qualified_locale.obj
 0002:0000a9b0       ??_C@_1M@NCHEJOPO@?$AAc?$AAz?$AAe?$AAc?$AAh@ 00000001800689b0     libucrt:get_qualified_locale.obj
 0002:0000a9c0       ??_C@_1BA@BKPAPBLA@?$AAe?$AAn?$AAg?$AAl?$AAa?$AAn?$AAd@ 00000001800689c0     libucrt:get_qualified_locale.obj
 0002:0000a9d0       ??_C@_1BM@HKBCKIPC@?$AAg?$AAr?$AAe?$AAa?$AAt?$AA?5?$AAb?$AAr?$AAi?$AAt?$AAa?$AAi?$AAn@ 00000001800689d0     libucrt:get_qualified_locale.obj
 0002:0000a9f0       ??_C@_1BA@PPCHPGJB@?$AAh?$AAo?$AAl?$AAl?$AAa?$AAn?$AAd@ 00000001800689f0     libucrt:get_qualified_locale.obj
 0002:0000aa00       ??_C@_1BE@JBMPEGDG@?$AAh?$AAo?$AAn?$AAg?$AA?9?$AAk?$AAo?$AAn?$AAg@ 0000000180068a00     libucrt:get_qualified_locale.obj
 0002:0000aa18       ??_C@_1BI@KOELBBPJ@?$AAn?$AAe?$AAw?$AA?9?$AAz?$AAe?$AAa?$AAl?$AAa?$AAn?$AAd@ 0000000180068a18     libucrt:get_qualified_locale.obj
 0002:0000aa30       ??_C@_15HIEBHAIO@?$AAn?$AAz@ 0000000180068a30     libucrt:get_qualified_locale.obj
 0002:0000aa38       ??_C@_1BC@CHBCPFPI@?$AAp?$AAr?$AA?5?$AAc?$AAh?$AAi?$AAn?$AAa@ 0000000180068a38     libucrt:get_qualified_locale.obj
 0002:0000aa50       ??_C@_1BC@JAOIIFKD@?$AAp?$AAr?$AA?9?$AAc?$AAh?$AAi?$AAn?$AAa@ 0000000180068a50     libucrt:get_qualified_locale.obj
 0002:0000aa68       ??_C@_1BI@BEHPPHKC@?$AAp?$AAu?$AAe?$AAr?$AAt?$AAo?$AA?9?$AAr?$AAi?$AAc?$AAo@ 0000000180068a68     libucrt:get_qualified_locale.obj
 0002:0000aa80       ??_C@_1O@PAEOFKDI@?$AAs?$AAl?$AAo?$AAv?$AAa?$AAk@ 0000000180068a80     libucrt:get_qualified_locale.obj
 0002:0000aa90       ??_C@_1BK@FIHMCKAM@?$AAs?$AAo?$AAu?$AAt?$AAh?$AA?5?$AAa?$AAf?$AAr?$AAi?$AAc?$AAa@ 0000000180068a90     libucrt:get_qualified_locale.obj
 0002:0000aab0       ??_C@_1BI@NAEOODKB@?$AAs?$AAo?$AAu?$AAt?$AAh?$AA?5?$AAk?$AAo?$AAr?$AAe?$AAa@ 0000000180068ab0     libucrt:get_qualified_locale.obj
 0002:0000aac8       ??_C@_1BK@FBDGGIFF@?$AAs?$AAo?$AAu?$AAt?$AAh?$AA?9?$AAa?$AAf?$AAr?$AAi?$AAc?$AAa@ 0000000180068ac8     libucrt:get_qualified_locale.obj
 0002:0000aae8       ??_C@_1BI@GHLEJDPK@?$AAs?$AAo?$AAu?$AAt?$AAh?$AA?9?$AAk?$AAo?$AAr?$AAe?$AAa@ 0000000180068ae8     libucrt:get_qualified_locale.obj
 0002:0000ab00       ??_C@_1CE@PLHLOMJF@?$AAt?$AAr?$AAi?$AAn?$AAi?$AAd?$AAa?$AAd?$AA?5?$AA?$CG?$AA?5?$AAt?$AAo?$AAb?$AAa@ 0000000180068b00     libucrt:get_qualified_locale.obj
 0002:0000ab28       ??_C@_1BO@MODIMHHI@?$AAu?$AAn?$AAi?$AAt?$AAe?$AAd?$AA?9?$AAk?$AAi?$AAn?$AAg?$AAd?$AAo?$AAm@ 0000000180068b28     libucrt:get_qualified_locale.obj
 0002:0000ab48       ??_C@_1BM@FFHJONBJ@?$AAu?$AAn?$AAi?$AAt?$AAe?$AAd?$AA?9?$AAs?$AAt?$AAa?$AAt?$AAe?$AAs@ 0000000180068b48     libucrt:get_qualified_locale.obj
 0002:0000ab68       ??_C@_19MPDNHKDG@?$AAu?$AAt?$AAf?$AA8@ 0000000180068b68     libucrt:get_qualified_locale.obj
 0002:0000ab78       ??_C@_17DNCLJFIF@?$AAA?$AAC?$AAP@ 0000000180068b78     libucrt:get_qualified_locale.obj
 0002:0000ab80       ??_C@_1M@FPEIIFAM@?$AAu?$AAt?$AAf?$AA?9?$AA8@ 0000000180068b80     libucrt:get_qualified_locale.obj
 0002:0000ab90       ??_C@_17CIKBIHLH@?$AAO?$AAC?$AAP@ 0000000180068b90     libucrt:get_qualified_locale.obj
 0002:0000ab98       __rglangidNotDefault       0000000180068b98     libucrt:getqloc_downlevel.obj
 0002:0000ba00       ??_C@_15EMKDOKLE@?$AAa?$AAr@ 0000000180069a00     libucrt:lcidtoname_downlevel.obj
 0002:0000ba08       ??_C@_15KNPADPLH@?$AAb?$AAg@ 0000000180069a08     libucrt:lcidtoname_downlevel.obj
 0002:0000ba10       ??_C@_15EDMHLDMO@?$AAc?$AAa@ 0000000180069a10     libucrt:lcidtoname_downlevel.obj
 0002:0000ba18       ??_C@_1O@BPEAJADD@?$AAz?$AAh?$AA?9?$AAC?$AAH?$AAS@ 0000000180069a18     libucrt:lcidtoname_downlevel.obj
 0002:0000ba28       ??_C@_15LJNHCMNK@?$AAc?$AAs@ 0000000180069a28     libucrt:lcidtoname_downlevel.obj
 0002:0000ba30       ??_C@_15FOMCIDHG@?$AAd?$AAa@ 0000000180069a30     libucrt:lcidtoname_downlevel.obj
 0002:0000ba38       ??_C@_15NBKABECB@?$AAd?$AAe@ 0000000180069a38     libucrt:lcidtoname_downlevel.obj
 0002:0000ba40       ??_C@_15GHPEIIAO@?$AAe?$AAl@ 0000000180069a40     libucrt:lcidtoname_downlevel.obj
 0002:0000ba48       ??_C@_15MNPNEAIF@?$AAe?$AAn@ 0000000180069a48     libucrt:lcidtoname_downlevel.obj
 0002:0000ba50       ??_C@_15GPIOMPMH@?$AAe?$AAs@ 0000000180069a50     libucrt:lcidtoname_downlevel.obj
 0002:0000ba58       ??_C@_15NGLOAKJC@?$AAf?$AAi@ 0000000180069a58     libucrt:lcidtoname_downlevel.obj
 0002:0000ba60       ??_C@_15FBKGNKAM@?$AAf?$AAr@ 0000000180069a60     libucrt:lcidtoname_downlevel.obj
 0002:0000ba68       ??_C@_15KGGCNEFK@?$AAh?$AAe@ 0000000180069a68     libucrt:lcidtoname_downlevel.obj
 0002:0000ba70       ??_C@_15PGHLIDMF@?$AAh?$AAu@ 0000000180069a70     libucrt:lcidtoname_downlevel.obj
 0002:0000ba78       ??_C@_15BIEMAPLM@?$AAi?$AAs@ 0000000180069a78     libucrt:lcidtoname_downlevel.obj
 0002:0000ba80       ??_C@_15IFJLDHAF@?$AAi?$AAt@ 0000000180069a80     libucrt:lcidtoname_downlevel.obj
 0002:0000ba88       ??_C@_15GEMIOCAG@?$AAj?$AAa@ 0000000180069a88     libucrt:lcidtoname_downlevel.obj
 0002:0000ba90       ??_C@_15EPELEGJA@?$AAk?$AAo@ 0000000180069a90     libucrt:lcidtoname_downlevel.obj
 0002:0000ba98       ??_C@_15NDDHIMN@?$AAn?$AAl@ 0000000180069a98     libucrt:lcidtoname_downlevel.obj
 0002:0000baa0       ??_C@_15BPIGNHCD@?$AAn?$AAo@ 0000000180069aa0     libucrt:lcidtoname_downlevel.obj
 0002:0000baa8       ??_C@_15DEOPBLCG@?$AAp?$AAl@ 0000000180069aa8     libucrt:lcidtoname_downlevel.obj
 0002:0000bab0       ??_C@_15KBECGEFG@?$AAp?$AAt@ 0000000180069ab0     libucrt:lcidtoname_downlevel.obj
 0002:0000bab8       ??_C@_15GLJCBFMD@?$AAr?$AAo@ 0000000180069ab8     libucrt:lcidtoname_downlevel.obj
 0002:0000bac0       ??_C@_15FEDGKCDI@?$AAr?$AAu@ 0000000180069ac0     libucrt:lcidtoname_downlevel.obj
 0002:0000bac8       ??_C@_15GLKMLLHM@?$AAh?$AAr@ 0000000180069ac8     libucrt:lcidtoname_downlevel.obj
 0002:0000bad0       ??_C@_15CPKMFBDB@?$AAs?$AAk@ 0000000180069ad0     libucrt:lcidtoname_downlevel.obj
 0002:0000bad8       ??_C@_15BAAIOGMK@?$AAs?$AAq@ 0000000180069ad8     libucrt:lcidtoname_downlevel.obj
 0002:0000bae0       ??_C@_15INNPNOHD@?$AAs?$AAv@ 0000000180069ae0     libucrt:lcidtoname_downlevel.obj
 0002:0000bae8       ??_C@_15CABMMOGH@?$AAt?$AAh@ 0000000180069ae8     libucrt:lcidtoname_downlevel.obj
 0002:0000baf0       ??_C@_15BPLIHJJM@?$AAt?$AAr@ 0000000180069af0     libucrt:lcidtoname_downlevel.obj
 0002:0000baf8       ??_C@_15NEOEKKDJ@?$AAu?$AAr@ 0000000180069af8     libucrt:lcidtoname_downlevel.obj
 0002:0000bb00       ??_C@_15NFICGAJK@?$AAi?$AAd@ 0000000180069b00     libucrt:lcidtoname_downlevel.obj
 0002:0000bb08       ??_C@_15HPJPHDM@?$AAb?$AAe@ 0000000180069b08     libucrt:lcidtoname_downlevel.obj
 0002:0000bb10       ??_C@_15LCHLGJII@?$AAs?$AAl@ 0000000180069b10     libucrt:lcidtoname_downlevel.obj
 0002:0000bb18       ??_C@_15PCFJPHHO@?$AAe?$AAt@ 0000000180069b18     libucrt:lcidtoname_downlevel.obj
 0002:0000bb20       ??_C@_15HPFPGODN@?$AAl?$AAv@ 0000000180069b20     libucrt:lcidtoname_downlevel.obj
 0002:0000bb28       ??_C@_15NFFGKGLG@?$AAl?$AAt@ 0000000180069b28     libucrt:lcidtoname_downlevel.obj
 0002:0000bb30       ??_C@_15BDAKCCHN@?$AAf?$AAa@ 0000000180069b30     libucrt:lcidtoname_downlevel.obj
 0002:0000bb38       ??_C@_15NFGIAIAJ@?$AAv?$AAi@ 0000000180069b38     libucrt:lcidtoname_downlevel.obj
 0002:0000bb40       ??_C@_15LMKNDMHN@?$AAh?$AAy@ 0000000180069b40     libucrt:lcidtoname_downlevel.obj
 0002:0000bb48       ??_C@_15IJBHMCFL@?$AAa?$AAz@ 0000000180069b48     libucrt:lcidtoname_downlevel.obj
 0002:0000bb50       ??_C@_15EKOFJABL@?$AAe?$AAu@ 0000000180069b50     libucrt:lcidtoname_downlevel.obj
 0002:0000bb58       ??_C@_15BGHADCNK@?$AAm?$AAk@ 0000000180069b58     libucrt:lcidtoname_downlevel.obj
 0002:0000bb60       ??_C@_15JDNICKHM@?$AAa?$AAf@ 0000000180069b60     libucrt:lcidtoname_downlevel.obj
 0002:0000bb68       ??_C@_15KPJEDBKD@?$AAk?$AAa@ 0000000180069b68     libucrt:lcidtoname_downlevel.obj
 0002:0000bb70       ??_C@_15PDNFFFEO@?$AAf?$AAo@ 0000000180069b70     libucrt:lcidtoname_downlevel.obj
 0002:0000bb78       ??_C@_15OMLEGLOC@?$AAh?$AAi@ 0000000180069b78     libucrt:lcidtoname_downlevel.obj
 0002:0000bb80       ??_C@_15IDNNENKK@?$AAm?$AAs@ 0000000180069b80     libucrt:lcidtoname_downlevel.obj
 0002:0000bb88       ??_C@_15MACJNBMH@?$AAk?$AAk@ 0000000180069b88     libucrt:lcidtoname_downlevel.obj
 0002:0000bb90       ??_C@_15DKDJEOND@?$AAk?$AAy@ 0000000180069b90     libucrt:lcidtoname_downlevel.obj
 0002:0000bb98       ??_C@_15DFGDLJBG@?$AAs?$AAw@ 0000000180069b98     libucrt:lcidtoname_downlevel.obj
 0002:0000bba0       ??_C@_15BBFAICNG@?$AAu?$AAz@ 0000000180069ba0     libucrt:lcidtoname_downlevel.obj
 0002:0000bba8       ??_C@_15DKNDCGEA@?$AAt?$AAt@ 0000000180069ba8     libucrt:lcidtoname_downlevel.obj
 0002:0000bbb0       ??_C@_15MGIFMDPL@?$AAp?$AAa@ 0000000180069bb0     libucrt:lcidtoname_downlevel.obj
 0002:0000bbb8       ??_C@_15HCNDBBA@?$AAg?$AAu@ 0000000180069bb8     libucrt:lcidtoname_downlevel.obj
 0002:0000bbc0       ??_C@_15FNBEIBON@?$AAt?$AAa@ 0000000180069bc0     libucrt:lcidtoname_downlevel.obj
 0002:0000bbc8       ??_C@_15NCHGBGLK@?$AAt?$AAe@ 0000000180069bc8     libucrt:lcidtoname_downlevel.obj
 0002:0000bbd0       ??_C@_15PHPHCBPF@?$AAk?$AAn@ 0000000180069bd0     libucrt:lcidtoname_downlevel.obj
 0002:0000bbd8       ??_C@_15DLGBCKMP@?$AAm?$AAr@ 0000000180069bd8     libucrt:lcidtoname_downlevel.obj
 0002:0000bbe0       ??_C@_15EABBLBFF@?$AAs?$AAa@ 0000000180069be0     libucrt:lcidtoname_downlevel.obj
 0002:0000bbe8       ??_C@_15CBKOMCOI@?$AAm?$AAn@ 0000000180069be8     libucrt:lcidtoname_downlevel.obj
 0002:0000bbf0       ??_C@_15CKDMCJAF@?$AAg?$AAl@ 0000000180069bf0     libucrt:lcidtoname_downlevel.obj
 0002:0000bbf8       ??_C@_17CNJFBPG@?$AAk?$AAo?$AAk@ 0000000180069bf8     libucrt:lcidtoname_downlevel.obj
 0002:0000bc00       ??_C@_17FFBJICPL@?$AAs?$AAy?$AAr@ 0000000180069c00     libucrt:lcidtoname_downlevel.obj
 0002:0000bc08       ??_C@_17KPNDCPAF@?$AAd?$AAi?$AAv@ 0000000180069c08     libucrt:lcidtoname_downlevel.obj
 0002:0000bc10       ??_C@_1M@OKAHONE@?$AAa?$AAr?$AA?9?$AAS?$AAA@ 0000000180069c10     libucrt:lcidtoname_downlevel.obj
 0002:0000bc20       ??_C@_1M@FFFIGIGK@?$AAb?$AAg?$AA?9?$AAB?$AAG@ 0000000180069c20     libucrt:lcidtoname_downlevel.obj
 0002:0000bc30       ??_C@_1M@BJNKEDC@?$AAc?$AAa?$AA?9?$AAE?$AAS@ 0000000180069c30     libucrt:lcidtoname_downlevel.obj
 0002:0000bc40       ??_C@_1M@IJJHFJHA@?$AAc?$AAs?$AA?9?$AAC?$AAZ@ 0000000180069c40     libucrt:lcidtoname_downlevel.obj
 0002:0000bc50       ??_C@_1M@CLPEOBGI@?$AAd?$AAa?$AA?9?$AAD?$AAK@ 0000000180069c50     libucrt:lcidtoname_downlevel.obj
 0002:0000bc60       ??_C@_1M@MCMADGCB@?$AAd?$AAe?$AA?9?$AAD?$AAE@ 0000000180069c60     libucrt:lcidtoname_downlevel.obj
 0002:0000bc70       ??_C@_1M@OOCKEMAM@?$AAe?$AAl?$AA?9?$AAG?$AAR@ 0000000180069c70     libucrt:lcidtoname_downlevel.obj
 0002:0000bc80       ??_C@_1M@DDNJFGID@?$AAf?$AAi?$AA?9?$AAF?$AAI@ 0000000180069c80     libucrt:lcidtoname_downlevel.obj
 0002:0000bc90       ??_C@_1M@GLIPPMAC@?$AAf?$AAr?$AA?9?$AAF?$AAR@ 0000000180069c90     libucrt:lcidtoname_downlevel.obj
 0002:0000bca0       ??_C@_1M@GFMCHPE@?$AAh?$AAe?$AA?9?$AAI?$AAL@ 0000000180069ca0     libucrt:lcidtoname_downlevel.obj
 0002:0000bcb0       ??_C@_1M@MHLPGNKM@?$AAh?$AAu?$AA?9?$AAH?$AAU@ 0000000180069cb0     libucrt:lcidtoname_downlevel.obj
 0002:0000bcc0       ??_C@_1M@LPDDNNPN@?$AAi?$AAs?$AA?9?$AAI?$AAS@ 0000000180069cc0     libucrt:lcidtoname_downlevel.obj
 0002:0000bcd0       ??_C@_1M@MADIPODN@?$AAi?$AAt?$AA?9?$AAI?$AAT@ 0000000180069cd0     libucrt:lcidtoname_downlevel.obj
 0002:0000bce0       ??_C@_1M@IHBJJGG@?$AAn?$AAl?$AA?9?$AAN?$AAL@ 0000000180069ce0     libucrt:lcidtoname_downlevel.obj
 0002:0000bcf0       ??_C@_1M@EANAGDL@?$AAn?$AAb?$AA?9?$AAN?$AAO@ 0000000180069cf0     libucrt:lcidtoname_downlevel.obj
 0002:0000bd00       ??_C@_1M@NEIEMEGP@?$AAp?$AAl?$AA?9?$AAP?$AAL@ 0000000180069d00     libucrt:lcidtoname_downlevel.obj
 0002:0000bd10       ??_C@_1M@BOCFIGEP@?$AAp?$AAt?$AA?9?$AAB?$AAR@ 0000000180069d10     libucrt:lcidtoname_downlevel.obj
 0002:0000bd20       ??_C@_1M@IMPFOPBG@?$AAr?$AAo?$AA?9?$AAR?$AAO@ 0000000180069d20     libucrt:lcidtoname_downlevel.obj
 0002:0000bd30       ??_C@_1M@IDNNEJMM@?$AAr?$AAu?$AA?9?$AAR?$AAU@ 0000000180069d30     libucrt:lcidtoname_downlevel.obj
 0002:0000bd40       ??_C@_1M@LILEEOGM@?$AAh?$AAr?$AA?9?$AAH?$AAR@ 0000000180069d40     libucrt:lcidtoname_downlevel.obj
 0002:0000bd50       ??_C@_1M@FKIFEHPB@?$AAs?$AAk?$AA?9?$AAS?$AAK@ 0000000180069d50     libucrt:lcidtoname_downlevel.obj
 0002:0000bd60       ??_C@_1M@LJMAMNPJ@?$AAs?$AAq?$AA?9?$AAA?$AAL@ 0000000180069d60     libucrt:lcidtoname_downlevel.obj
 0002:0000bd70       ??_C@_1M@GIAKDKJK@?$AAs?$AAv?$AA?9?$AAS?$AAE@ 0000000180069d70     libucrt:lcidtoname_downlevel.obj
 0002:0000bd80       ??_C@_1M@MKJKIKCL@?$AAt?$AAh?$AA?9?$AAT?$AAH@ 0000000180069d80     libucrt:lcidtoname_downlevel.obj
 0002:0000bd90       ??_C@_1M@MFLCCMPB@?$AAt?$AAr?$AA?9?$AAT?$AAR@ 0000000180069d90     libucrt:lcidtoname_downlevel.obj
 0002:0000bda0       ??_C@_1M@OIJHDKJN@?$AAu?$AAr?$AA?9?$AAP?$AAK@ 0000000180069da0     libucrt:lcidtoname_downlevel.obj
 0002:0000bdb0       ??_C@_1M@LHIPCIEK@?$AAi?$AAd?$AA?9?$AAI?$AAD@ 0000000180069db0     libucrt:lcidtoname_downlevel.obj
 0002:0000bdc0       ??_C@_1M@MFMOBGI@?$AAu?$AAk?$AA?9?$AAU?$AAA@ 0000000180069dc0     libucrt:lcidtoname_downlevel.obj
 0002:0000bdd0       ??_C@_1M@OBGLJIPL@?$AAb?$AAe?$AA?9?$AAB?$AAY@ 0000000180069dd0     libucrt:lcidtoname_downlevel.obj
 0002:0000bde0       ??_C@_1M@BCFAJEAD@?$AAs?$AAl?$AA?9?$AAS?$AAI@ 0000000180069de0     libucrt:lcidtoname_downlevel.obj
 0002:0000bdf0       ??_C@_1M@FKFFEDDN@?$AAe?$AAt?$AA?9?$AAE?$AAE@ 0000000180069df0     libucrt:lcidtoname_downlevel.obj
 0002:0000be00       ??_C@_1M@KGKKAACI@?$AAl?$AAv?$AA?9?$AAL?$AAV@ 0000000180069e00     libucrt:lcidtoname_downlevel.obj
 0002:0000be10       ??_C@_1M@IFGBIJO@?$AAl?$AAt?$AA?9?$AAL?$AAT@ 0000000180069e10     libucrt:lcidtoname_downlevel.obj
 0002:0000be20       ??_C@_1M@FGEAHEDM@?$AAf?$AAa?$AA?9?$AAI?$AAR@ 0000000180069e20     libucrt:lcidtoname_downlevel.obj
 0002:0000be30       ??_C@_1M@KBMAIBFN@?$AAv?$AAi?$AA?9?$AAV?$AAN@ 0000000180069e30     libucrt:lcidtoname_downlevel.obj
 0002:0000be40       ??_C@_1M@GPCBKDJK@?$AAh?$AAy?$AA?9?$AAA?$AAM@ 0000000180069e40     libucrt:lcidtoname_downlevel.obj
 0002:0000be50       ??_C@_1BG@BECMDDJB@?$AAa?$AAz?$AA?9?$AAA?$AAZ?$AA?9?$AAL?$AAa?$AAt?$AAn@ 0000000180069e50     libucrt:lcidtoname_downlevel.obj
 0002:0000be68       ??_C@_1M@MAOFCAEA@?$AAe?$AAu?$AA?9?$AAE?$AAS@ 0000000180069e68     libucrt:lcidtoname_downlevel.obj
 0002:0000be78       ??_C@_1M@IGHABKPI@?$AAm?$AAk?$AA?9?$AAM?$AAK@ 0000000180069e78     libucrt:lcidtoname_downlevel.obj
 0002:0000be88       ??_C@_1M@IAIGNEJG@?$AAt?$AAn?$AA?9?$AAZ?$AAA@ 0000000180069e88     libucrt:lcidtoname_downlevel.obj
 0002:0000be98       ??_C@_1M@IIJCOJFA@?$AAx?$AAh?$AA?9?$AAZ?$AAA@ 0000000180069e98     libucrt:lcidtoname_downlevel.obj
 0002:0000bea8       ??_C@_1M@LGPJHNJH@?$AAz?$AAu?$AA?9?$AAZ?$AAA@ 0000000180069ea8     libucrt:lcidtoname_downlevel.obj
 0002:0000beb8       ??_C@_1M@HOKAOIO@?$AAa?$AAf?$AA?9?$AAZ?$AAA@ 0000000180069eb8     libucrt:lcidtoname_downlevel.obj
 0002:0000bec8       ??_C@_1M@DPCLHLIE@?$AAk?$AAa?$AA?9?$AAG?$AAE@ 0000000180069ec8     libucrt:lcidtoname_downlevel.obj
 0002:0000bed8       ??_C@_1M@BLKMHJBI@?$AAf?$AAo?$AA?9?$AAF?$AAO@ 0000000180069ed8     libucrt:lcidtoname_downlevel.obj
 0002:0000bee8       ??_C@_1M@LGGJAPPB@?$AAh?$AAi?$AA?9?$AAI?$AAN@ 0000000180069ee8     libucrt:lcidtoname_downlevel.obj
 0002:0000bef8       ??_C@_1M@FIKPIHFE@?$AAm?$AAt?$AA?9?$AAM?$AAT@ 0000000180069ef8     libucrt:lcidtoname_downlevel.obj
 0002:0000bf08       ??_C@_1M@HEGGPBFA@?$AAs?$AAe?$AA?9?$AAN?$AAO@ 0000000180069f08     libucrt:lcidtoname_downlevel.obj
 0002:0000bf18       ??_C@_1M@EIBJEEPA@?$AAm?$AAs?$AA?9?$AAM?$AAY@ 0000000180069f18     libucrt:lcidtoname_downlevel.obj
 0002:0000bf28       ??_C@_1M@FHLBGMPP@?$AAk?$AAk?$AA?9?$AAK?$AAZ@ 0000000180069f28     libucrt:lcidtoname_downlevel.obj
 0002:0000bf38       ??_C@_1M@NGJJLCGI@?$AAk?$AAy?$AA?9?$AAK?$AAG@ 0000000180069f38     libucrt:lcidtoname_downlevel.obj
 0002:0000bf48       ??_C@_1M@GIENNBFC@?$AAs?$AAw?$AA?9?$AAK?$AAE@ 0000000180069f48     libucrt:lcidtoname_downlevel.obj
 0002:0000bf58       ??_C@_1BG@NDGMJIMJ@?$AAu?$AAz?$AA?9?$AAU?$AAZ?$AA?9?$AAL?$AAa?$AAt?$AAn@ 0000000180069f58     libucrt:lcidtoname_downlevel.obj
 0002:0000bf70       ??_C@_1M@IDCCIHBC@?$AAt?$AAt?$AA?9?$AAR?$AAU@ 0000000180069f70     libucrt:lcidtoname_downlevel.obj
 0002:0000bf80       ??_C@_1M@LOICPMOJ@?$AAb?$AAn?$AA?9?$AAI?$AAN@ 0000000180069f80     libucrt:lcidtoname_downlevel.obj
 0002:0000bf90       ??_C@_1M@KPKKNEAH@?$AAp?$AAa?$AA?9?$AAI?$AAN@ 0000000180069f90     libucrt:lcidtoname_downlevel.obj
 0002:0000bfa0       ??_C@_1M@PJGPPBOG@?$AAg?$AAu?$AA?9?$AAI?$AAN@ 0000000180069fa0     libucrt:lcidtoname_downlevel.obj
 0002:0000bfb0       ??_C@_1M@KMKMOPHI@?$AAt?$AAa?$AA?9?$AAI?$AAN@ 0000000180069fb0     libucrt:lcidtoname_downlevel.obj
 0002:0000bfc0       ??_C@_1M@KFEHEPAC@?$AAt?$AAe?$AA?9?$AAI?$AAN@ 0000000180069fc0     libucrt:lcidtoname_downlevel.obj
 0002:0000bfd0       ??_C@_1M@CDCLMGHI@?$AAk?$AAn?$AA?9?$AAI?$AAN@ 0000000180069fd0     libucrt:lcidtoname_downlevel.obj
 0002:0000bfe0       ??_C@_1M@MIODLDKF@?$AAm?$AAl?$AA?9?$AAI?$AAN@ 0000000180069fe0     libucrt:lcidtoname_downlevel.obj
 0002:0000bff0       ??_C@_1M@PBIEACPO@?$AAm?$AAr?$AA?9?$AAI?$AAN@ 0000000180069ff0     libucrt:lcidtoname_downlevel.obj
 0002:0000c000       ??_C@_1M@NIDEAGPH@?$AAs?$AAa?$AA?9?$AAI?$AAN@ 000000018006a000     libucrt:lcidtoname_downlevel.obj
 0002:0000c010       ??_C@_1M@FHIHCBIO@?$AAm?$AAn?$AA?9?$AAM?$AAN@ 000000018006a010     libucrt:lcidtoname_downlevel.obj
 0002:0000c020       ??_C@_1M@JAIJPENP@?$AAc?$AAy?$AA?9?$AAG?$AAB@ 000000018006a020     libucrt:lcidtoname_downlevel.obj
 0002:0000c030       ??_C@_1M@PHGFBEPN@?$AAg?$AAl?$AA?9?$AAE?$AAS@ 000000018006a030     libucrt:lcidtoname_downlevel.obj
 0002:0000c040       ??_C@_1O@KPIPDNCP@?$AAk?$AAo?$AAk?$AA?9?$AAI?$AAN@ 000000018006a040     libucrt:lcidtoname_downlevel.obj
 0002:0000c050       ??_C@_1O@KNHJLDJA@?$AAs?$AAy?$AAr?$AA?9?$AAS?$AAY@ 000000018006a050     libucrt:lcidtoname_downlevel.obj
 0002:0000c060       ??_C@_1O@MKEKBLAH@?$AAd?$AAi?$AAv?$AA?9?$AAM?$AAV@ 000000018006a060     libucrt:lcidtoname_downlevel.obj
 0002:0000c070       ??_C@_1O@OHDCKDDF@?$AAq?$AAu?$AAz?$AA?9?$AAB?$AAO@ 000000018006a070     libucrt:lcidtoname_downlevel.obj
 0002:0000c080       ??_C@_1M@LEPJNLFD@?$AAn?$AAs?$AA?9?$AAZ?$AAA@ 000000018006a080     libucrt:lcidtoname_downlevel.obj
 0002:0000c090       ??_C@_1M@OMLEIIJB@?$AAm?$AAi?$AA?9?$AAN?$AAZ@ 000000018006a090     libucrt:lcidtoname_downlevel.obj
 0002:0000c0a0       ??_C@_1M@PMPEAILG@?$AAa?$AAr?$AA?9?$AAI?$AAQ@ 000000018006a0a0     libucrt:lcidtoname_downlevel.obj
 0002:0000c0b0       ??_C@_1M@CNKPNOEE@?$AAd?$AAe?$AA?9?$AAC?$AAH@ 000000018006a0b0     libucrt:lcidtoname_downlevel.obj
 0002:0000c0c0       ??_C@_1M@LKMGMLKO@?$AAe?$AAn?$AA?9?$AAG?$AAB@ 000000018006a0c0     libucrt:lcidtoname_downlevel.obj
 0002:0000c0d0       ??_C@_1M@PGKJFFGL@?$AAe?$AAs?$AA?9?$AAM?$AAX@ 000000018006a0d0     libucrt:lcidtoname_downlevel.obj
 0002:0000c0e0       ??_C@_1M@DNNANBDC@?$AAf?$AAr?$AA?9?$AAB?$AAE@ 000000018006a0e0     libucrt:lcidtoname_downlevel.obj
 0002:0000c0f0       ??_C@_1M@HLGMDFHM@?$AAi?$AAt?$AA?9?$AAC?$AAH@ 000000018006a0f0     libucrt:lcidtoname_downlevel.obj
 0002:0000c100       ??_C@_1M@CLLBGJH@?$AAn?$AAl?$AA?9?$AAB?$AAE@ 000000018006a100     libucrt:lcidtoname_downlevel.obj
 0002:0000c110       ??_C@_1M@BODBOGLF@?$AAn?$AAn?$AA?9?$AAN?$AAO@ 000000018006a110     libucrt:lcidtoname_downlevel.obj
 0002:0000c120       ??_C@_1M@HFFAHKAD@?$AAp?$AAt?$AA?9?$AAP?$AAT@ 000000018006a120     libucrt:lcidtoname_downlevel.obj
 0002:0000c130       ??_C@_1BG@LNOAKHIE@?$AAs?$AAr?$AA?9?$AAS?$AAP?$AA?9?$AAL?$AAa?$AAt?$AAn@ 000000018006a130     libucrt:lcidtoname_downlevel.obj
 0002:0000c148       ??_C@_1M@HBMHBGAK@?$AAs?$AAv?$AA?9?$AAF?$AAI@ 000000018006a148     libucrt:lcidtoname_downlevel.obj
 0002:0000c158       ??_C@_1BG@DGCJGJBE@?$AAa?$AAz?$AA?9?$AAA?$AAZ?$AA?9?$AAC?$AAy?$AAr?$AAl@ 000000018006a158     libucrt:lcidtoname_downlevel.obj
 0002:0000c170       ??_C@_1M@KEJDAAHB@?$AAs?$AAe?$AA?9?$AAS?$AAE@ 000000018006a170     libucrt:lcidtoname_downlevel.obj
 0002:0000c180       ??_C@_1M@HEIBJJAD@?$AAm?$AAs?$AA?9?$AAB?$AAN@ 000000018006a180     libucrt:lcidtoname_downlevel.obj
 0002:0000c190       ??_C@_1BG@PBGJMCEM@?$AAu?$AAz?$AA?9?$AAU?$AAZ?$AA?9?$AAC?$AAy?$AAr?$AAl@ 000000018006a190     libucrt:lcidtoname_downlevel.obj
 0002:0000c1a8       ??_C@_1O@LAOBCMDF@?$AAq?$AAu?$AAz?$AA?9?$AAE?$AAC@ 000000018006a1a8     libucrt:lcidtoname_downlevel.obj
 0002:0000c1b8       ??_C@_1M@POEEMAIO@?$AAa?$AAr?$AA?9?$AAE?$AAG@ 000000018006a1b8     libucrt:lcidtoname_downlevel.obj
 0002:0000c1c8       ??_C@_1M@EFAKDEDL@?$AAz?$AAh?$AA?9?$AAH?$AAK@ 000000018006a1c8     libucrt:lcidtoname_downlevel.obj
 0002:0000c1d8       ??_C@_1M@HKKIJHGI@?$AAd?$AAe?$AA?9?$AAA?$AAT@ 000000018006a1d8     libucrt:lcidtoname_downlevel.obj
 0002:0000c1e8       ??_C@_1M@KBFBEHJF@?$AAe?$AAn?$AA?9?$AAA?$AAU@ 000000018006a1e8     libucrt:lcidtoname_downlevel.obj
 0002:0000c1f8       ??_C@_1M@MNPLFAAH@?$AAe?$AAs?$AA?9?$AAE?$AAS@ 000000018006a1f8     libucrt:lcidtoname_downlevel.obj
 0002:0000c208       ??_C@_1M@HJOOJFMA@?$AAf?$AAr?$AA?9?$AAC?$AAA@ 000000018006a208     libucrt:lcidtoname_downlevel.obj
 0002:0000c218       ??_C@_1BG@JPOFPNAB@?$AAs?$AAr?$AA?9?$AAS?$AAP?$AA?9?$AAC?$AAy?$AAr?$AAl@ 000000018006a218     libucrt:lcidtoname_downlevel.obj
 0002:0000c230       ??_C@_1M@LNFOCMOB@?$AAs?$AAe?$AA?9?$AAF?$AAI@ 000000018006a230     libucrt:lcidtoname_downlevel.obj
 0002:0000c240       ??_C@_1O@MGJBOAMB@?$AAq?$AAu?$AAz?$AA?9?$AAP?$AAE@ 000000018006a240     libucrt:lcidtoname_downlevel.obj
 0002:0000c250       ??_C@_1M@GJINLBOK@?$AAa?$AAr?$AA?9?$AAL?$AAY@ 000000018006a250     libucrt:lcidtoname_downlevel.obj
 0002:0000c260       ??_C@_1M@GGMNHJNL@?$AAz?$AAh?$AA?9?$AAS?$AAG@ 000000018006a260     libucrt:lcidtoname_downlevel.obj
 0002:0000c270       ??_C@_1M@HOIKODND@?$AAd?$AAe?$AA?9?$AAL?$AAU@ 000000018006a270     libucrt:lcidtoname_downlevel.obj
 0002:0000c280       ??_C@_1M@DDOCCGFG@?$AAe?$AAn?$AA?9?$AAC?$AAA@ 000000018006a280     libucrt:lcidtoname_downlevel.obj
 0002:0000c290       ??_C@_1M@BNOEMJLF@?$AAe?$AAs?$AA?9?$AAG?$AAT@ 000000018006a290     libucrt:lcidtoname_downlevel.obj
 0002:0000c2a0       ??_C@_1M@EOGNKEK@?$AAf?$AAr?$AA?9?$AAC?$AAH@ 000000018006a2a0     libucrt:lcidtoname_downlevel.obj
 0002:0000c2b0       ??_C@_1M@FLIDJFHL@?$AAh?$AAr?$AA?9?$AAB?$AAA@ 000000018006a2b0     libucrt:lcidtoname_downlevel.obj
 0002:0000c2c0       ??_C@_1O@FMCELNAJ@?$AAs?$AAm?$AAj?$AA?9?$AAN?$AAO@ 000000018006a2c0     libucrt:lcidtoname_downlevel.obj
 0002:0000c2d0       ??_C@_1M@JHGLJMGJ@?$AAa?$AAr?$AA?9?$AAD?$AAZ@ 000000018006a2d0     libucrt:lcidtoname_downlevel.obj
 0002:0000c2e0       ??_C@_1M@JKKFDCNP@?$AAz?$AAh?$AA?9?$AAM?$AAO@ 000000018006a2e0     libucrt:lcidtoname_downlevel.obj
 0002:0000c2f0       ??_C@_1M@GEEFALPE@?$AAd?$AAe?$AA?9?$AAL?$AAI@ 000000018006a2f0     libucrt:lcidtoname_downlevel.obj
 0002:0000c300       ??_C@_1M@IGEOFBG@?$AAe?$AAn?$AA?9?$AAN?$AAZ@ 000000018006a300     libucrt:lcidtoname_downlevel.obj
 0002:0000c310       ??_C@_1M@KDBONEHP@?$AAe?$AAs?$AA?9?$AAC?$AAR@ 000000018006a310     libucrt:lcidtoname_downlevel.obj
 0002:0000c320       ??_C@_1M@FHMDOHNN@?$AAf?$AAr?$AA?9?$AAL?$AAU@ 000000018006a320     libucrt:lcidtoname_downlevel.obj
 0002:0000c330       ??_C@_1BG@NFKKMAFG@?$AAb?$AAs?$AA?9?$AAB?$AAA?$AA?9?$AAL?$AAa?$AAt?$AAn@ 000000018006a330     libucrt:lcidtoname_downlevel.obj
 0002:0000c348       ??_C@_1O@IMNBEMCI@?$AAs?$AAm?$AAj?$AA?9?$AAS?$AAE@ 000000018006a348     libucrt:lcidtoname_downlevel.obj
 0002:0000c358       ??_C@_1M@DHHMBNDP@?$AAa?$AAr?$AA?9?$AAM?$AAA@ 000000018006a358     libucrt:lcidtoname_downlevel.obj
 0002:0000c368       ??_C@_1M@BNBLJCGH@?$AAe?$AAn?$AA?9?$AAI?$AAE@ 000000018006a368     libucrt:lcidtoname_downlevel.obj
 0002:0000c378       ??_C@_1M@GEPAFMDL@?$AAe?$AAs?$AA?9?$AAP?$AAA@ 000000018006a378     libucrt:lcidtoname_downlevel.obj
 0002:0000c388       ??_C@_1M@OJONDMDL@?$AAf?$AAr?$AA?9?$AAM?$AAC@ 000000018006a388     libucrt:lcidtoname_downlevel.obj
 0002:0000c398       ??_C@_1BG@OBCNFJB@?$AAs?$AAr?$AA?9?$AAB?$AAA?$AA?9?$AAL?$AAa?$AAt?$AAn@ 000000018006a398     libucrt:lcidtoname_downlevel.obj
 0002:0000c3b0       ??_C@_1O@KEMEEGPO@?$AAs?$AAm?$AAa?$AA?9?$AAN?$AAO@ 000000018006a3b0     libucrt:lcidtoname_downlevel.obj
 0002:0000c3c0       ??_C@_1M@ELMGFODK@?$AAa?$AAr?$AA?9?$AAT?$AAN@ 000000018006a3c0     libucrt:lcidtoname_downlevel.obj
 0002:0000c3d0       ??_C@_1M@BHDLHFAF@?$AAe?$AAn?$AA?9?$AAZ?$AAA@ 000000018006a3d0     libucrt:lcidtoname_downlevel.obj
 0002:0000c3e0       ??_C@_1M@BMGIGLIF@?$AAe?$AAs?$AA?9?$AAD?$AAO@ 000000018006a3e0     libucrt:lcidtoname_downlevel.obj
 0002:0000c3f0       ??_C@_1BG@CMBHIPBE@?$AAs?$AAr?$AA?9?$AAB?$AAA?$AA?9?$AAC?$AAy?$AAr?$AAl@ 000000018006a3f0     libucrt:lcidtoname_downlevel.obj
 0002:0000c408       ??_C@_1O@HEDBLHNP@?$AAs?$AAm?$AAa?$AA?9?$AAS?$AAE@ 000000018006a408     libucrt:lcidtoname_downlevel.obj
 0002:0000c418       ??_C@_1M@DAGCADIM@?$AAa?$AAr?$AA?9?$AAO?$AAM@ 000000018006a418     libucrt:lcidtoname_downlevel.obj
 0002:0000c428       ??_C@_1M@FODLMICG@?$AAe?$AAn?$AA?9?$AAJ?$AAM@ 000000018006a428     libucrt:lcidtoname_downlevel.obj
 0002:0000c438       ??_C@_1M@DNMLCIHB@?$AAe?$AAs?$AA?9?$AAV?$AAE@ 000000018006a438     libucrt:lcidtoname_downlevel.obj
 0002:0000c448       ??_C@_1O@EOKHMKJK@?$AAs?$AAm?$AAs?$AA?9?$AAF?$AAI@ 000000018006a448     libucrt:lcidtoname_downlevel.obj
 0002:0000c458       ??_C@_1M@CAFJMKOF@?$AAa?$AAr?$AA?9?$AAY?$AAE@ 000000018006a458     libucrt:lcidtoname_downlevel.obj
 0002:0000c468       ??_C@_1M@CBFHIJLI@?$AAe?$AAn?$AA?9?$AAC?$AAB@ 000000018006a468     libucrt:lcidtoname_downlevel.obj
 0002:0000c478       ??_C@_1M@BGNFLDN@?$AAe?$AAs?$AA?9?$AAC?$AAO@ 000000018006a478     libucrt:lcidtoname_downlevel.obj
 0002:0000c488       ??_C@_1O@JMPHMAMC@?$AAs?$AAm?$AAn?$AA?9?$AAF?$AAI@ 000000018006a488     libucrt:lcidtoname_downlevel.obj
 0002:0000c498       ??_C@_1M@JLANABKE@?$AAa?$AAr?$AA?9?$AAS?$AAY@ 000000018006a498     libucrt:lcidtoname_downlevel.obj
 0002:0000c4a8       ??_C@_1M@HPKGCFGN@?$AAe?$AAn?$AA?9?$AAB?$AAZ@ 000000018006a4a8     libucrt:lcidtoname_downlevel.obj
 0002:0000c4b8       ??_C@_1M@OLJCMLGM@?$AAe?$AAs?$AA?9?$AAP?$AAE@ 000000018006a4b8     libucrt:lcidtoname_downlevel.obj
 0002:0000c4c8       ??_C@_1M@MKKGFKLE@?$AAa?$AAr?$AA?9?$AAJ?$AAO@ 000000018006a4c8     libucrt:lcidtoname_downlevel.obj
 0002:0000c4d8       ??_C@_1M@EKPGLDNI@?$AAe?$AAn?$AA?9?$AAT?$AAT@ 000000018006a4d8     libucrt:lcidtoname_downlevel.obj
 0002:0000c4e8       ??_C@_1M@OONGHFHE@?$AAe?$AAs?$AA?9?$AAA?$AAR@ 000000018006a4e8     libucrt:lcidtoname_downlevel.obj
 0002:0000c4f8       ??_C@_1M@OOJFGBHE@?$AAa?$AAr?$AA?9?$AAL?$AAB@ 000000018006a4f8     libucrt:lcidtoname_downlevel.obj
 0002:0000c508       ??_C@_1M@GCEJHNEG@?$AAe?$AAn?$AA?9?$AAZ?$AAW@ 000000018006a508     libucrt:lcidtoname_downlevel.obj
 0002:0000c518       ??_C@_1M@JNOCAHJI@?$AAe?$AAs?$AA?9?$AAE?$AAC@ 000000018006a518     libucrt:lcidtoname_downlevel.obj
 0002:0000c528       ??_C@_1M@JEFHPGGB@?$AAa?$AAr?$AA?9?$AAK?$AAW@ 000000018006a528     libucrt:lcidtoname_downlevel.obj
 0002:0000c538       ??_C@_1M@MLKIBJOJ@?$AAe?$AAn?$AA?9?$AAP?$AAH@ 000000018006a538     libucrt:lcidtoname_downlevel.obj
 0002:0000c548       ??_C@_1M@BDNIPEND@?$AAe?$AAs?$AA?9?$AAC?$AAL@ 000000018006a548     libucrt:lcidtoname_downlevel.obj
 0002:0000c558       ??_C@_1M@MPNMEKBD@?$AAa?$AAr?$AA?9?$AAA?$AAE@ 000000018006a558     libucrt:lcidtoname_downlevel.obj
 0002:0000c568       ??_C@_1M@KBJALCPI@?$AAe?$AAs?$AA?9?$AAU?$AAY@ 000000018006a568     libucrt:lcidtoname_downlevel.obj
 0002:0000c578       ??_C@_1M@LLCCOAGA@?$AAa?$AAr?$AA?9?$AAB?$AAH@ 000000018006a578     libucrt:lcidtoname_downlevel.obj
 0002:0000c588       ??_C@_1M@PBFNCDEL@?$AAe?$AAs?$AA?9?$AAP?$AAY@ 000000018006a588     libucrt:lcidtoname_downlevel.obj
 0002:0000c598       ??_C@_1M@EDGINPNP@?$AAa?$AAr?$AA?9?$AAQ?$AAA@ 000000018006a598     libucrt:lcidtoname_downlevel.obj
 0002:0000c5a8       ??_C@_1M@MKDBIIJI@?$AAe?$AAs?$AA?9?$AAB?$AAO@ 000000018006a5a8     libucrt:lcidtoname_downlevel.obj
 0002:0000c5b8       ??_C@_1M@CPKKEBLD@?$AAe?$AAs?$AA?9?$AAS?$AAV@ 000000018006a5b8     libucrt:lcidtoname_downlevel.obj
 0002:0000c5c8       ??_C@_1M@NDBGMMJL@?$AAe?$AAs?$AA?9?$AAH?$AAN@ 000000018006a5c8     libucrt:lcidtoname_downlevel.obj
 0002:0000c5d8       ??_C@_1M@JIJIBHDP@?$AAe?$AAs?$AA?9?$AAN?$AAI@ 000000018006a5d8     libucrt:lcidtoname_downlevel.obj
 0002:0000c5e8       ??_C@_1M@CGFMKEEK@?$AAe?$AAs?$AA?9?$AAP?$AAR@ 000000018006a5e8     libucrt:lcidtoname_downlevel.obj
 0002:0000c5f8       ??_C@_1O@ICJHKIIK@?$AAz?$AAh?$AA?9?$AAC?$AAH?$AAT@ 000000018006a5f8     libucrt:lcidtoname_downlevel.obj
 0002:0000c608       ??_C@_15CLNEJCE@?$AAs?$AAr@ 000000018006a608     libucrt:lcidtoname_downlevel.obj
 0002:0000d450       ??_C@_1M@KAHEKEIG@?$AAa?$AAf?$AA?9?$AAz?$AAa@ 000000018006b450     libucrt:lcidtoname_downlevel.obj
 0002:0000d460       ??_C@_1M@GIECOABL@?$AAa?$AAr?$AA?9?$AAa?$AAe@ 000000018006b460     libucrt:lcidtoname_downlevel.obj
 0002:0000d470       ??_C@_1M@BMLMEKGI@?$AAa?$AAr?$AA?9?$AAb?$AAh@ 000000018006b470     libucrt:lcidtoname_downlevel.obj
 0002:0000d480       ??_C@_1M@DAPFDGGB@?$AAa?$AAr?$AA?9?$AAd?$AAz@ 000000018006b480     libucrt:lcidtoname_downlevel.obj
 0002:0000d490       ??_C@_1M@FJNKGKIG@?$AAa?$AAr?$AA?9?$AAe?$AAg@ 000000018006b490     libucrt:lcidtoname_downlevel.obj
 0002:0000d4a0       ??_C@_1M@FLGKKCLO@?$AAa?$AAr?$AA?9?$AAi?$AAq@ 000000018006b4a0     libucrt:lcidtoname_downlevel.obj
 0002:0000d4b0       ??_C@_1M@GNDIPALM@?$AAa?$AAr?$AA?9?$AAj?$AAo@ 000000018006b4b0     libucrt:lcidtoname_downlevel.obj
 0002:0000d4c0       ??_C@_1M@DDMJFMGJ@?$AAa?$AAr?$AA?9?$AAk?$AAw@ 000000018006b4c0     libucrt:lcidtoname_downlevel.obj
 0002:0000d4d0       ??_C@_1M@EJALMLHM@?$AAa?$AAr?$AA?9?$AAl?$AAb@ 000000018006b4d0     libucrt:lcidtoname_downlevel.obj
 0002:0000d4e0       ??_C@_1M@MOBDBLOC@?$AAa?$AAr?$AA?9?$AAl?$AAy@ 000000018006b4e0     libucrt:lcidtoname_downlevel.obj
 0002:0000d4f0       ??_C@_1M@JAOCLHDH@?$AAa?$AAr?$AA?9?$AAm?$AAa@ 000000018006b4f0     libucrt:lcidtoname_downlevel.obj
 0002:0000d500       ??_C@_1M@JHPMKJIE@?$AAa?$AAr?$AA?9?$AAo?$AAm@ 000000018006b500     libucrt:lcidtoname_downlevel.obj
 0002:0000d510       ??_C@_1M@OEPGHFNH@?$AAa?$AAr?$AA?9?$AAq?$AAa@ 000000018006b510     libucrt:lcidtoname_downlevel.obj
 0002:0000d520       ??_C@_1M@KJDONENM@?$AAa?$AAr?$AA?9?$AAs?$AAa@ 000000018006b520     libucrt:lcidtoname_downlevel.obj
 0002:0000d530       ??_C@_1M@DMJDKLKM@?$AAa?$AAr?$AA?9?$AAs?$AAy@ 000000018006b530     libucrt:lcidtoname_downlevel.obj
 0002:0000d540       ??_C@_1M@OMFIPEDC@?$AAa?$AAr?$AA?9?$AAt?$AAn@ 000000018006b540     libucrt:lcidtoname_downlevel.obj
 0002:0000d550       ??_C@_1M@IHMHGAON@?$AAa?$AAr?$AA?9?$AAy?$AAe@ 000000018006b550     libucrt:lcidtoname_downlevel.obj
 0002:0000d560       ??_C@_1BG@KDCPGJGB@?$AAa?$AAz?$AA?9?$AAa?$AAz?$AA?9?$AAc?$AAy?$AAr?$AAl@ 000000018006b560     libucrt:lcidtoname_downlevel.obj
 0002:0000d578       ??_C@_1BG@IBCKDDOE@?$AAa?$AAz?$AA?9?$AAa?$AAz?$AA?9?$AAl?$AAa?$AAt?$AAn@ 000000018006b578     libucrt:lcidtoname_downlevel.obj
 0002:0000d590       ??_C@_1M@EGPFDCPD@?$AAb?$AAe?$AA?9?$AAb?$AAy@ 000000018006b590     libucrt:lcidtoname_downlevel.obj
 0002:0000d5a0       ??_C@_1M@PCMGMCGC@?$AAb?$AAg?$AA?9?$AAb?$AAg@ 000000018006b5a0     libucrt:lcidtoname_downlevel.obj
 0002:0000d5b0       ??_C@_1M@BJBMFGOB@?$AAb?$AAn?$AA?9?$AAi?$AAn@ 000000018006b5b0     libucrt:lcidtoname_downlevel.obj
 0002:0000d5c0       ??_C@_1BG@EAKMMACD@?$AAb?$AAs?$AA?9?$AAb?$AAa?$AA?9?$AAl?$AAa?$AAt?$AAn@ 000000018006b5c0     libucrt:lcidtoname_downlevel.obj
 0002:0000d5d8       ??_C@_1M@KGADAODK@?$AAc?$AAa?$AA?9?$AAe?$AAs@ 000000018006b5d8     libucrt:lcidtoname_downlevel.obj
 0002:0000d5e8       ??_C@_1M@COAJPDHI@?$AAc?$AAs?$AA?9?$AAc?$AAz@ 000000018006b5e8     libucrt:lcidtoname_downlevel.obj
 0002:0000d5f8       ??_C@_1M@DHBHFONH@?$AAc?$AAy?$AA?9?$AAg?$AAb@ 000000018006b5f8     libucrt:lcidtoname_downlevel.obj
 0002:0000d608       ??_C@_1M@IMGKELGA@?$AAd?$AAa?$AA?9?$AAd?$AAk@ 000000018006b608     libucrt:lcidtoname_downlevel.obj
 0002:0000d618       ??_C@_1M@NNDGDNGA@?$AAd?$AAe?$AA?9?$AAa?$AAt@ 000000018006b618     libucrt:lcidtoname_downlevel.obj
 0002:0000d628       ??_C@_1M@IKDBHEEM@?$AAd?$AAe?$AA?9?$AAc?$AAh@ 000000018006b628     libucrt:lcidtoname_downlevel.obj
 0002:0000d638       ??_C@_1M@GFFOJMCJ@?$AAd?$AAe?$AA?9?$AAd?$AAe@ 000000018006b638     libucrt:lcidtoname_downlevel.obj
 0002:0000d648       ??_C@_1M@MDNLKBPM@?$AAd?$AAe?$AA?9?$AAl?$AAi@ 000000018006b648     libucrt:lcidtoname_downlevel.obj
 0002:0000d658       ??_C@_1M@NJBEEJNL@?$AAd?$AAe?$AA?9?$AAl?$AAu@ 000000018006b658     libucrt:lcidtoname_downlevel.obj
 0002:0000d668       ??_C@_1O@GNNELBAP@?$AAd?$AAi?$AAv?$AA?9?$AAm?$AAv@ 000000018006b668     libucrt:lcidtoname_downlevel.obj
 0002:0000d678       ??_C@_1M@EJLEOGAE@?$AAe?$AAl?$AA?9?$AAg?$AAr@ 000000018006b678     libucrt:lcidtoname_downlevel.obj
 0002:0000d688       ??_C@_1M@GMPONJN@?$AAe?$AAn?$AA?9?$AAa?$AAu@ 000000018006b688     libucrt:lcidtoname_downlevel.obj
 0002:0000d698       ??_C@_1M@NIDIIPGF@?$AAe?$AAn?$AA?9?$AAb?$AAz@ 000000018006b698     libucrt:lcidtoname_downlevel.obj
 0002:0000d6a8       ??_C@_1M@JEHMIMFO@?$AAe?$AAn?$AA?9?$AAc?$AAa@ 000000018006b6a8     libucrt:lcidtoname_downlevel.obj
 0002:0000d6b8       ??_C@_1M@IGMJCDLA@?$AAe?$AAn?$AA?9?$AAc?$AAb@ 000000018006b6b8     libucrt:lcidtoname_downlevel.obj
 0002:0000d6c8       ??_C@_1M@BNFIGBKG@?$AAe?$AAn?$AA?9?$AAg?$AAb@ 000000018006b6c8     libucrt:lcidtoname_downlevel.obj
 0002:0000d6d8       ??_C@_1M@LKIFDIGP@?$AAe?$AAn?$AA?9?$AAi?$AAe@ 000000018006b6d8     libucrt:lcidtoname_downlevel.obj
 0002:0000d6e8       ??_C@_1M@PJKFGCCO@?$AAe?$AAn?$AA?9?$AAj?$AAm@ 000000018006b6e8     libucrt:lcidtoname_downlevel.obj
 0002:0000d6f8       ??_C@_1M@KPPKEPBO@?$AAe?$AAn?$AA?9?$AAn?$AAz@ 000000018006b6f8     libucrt:lcidtoname_downlevel.obj
 0002:0000d708       ??_C@_1M@GMDGLDOB@?$AAe?$AAn?$AA?9?$AAp?$AAh@ 000000018006b708     libucrt:lcidtoname_downlevel.obj
 0002:0000d718       ??_C@_1M@ONGIBJNA@?$AAe?$AAn?$AA?9?$AAt?$AAt@ 000000018006b718     libucrt:lcidtoname_downlevel.obj
 0002:0000d728       ??_C@_1M@LLODPCMM@?$AAe?$AAn?$AA?9?$AAu?$AAs@ 000000018006b728     libucrt:lcidtoname_downlevel.obj
 0002:0000d738       ??_C@_1M@LAKFNPAN@?$AAe?$AAn?$AA?9?$AAz?$AAa@ 000000018006b738     libucrt:lcidtoname_downlevel.obj
 0002:0000d748       ??_C@_1M@MFNHNHEO@?$AAe?$AAn?$AA?9?$AAz?$AAw@ 000000018006b748     libucrt:lcidtoname_downlevel.obj
 0002:0000d758       ??_C@_1M@EJEINPHM@?$AAe?$AAs?$AA?9?$AAa?$AAr@ 000000018006b758     libucrt:lcidtoname_downlevel.obj
 0002:0000d768       ??_C@_1M@GNKPCCJA@?$AAe?$AAs?$AA?9?$AAb?$AAo@ 000000018006b768     libucrt:lcidtoname_downlevel.obj
 0002:0000d778       ??_C@_1M@LEEGFONL@?$AAe?$AAs?$AA?9?$AAc?$AAl@ 000000018006b778     libucrt:lcidtoname_downlevel.obj
 0002:0000d788       ??_C@_1M@KGPDPBDF@?$AAe?$AAs?$AA?9?$AAc?$AAo@ 000000018006b788     libucrt:lcidtoname_downlevel.obj
 0002:0000d798       ??_C@_1M@EIAHOHH@?$AAe?$AAs?$AA?9?$AAc?$AAr@ 000000018006b798     libucrt:lcidtoname_downlevel.obj
 0002:0000d7a8       ??_C@_1M@LLPGMBIN@?$AAe?$AAs?$AA?9?$AAd?$AAo@ 000000018006b7a8     libucrt:lcidtoname_downlevel.obj
 0002:0000d7b8       ??_C@_1M@DKHMKNJA@?$AAe?$AAs?$AA?9?$AAe?$AAc@ 000000018006b7b8     libucrt:lcidtoname_downlevel.obj
 0002:0000d7c8       ??_C@_1M@GKGFPKAP@?$AAe?$AAs?$AA?9?$AAe?$AAs@ 000000018006b7c8     libucrt:lcidtoname_downlevel.obj
 0002:0000d7d8       ??_C@_1M@LKHKGDLN@?$AAe?$AAs?$AA?9?$AAg?$AAt@ 000000018006b7d8     libucrt:lcidtoname_downlevel.obj
 0002:0000d7e8       ??_C@_1M@HEIIGGJD@?$AAe?$AAs?$AA?9?$AAh?$AAn@ 000000018006b7e8     libucrt:lcidtoname_downlevel.obj
 0002:0000d7f8       ??_C@_1M@FBDHPPGD@?$AAe?$AAs?$AA?9?$AAm?$AAx@ 000000018006b7f8     libucrt:lcidtoname_downlevel.obj
 0002:0000d808       ??_C@_1M@DPAGLNDH@?$AAe?$AAs?$AA?9?$AAn?$AAi@ 000000018006b808     libucrt:lcidtoname_downlevel.obj
 0002:0000d818       ??_C@_1M@MDGOPGDD@?$AAe?$AAs?$AA?9?$AAp?$AAa@ 000000018006b818     libucrt:lcidtoname_downlevel.obj
 0002:0000d828       ??_C@_1M@EMAMGBGE@?$AAe?$AAs?$AA?9?$AAp?$AAe@ 000000018006b828     libucrt:lcidtoname_downlevel.obj
 0002:0000d838       ??_C@_1M@IBMCAOEC@?$AAe?$AAs?$AA?9?$AAp?$AAr@ 000000018006b838     libucrt:lcidtoname_downlevel.obj
 0002:0000d848       ??_C@_1M@FGMDIJED@?$AAe?$AAs?$AA?9?$AAp?$AAy@ 000000018006b848     libucrt:lcidtoname_downlevel.obj
 0002:0000d858       ??_C@_1M@IIDEOLLL@?$AAe?$AAs?$AA?9?$AAs?$AAv@ 000000018006b858     libucrt:lcidtoname_downlevel.obj
 0002:0000d868       ??_C@_1M@GAOBIPA@?$AAe?$AAs?$AA?9?$AAu?$AAy@ 000000018006b868     libucrt:lcidtoname_downlevel.obj
 0002:0000d878       ??_C@_1M@JKFFICHJ@?$AAe?$AAs?$AA?9?$AAv?$AAe@ 000000018006b878     libucrt:lcidtoname_downlevel.obj
 0002:0000d888       ??_C@_1M@PNMLOJDF@?$AAe?$AAt?$AA?9?$AAe?$AAe@ 000000018006b888     libucrt:lcidtoname_downlevel.obj
 0002:0000d898       ??_C@_1M@GHHLIKEI@?$AAe?$AAu?$AA?9?$AAe?$AAs@ 000000018006b898     libucrt:lcidtoname_downlevel.obj
 0002:0000d8a8       ??_C@_1M@PBNONODE@?$AAf?$AAa?$AA?9?$AAi?$AAr@ 000000018006b8a8     libucrt:lcidtoname_downlevel.obj
 0002:0000d8b8       ??_C@_1M@JEEHPMIL@?$AAf?$AAi?$AA?9?$AAf?$AAi@ 000000018006b8b8     libucrt:lcidtoname_downlevel.obj
 0002:0000d8c8       ??_C@_1M@LMDCNDBA@?$AAf?$AAo?$AA?9?$AAf?$AAo@ 000000018006b8c8     libucrt:lcidtoname_downlevel.obj
 0002:0000d8d8       ??_C@_1M@JKEOHLDK@?$AAf?$AAr?$AA?9?$AAb?$AAe@ 000000018006b8d8     libucrt:lcidtoname_downlevel.obj
 0002:0000d8e8       ??_C@_1M@NOHADPMI@?$AAf?$AAr?$AA?9?$AAc?$AAa@ 000000018006b8e8     libucrt:lcidtoname_downlevel.obj
 0002:0000d8f8       ??_C@_1M@KDHIHAEC@?$AAf?$AAr?$AA?9?$AAc?$AAh@ 000000018006b8f8     libucrt:lcidtoname_downlevel.obj
 0002:0000d908       ??_C@_1M@MMBBFGAK@?$AAf?$AAr?$AA?9?$AAf?$AAr@ 000000018006b908     libucrt:lcidtoname_downlevel.obj
 0002:0000d918       ??_C@_1M@PAFNENNF@?$AAf?$AAr?$AA?9?$AAl?$AAu@ 000000018006b918     libucrt:lcidtoname_downlevel.obj
 0002:0000d928       ??_C@_1M@EOHDJGDD@?$AAf?$AAr?$AA?9?$AAm?$AAc@ 000000018006b928     libucrt:lcidtoname_downlevel.obj
 0002:0000d938       ??_C@_1M@FAPLLOPF@?$AAg?$AAl?$AA?9?$AAe?$AAs@ 000000018006b938     libucrt:lcidtoname_downlevel.obj
 0002:0000d948       ??_C@_1M@FOPBFLOO@?$AAg?$AAu?$AA?9?$AAi?$AAn@ 000000018006b948     libucrt:lcidtoname_downlevel.obj
 0002:0000d958       ??_C@_1M@KBMCINPM@?$AAh?$AAe?$AA?9?$AAi?$AAl@ 000000018006b958     libucrt:lcidtoname_downlevel.obj
 0002:0000d968       ??_C@_1M@BBPHKFPJ@?$AAh?$AAi?$AA?9?$AAi?$AAn@ 000000018006b968     libucrt:lcidtoname_downlevel.obj
 0002:0000d978       ??_C@_1M@PMBNDPHD@?$AAh?$AAr?$AA?9?$AAb?$AAa@ 000000018006b978     libucrt:lcidtoname_downlevel.obj
 0002:0000d988       ??_C@_1M@BPCKOEGE@?$AAh?$AAr?$AA?9?$AAh?$AAr@ 000000018006b988     libucrt:lcidtoname_downlevel.obj
 0002:0000d998       ??_C@_1M@GACBMHKE@?$AAh?$AAu?$AA?9?$AAh?$AAu@ 000000018006b998     libucrt:lcidtoname_downlevel.obj
 0002:0000d9a8       ??_C@_1M@MILPAJJC@?$AAh?$AAy?$AA?9?$AAa?$AAm@ 000000018006b9a8     libucrt:lcidtoname_downlevel.obj
 0002:0000d9b8       ??_C@_1M@BABBICEC@?$AAi?$AAd?$AA?9?$AAi?$AAd@ 000000018006b9b8     libucrt:lcidtoname_downlevel.obj
 0002:0000d9c8       ??_C@_1M@BIKNHHPF@?$AAi?$AAs?$AA?9?$AAi?$AAs@ 000000018006b9c8     libucrt:lcidtoname_downlevel.obj
 0002:0000d9d8       ??_C@_1M@NMPCJPHE@?$AAi?$AAt?$AA?9?$AAc?$AAh@ 000000018006b9d8     libucrt:lcidtoname_downlevel.obj
 0002:0000d9e8       ??_C@_1M@GHKGFEDF@?$AAi?$AAt?$AA?9?$AAi?$AAt@ 000000018006b9e8     libucrt:lcidtoname_downlevel.obj
 0002:0000d9f8       ??_C@_1M@NIEJCJJA@?$AAj?$AAa?$AA?9?$AAj?$AAp@ 000000018006b9f8     libucrt:lcidtoname_downlevel.obj
 0002:0000da08       ??_C@_1M@JILFNBIM@?$AAk?$AAa?$AA?9?$AAg?$AAe@ 000000018006ba08     libucrt:lcidtoname_downlevel.obj
 0002:0000da18       ??_C@_1M@PACPMGPH@?$AAk?$AAk?$AA?9?$AAk?$AAz@ 000000018006ba18     libucrt:lcidtoname_downlevel.obj
 0002:0000da28       ??_C@_1M@IELFGMHA@?$AAk?$AAn?$AA?9?$AAi?$AAn@ 000000018006ba28     libucrt:lcidtoname_downlevel.obj
 0002:0000da38       ??_C@_1O@IBBJHCH@?$AAk?$AAo?$AAk?$AA?9?$AAi?$AAn@ 000000018006ba38     libucrt:lcidtoname_downlevel.obj
 0002:0000da48       ??_C@_1M@DMHAEOGC@?$AAk?$AAo?$AA?9?$AAk?$AAr@ 000000018006ba48     libucrt:lcidtoname_downlevel.obj
 0002:0000da58       ??_C@_1M@HBAHBIGA@?$AAk?$AAy?$AA?9?$AAk?$AAg@ 000000018006ba58     libucrt:lcidtoname_downlevel.obj
 0002:0000da68       ??_C@_1M@KPMILCJG@?$AAl?$AAt?$AA?9?$AAl?$AAt@ 000000018006ba68     libucrt:lcidtoname_downlevel.obj
 0002:0000da78       ??_C@_1M@BDEKKCA@?$AAl?$AAv?$AA?9?$AAl?$AAv@ 000000018006ba78     libucrt:lcidtoname_downlevel.obj
 0002:0000da88       ??_C@_1M@ELCKCCJJ@?$AAm?$AAi?$AA?9?$AAn?$AAz@ 000000018006ba88     libucrt:lcidtoname_downlevel.obj
 0002:0000da98       ??_C@_1M@CBOOLAPA@?$AAm?$AAk?$AA?9?$AAm?$AAk@ 000000018006ba98     libucrt:lcidtoname_downlevel.obj
 0002:0000daa8       ??_C@_1M@GPHNBJKN@?$AAm?$AAl?$AA?9?$AAi?$AAn@ 000000018006baa8     libucrt:lcidtoname_downlevel.obj
 0002:0000dab8       ??_C@_1M@PABJILIG@?$AAm?$AAn?$AA?9?$AAm?$AAn@ 000000018006bab8     libucrt:lcidtoname_downlevel.obj
 0002:0000dac8       ??_C@_1M@FGBKKIPG@?$AAm?$AAr?$AA?9?$AAi?$AAn@ 000000018006bac8     libucrt:lcidtoname_downlevel.obj
 0002:0000dad8       ??_C@_1M@NDBPDDAL@?$AAm?$AAs?$AA?9?$AAb?$AAn@ 000000018006bad8     libucrt:lcidtoname_downlevel.obj
 0002:0000dae8       ??_C@_1M@OPIHOOPI@?$AAm?$AAs?$AA?9?$AAm?$AAy@ 000000018006bae8     libucrt:lcidtoname_downlevel.obj
 0002:0000daf8       ??_C@_1M@PPDBCNFM@?$AAm?$AAt?$AA?9?$AAm?$AAt@ 000000018006baf8     libucrt:lcidtoname_downlevel.obj
 0002:0000db08       ??_C@_1M@KDJDKMDD@?$AAn?$AAb?$AA?9?$AAn?$AAo@ 000000018006bb08     libucrt:lcidtoname_downlevel.obj
 0002:0000db18       ??_C@_1M@KFCFLMJP@?$AAn?$AAl?$AA?9?$AAb?$AAe@ 000000018006bb18     libucrt:lcidtoname_downlevel.obj
 0002:0000db28       ??_C@_1M@KPOPDDGO@?$AAn?$AAl?$AA?9?$AAn?$AAl@ 000000018006bb28     libucrt:lcidtoname_downlevel.obj
 0002:0000db38       ??_C@_1M@LJKPEMLN@?$AAn?$AAn?$AA?9?$AAn?$AAo@ 000000018006bb38     libucrt:lcidtoname_downlevel.obj
 0002:0000db48       ??_C@_1M@BDGHHBFL@?$AAn?$AAs?$AA?9?$AAz?$AAa@ 000000018006bb48     libucrt:lcidtoname_downlevel.obj
 0002:0000db58       ??_C@_1M@IDEHOAP@?$AAp?$AAa?$AA?9?$AAi?$AAn@ 000000018006bb58     libucrt:lcidtoname_downlevel.obj
 0002:0000db68       ??_C@_1M@HDBKGOGH@?$AAp?$AAl?$AA?9?$AAp?$AAl@ 000000018006bb68     libucrt:lcidtoname_downlevel.obj
 0002:0000db78       ??_C@_1M@LJLLCMEH@?$AAp?$AAt?$AA?9?$AAb?$AAr@ 000000018006bb78     libucrt:lcidtoname_downlevel.obj
 0002:0000db88       ??_C@_1M@NCMONAAL@?$AAp?$AAt?$AA?9?$AAp?$AAt@ 000000018006bb88     libucrt:lcidtoname_downlevel.obj
 0002:0000db98       ??_C@_1O@EAKMAJDN@?$AAq?$AAu?$AAz?$AA?9?$AAb?$AAo@ 000000018006bb98     libucrt:lcidtoname_downlevel.obj
 0002:0000dba8       ??_C@_1O@BHHPIGDN@?$AAq?$AAu?$AAz?$AA?9?$AAe?$AAc@ 000000018006bba8     libucrt:lcidtoname_downlevel.obj
 0002:0000dbb8       ??_C@_1O@GBAPEKMJ@?$AAq?$AAu?$AAz?$AA?9?$AAp?$AAe@ 000000018006bbb8     libucrt:lcidtoname_downlevel.obj
 0002:0000dbc8       ??_C@_1M@CLGLEFBO@?$AAr?$AAo?$AA?9?$AAr?$AAo@ 000000018006bbc8     libucrt:lcidtoname_downlevel.obj
 0002:0000dbd8       ??_C@_1M@CEEDODME@?$AAr?$AAu?$AA?9?$AAr?$AAu@ 000000018006bbd8     libucrt:lcidtoname_downlevel.obj
 0002:0000dbe8       ??_C@_1M@HPKKKMPP@?$AAs?$AAa?$AA?9?$AAi?$AAn@ 000000018006bbe8     libucrt:lcidtoname_downlevel.obj
 0002:0000dbf8       ??_C@_1M@BKMAIGOJ@?$AAs?$AAe?$AA?9?$AAf?$AAi@ 000000018006bbf8     libucrt:lcidtoname_downlevel.obj
 0002:0000dc08       ??_C@_1M@NDPIFLFI@?$AAs?$AAe?$AA?9?$AAn?$AAo@ 000000018006bc08     libucrt:lcidtoname_downlevel.obj
 0002:0000dc18       ??_C@_1M@DANKKHJ@?$AAs?$AAe?$AA?9?$AAs?$AAe@ 000000018006bc18     libucrt:lcidtoname_downlevel.obj
 0002:0000dc28       ??_C@_1M@PNBLONPJ@?$AAs?$AAk?$AA?9?$AAs?$AAk@ 000000018006bc28     libucrt:lcidtoname_downlevel.obj
 0002:0000dc38       ??_C@_1M@LFMODOAL@?$AAs?$AAl?$AA?9?$AAs?$AAi@ 000000018006bc38     libucrt:lcidtoname_downlevel.obj
 0002:0000dc48       ??_C@_1O@DFKOMPG@?$AAs?$AAm?$AAa?$AA?9?$AAn?$AAo@ 000000018006bc48     libucrt:lcidtoname_downlevel.obj
 0002:0000dc58       ??_C@_1O@NDKPBNNH@?$AAs?$AAm?$AAa?$AA?9?$AAs?$AAe@ 000000018006bc58     libucrt:lcidtoname_downlevel.obj
 0002:0000dc68       ??_C@_1O@PLLKBHAB@?$AAs?$AAm?$AAj?$AA?9?$AAn?$AAo@ 000000018006bc68     libucrt:lcidtoname_downlevel.obj
 0002:0000dc78       ??_C@_1O@CLEPOGCA@?$AAs?$AAm?$AAj?$AA?9?$AAs?$AAe@ 000000018006bc78     libucrt:lcidtoname_downlevel.obj
 0002:0000dc88       ??_C@_1O@DLGJGKMK@?$AAs?$AAm?$AAn?$AA?9?$AAf?$AAi@ 000000018006bc88     libucrt:lcidtoname_downlevel.obj
 0002:0000dc98       ??_C@_1O@OJDJGAJC@?$AAs?$AAm?$AAs?$AA?9?$AAf?$AAi@ 000000018006bc98     libucrt:lcidtoname_downlevel.obj
 0002:0000dca8       ??_C@_1M@BOFOGHPB@?$AAs?$AAq?$AA?9?$AAa?$AAl@ 000000018006bca8     libucrt:lcidtoname_downlevel.obj
 0002:0000dcb8       ??_C@_1BG@LJBBIPGB@?$AAs?$AAr?$AA?9?$AAb?$AAa?$AA?9?$AAc?$AAy?$AAr?$AAl@ 000000018006bcb8     libucrt:lcidtoname_downlevel.obj
 0002:0000dcd0       ??_C@_1BG@JLBENFOE@?$AAs?$AAr?$AA?9?$AAb?$AAa?$AA?9?$AAl?$AAa?$AAt?$AAn@ 000000018006bcd0     libucrt:lcidtoname_downlevel.obj
 0002:0000dce8       ??_C@_1BG@KODPNHE@?$AAs?$AAr?$AA?9?$AAs?$AAp?$AA?9?$AAc?$AAy?$AAr?$AAl@ 000000018006bce8     libucrt:lcidtoname_downlevel.obj
 0002:0000dd00       ??_C@_1BG@CIOGKHPB@?$AAs?$AAr?$AA?9?$AAs?$AAp?$AA?9?$AAl?$AAa?$AAt?$AAn@ 000000018006bd00     libucrt:lcidtoname_downlevel.obj
 0002:0000dd18       ??_C@_1M@NGFJLMAC@?$AAs?$AAv?$AA?9?$AAf?$AAi@ 000000018006bd18     libucrt:lcidtoname_downlevel.obj
 0002:0000dd28       ??_C@_1M@MPJEJAJC@?$AAs?$AAv?$AA?9?$AAs?$AAe@ 000000018006bd28     libucrt:lcidtoname_downlevel.obj
 0002:0000dd38       ??_C@_1M@MPNDHLFK@?$AAs?$AAw?$AA?9?$AAk?$AAe@ 000000018006bd38     libucrt:lcidtoname_downlevel.obj
 0002:0000dd48       ??_C@_1O@KOHBJJI@?$AAs?$AAy?$AAr?$AA?9?$AAs?$AAy@ 000000018006bd48     libucrt:lcidtoname_downlevel.obj
 0002:0000dd58       ??_C@_1M@LDCEFHA@?$AAt?$AAa?$AA?9?$AAi?$AAn@ 000000018006bd58     libucrt:lcidtoname_downlevel.obj
 0002:0000dd68       ??_C@_1M@CNJOFAK@?$AAt?$AAe?$AA?9?$AAi?$AAn@ 000000018006bd68     libucrt:lcidtoname_downlevel.obj
 0002:0000dd78       ??_C@_1M@GNAECACD@?$AAt?$AAh?$AA?9?$AAt?$AAh@ 000000018006bd78     libucrt:lcidtoname_downlevel.obj
 0002:0000dd88       ??_C@_1M@CHBIHOJO@?$AAt?$AAn?$AA?9?$AAz?$AAa@ 000000018006bd88     libucrt:lcidtoname_downlevel.obj
 0002:0000dd98       ??_C@_1M@GCCMIGPJ@?$AAt?$AAr?$AA?9?$AAt?$AAr@ 000000018006bd98     libucrt:lcidtoname_downlevel.obj
 0002:0000dda8       ??_C@_1M@CELMCNBK@?$AAt?$AAt?$AA?9?$AAr?$AAu@ 000000018006bda8     libucrt:lcidtoname_downlevel.obj
 0002:0000ddb8       ??_C@_1M@KLMCELGA@?$AAu?$AAk?$AA?9?$AAu?$AAa@ 000000018006bdb8     libucrt:lcidtoname_downlevel.obj
 0002:0000ddc8       ??_C@_1M@EPAJJAJF@?$AAu?$AAr?$AA?9?$AAp?$AAk@ 000000018006bdc8     libucrt:lcidtoname_downlevel.obj
 0002:0000ddd8       ??_C@_1BG@GEGPMCDJ@?$AAu?$AAz?$AA?9?$AAu?$AAz?$AA?9?$AAc?$AAy?$AAr?$AAl@ 000000018006bdd8     libucrt:lcidtoname_downlevel.obj
 0002:0000ddf0       ??_C@_1BG@EGGKJILM@?$AAu?$AAz?$AA?9?$AAu?$AAz?$AA?9?$AAl?$AAa?$AAt?$AAn@ 000000018006bdf0     libucrt:lcidtoname_downlevel.obj
 0002:0000de08       ??_C@_1M@GFOCLFF@?$AAv?$AAi?$AA?9?$AAv?$AAn@ 000000018006be08     libucrt:lcidtoname_downlevel.obj
 0002:0000de18       ??_C@_1M@CPAMEDFI@?$AAx?$AAh?$AA?9?$AAz?$AAa@ 000000018006be18     libucrt:lcidtoname_downlevel.obj
 0002:0000de28       ??_C@_1O@EBKIFIGN@?$AAz?$AAh?$AA?9?$AAc?$AAh?$AAs@ 000000018006be28     libucrt:lcidtoname_downlevel.obj
 0002:0000de38       ??_C@_1O@NMHPGANE@?$AAz?$AAh?$AA?9?$AAc?$AAh?$AAt@ 000000018006be38     libucrt:lcidtoname_downlevel.obj
 0002:0000de48       ??_C@_1M@LPINJOMC@?$AAz?$AAh?$AA?9?$AAc?$AAn@ 000000018006be48     libucrt:lcidtoname_downlevel.obj
 0002:0000de58       ??_C@_1M@OCJEJODD@?$AAz?$AAh?$AA?9?$AAh?$AAk@ 000000018006be58     libucrt:lcidtoname_downlevel.obj
 0002:0000de68       ??_C@_1M@DNDLJINH@?$AAz?$AAh?$AA?9?$AAm?$AAo@ 000000018006be68     libucrt:lcidtoname_downlevel.obj
 0002:0000de78       ??_C@_1M@MBFDNDND@?$AAz?$AAh?$AA?9?$AAs?$AAg@ 000000018006be78     libucrt:lcidtoname_downlevel.obj
 0002:0000de88       ??_C@_1M@IMEPLEPE@?$AAz?$AAh?$AA?9?$AAt?$AAw@ 000000018006be88     libucrt:lcidtoname_downlevel.obj
 0002:0000de98       ??_C@_1M@BBGHNHJP@?$AAz?$AAu?$AA?9?$AAz?$AAa@ 000000018006be98     libucrt:lcidtoname_downlevel.obj
 0002:0000e100       ??_C@_1BA@BALFACEM@?$AAC?$AAO?$AAN?$AAO?$AAU?$AAT?$AA$@ 000000018006c100     libucrt:initcon.obj
 0002:0000e110       __log10_256_lead           000000018006c110     libucrt:log10_256_lead_tail_table.obj
 0002:0000e920       __log10_256_tail           000000018006c920     libucrt:log10_256_lead_tail_table.obj
 0002:0000f128       ??_C@_0BC@EOODALEL@Unknown?5exception@ 000000018006d128     ActionProcessor.obj
 0002:0000f140       ??_C@_0BF@KINCDENJ@bad?5array?5new?5length@ 000000018006d140     ActionProcessor.obj
 0002:0000f158       ??_C@_0BA@JFNIOLAK@string?5too?5long@ 000000018006d158     ActionProcessor.obj
 0002:0000f168       ??_C@_02LMMGGCAJ@?3?5@     000000018006d168     ActionProcessor.obj
 0002:0000f16b       ??_C@_00CNPNBAHC@@         000000018006d16b     ActionProcessor.obj
 0002:0000f170       ??_C@_08LLGCOLLL@iostream@ 000000018006d170     ActionProcessor.obj
 0002:0000f180       ??_C@_08EPJLHIJG@bad?5cast@ 000000018006d180     ActionProcessor.obj
 0002:0000f190       ??_C@_0BA@ELKIONDK@bad?5locale?5name@ 000000018006d190     ActionProcessor.obj
 0002:0000f1a0       ??_C@_05LAPONLG@false@     000000018006d1a0     ActionProcessor.obj
 0002:0000f1a8       ??_C@_04LOAJBDKD@true@     000000018006d1a8     ActionProcessor.obj
 0002:0000f1b0       ??_C@_0BF@PHHKMMFD@ios_base?3?3badbit?5set@ 000000018006d1b0     ActionProcessor.obj
 0002:0000f1c8       ??_C@_0BG@FMKFHCIL@ios_base?3?3failbit?5set@ 000000018006d1c8     ActionProcessor.obj
 0002:0000f1e0       ??_C@_0BF@OOHOMBOF@ios_base?3?3eofbit?5set@ 000000018006d1e0     ActionProcessor.obj
 0002:0000f1f8       ??_C@_0BJ@MECOOJMF@RGB?2?$CI?$CI?2d?$CL?$CJ?0?$CI?2d?$CL?$CJ?0?$CI?2d?$CL?$CJ?2?$CJ@ 000000018006d1f8     ActionProcessor.obj
 0002:0000f214       ??_C@_01EEMJAFIK@?6@       000000018006d214     ActionProcessor.obj
 0002:0000f218       ??_C@_01CLKCMJKC@?5@       000000018006d218     ActionProcessor.obj
 0002:0000f21c       ??_C@_06LGNCCACI@select@   000000018006d21c     ActionProcessor.obj
 0002:0000f224       ??_C@_01IDAFKMJL@_@        000000018006d224     ActionProcessor.obj
 0002:0000f228       ??_C@_0P@BKAFLOHK@?1action?1select@ 000000018006d228     ActionProcessor.obj
 0002:0000f238       ??_C@_02BBAHNLBA@?$CFp@    000000018006d238     ActionProcessor.obj
 0002:0000f240       ??_C@_0BL@KOKKEGGO@invalid?5deque?$DMT?$DO?5subscript@ 000000018006d240     ActionProcessor.obj
 0002:0000f25c       ??_C@_02MDKMJEGG@eE@       000000018006d25c     ActionProcessor.obj
 0002:0000f260       ??_C@_02OOPEBDOJ@pP@       000000018006d260     ActionProcessor.obj
 0002:0000f268       ??_C@_0BI@CFPLBAOH@invalid?5string?5position@ 000000018006d268     ActionProcessor.obj
 0002:0000f280       ??_C@_0BA@FOIKENOD@vector?5too?5long@ 000000018006d280     ActionProcessor.obj
 0002:0000f290       ??_C@_0BG@EOMJEIFA@vector?$DMbool?$DO?5too?5long@ 000000018006d290     ActionProcessor.obj
 0002:0000f2a8       ??_C@_05IIMHCHIO@alnum@    000000018006d2a8     ActionProcessor.obj
 0002:0000f2b0       ??_C@_1M@KLMEPMCM@?$AAa?$AAl?$AAn?$AAu?$AAm@ 000000018006d2b0     ActionProcessor.obj
 0002:0000f2bc       ??_C@_05IAEKHIAN@alpha@    000000018006d2bc     ActionProcessor.obj
 0002:0000f2c8       ??_C@_1M@DHGLHBMI@?$AAa?$AAl?$AAp?$AAh?$AAa@ 000000018006d2c8     ActionProcessor.obj
 0002:0000f2d4       ??_C@_05BABJKOGB@blank@    000000018006d2d4     ActionProcessor.obj
 0002:0000f2e0       ??_C@_1M@EJAAJBPE@?$AAb?$AAl?$AAa?$AAn?$AAk@ 000000018006d2e0     ActionProcessor.obj
 0002:0000f2ec       ??_C@_05JMDPEFNK@cntrl@    000000018006d2ec     ActionProcessor.obj
 0002:0000f2f8       ??_C@_1M@LMIMILA@?$AAc?$AAn?$AAt?$AAr?$AAl@ 000000018006d2f8     ActionProcessor.obj
 0002:0000f304       ??_C@_01LPLHEDKD@d@        000000018006d304     ActionProcessor.obj
 0002:0000f308       ??_C@_13GKPPEALH@?$AAd@    000000018006d308     ActionProcessor.obj
 0002:0000f30c       ??_C@_05ODNOIFML@digit@    000000018006d30c     ActionProcessor.obj
 0002:0000f318       ??_C@_1M@JDAEIBKG@?$AAd?$AAi?$AAg?$AAi?$AAt@ 000000018006d318     ActionProcessor.obj
 0002:0000f324       ??_C@_05KCJBMLII@graph@    000000018006d324     ActionProcessor.obj
 0002:0000f330       ??_C@_1M@MDKNJLLK@?$AAg?$AAr?$AAa?$AAp?$AAh@ 000000018006d330     ActionProcessor.obj
 0002:0000f33c       ??_C@_05IPJEPLHL@lower@    000000018006d33c     ActionProcessor.obj
 0002:0000f348       ??_C@_1M@LGAECJJD@?$AAl?$AAo?$AAw?$AAe?$AAr@ 000000018006d348     ActionProcessor.obj
 0002:0000f354       ??_C@_05IJDJACGD@print@    000000018006d354     ActionProcessor.obj
 0002:0000f360       ??_C@_1M@ELNLAPLA@?$AAp?$AAr?$AAi?$AAn?$AAt@ 000000018006d360     ActionProcessor.obj
 0002:0000f36c       ??_C@_05KOBGHFJJ@punct@    000000018006d36c     ActionProcessor.obj
 0002:0000f378       ??_C@_1M@BPFMAOAO@?$AAp?$AAu?$AAn?$AAc?$AAt@ 000000018006d378     ActionProcessor.obj
 0002:0000f384       ??_C@_05OLNILLAB@space@    000000018006d384     ActionProcessor.obj
 0002:0000f390       ??_C@_1M@LPGODFOM@?$AAs?$AAp?$AAa?$AAc?$AAe@ 000000018006d390     ActionProcessor.obj
 0002:0000f39c       ??_C@_01LKDEMHDF@s@        000000018006d39c     ActionProcessor.obj
 0002:0000f3a0       ??_C@_13KHDBCPJB@?$AAs@    000000018006d3a0     ActionProcessor.obj
 0002:0000f3a4       ??_C@_05NECKJAMC@upper@    000000018006d3a4     ActionProcessor.obj
 0002:0000f3b0       ??_C@_1M@PLNFCNIC@?$AAu?$AAp?$AAp?$AAe?$AAr@ 000000018006d3b0     ActionProcessor.obj
 0002:0000f3bc       ??_C@_01NOFIACDB@w@        000000018006d3bc     ActionProcessor.obj
 0002:0000f3c0       ??_C@_13CIFDLIMG@?$AAw@    000000018006d3c0     ActionProcessor.obj
 0002:0000f3c4       ??_C@_06BAPHGFFK@xdigit@   000000018006d3c4     ActionProcessor.obj
 0002:0000f3d0       ??_C@_1O@OAFMJDHN@?$AAx?$AAd?$AAi?$AAg?$AAi?$AAt@ 000000018006d3d0     ActionProcessor.obj
 0002:0000f3e8       ??_7_Node_assert@std@@6B@  000000018006d3e8     ActionProcessor.obj
 0002:0000f3f8       ??_7_Node_rep@std@@6B@     000000018006d3f8     ActionProcessor.obj
 0002:0000f408       ??_7OscProcessor@@6B@      000000018006d408     ActionProcessor.obj
 0002:0000f440       ?_Names@?1???$lookup_classname@PEBD@?$_Regex_traits@D@std@@QEBAFPEBD0_N@Z@4QBU_Cl_names@2@B 000000018006d440     ActionProcessor.obj
 0002:0000f5c8       ??_7_Node_endif@std@@6B@   000000018006d5c8     ActionProcessor.obj
 0002:0000f5d8       ??_7_Node_back@std@@6B@    000000018006d5d8     ActionProcessor.obj
 0002:0000f5e8       ??_7?$_Node_class@DV?$regex_traits@D@std@@@std@@6B@ 000000018006d5e8     ActionProcessor.obj
 0002:0000f5f8       ??_7_Node_if@std@@6B@      000000018006d5f8     ActionProcessor.obj
 0002:0000f600       ?_Meta_map@?1??_Trans@?$_Parser@PEBDDV?$regex_traits@D@std@@@std@@AEAAXXZ@4QBDB 000000018006d600     ActionProcessor.obj
 0002:0000f620       ??_7_Iostream_error_category2@std@@6B@ 000000018006d620     ActionProcessor.obj
 0002:0000f658       ??_7_Node_end_group@std@@6B@ 000000018006d658     ActionProcessor.obj
 0002:0000f668       ??_7_Root_node@std@@6B@    000000018006d668     ActionProcessor.obj
 0002:0000f6a0       ??_7_Node_capture@std@@6B@ 000000018006d6a0     ActionProcessor.obj
 0002:0000f6b0       ??_7_Node_base@std@@6B@    000000018006d6b0     ActionProcessor.obj
 0002:0000f6b8       ?_Iostream_error@?4??message@_Iostream_error_category2@std@@UEBA?AV?$basic_string@DU?$char_traits@D@std@@V?$allocator@D@2@@3@H@Z@4QBDB 000000018006d6b8     ActionProcessor.obj
 0002:0000f6d8       ??_7?$_Node_str@D@std@@6B@ 000000018006d6d8     ActionProcessor.obj
 0002:0000f6e8       ??_7ActionProcessor@@6B@   000000018006d6e8     ActionProcessor.obj
 0002:0000f720       ??_7_Node_end_rep@std@@6B@ 000000018006d720     ActionProcessor.obj
 0002:0000f730       ??_7failure@ios_base@std@@6B@ 000000018006d730     ActionProcessor.obj
 0002:0000f740       ??_C@_05MEHLAELG@clear@    000000018006d740     ClipProcessor.obj
 0002:0000f748       ??_C@_09KHIKJOBP@duplicate@ 000000018006d748     ClipProcessor.obj
 0002:0000f758       ??_C@_0BB@HMLCJOFF@duplicateContent@ 000000018006d758     ClipProcessor.obj
 0002:0000f770       ??_C@_07NOHNDAEK@B_UISEL@  000000018006d770     ClipProcessor.obj
 0002:0000f778       ??_C@_0BK@MEGAIBPL@Duplicate?5content?5of?5clip@ 000000018006d778     ClipProcessor.obj
 0002:0000f794       ??_C@_04DHOIHJPF@note@     000000018006d794     ClipProcessor.obj
 0002:0000f79c       ??_C@_05FAGFPHJG@start@    000000018006d79c     ClipProcessor.obj
 0002:0000f7a8       ??_C@_0L@DMMABGMI@D_POSITION@ 000000018006d7a8     ClipProcessor.obj
 0002:0000f7b4       ??_C@_03JBJLGPFL@end@      000000018006d7b4     ClipProcessor.obj
 0002:0000f7b8       ??_C@_08HIKFBJCP@D_LENGTH@ 000000018006d7b8     ClipProcessor.obj
 0002:0000f7c8       ??_C@_09KDFGPPLL@transpose@ 000000018006d7c8     ClipProcessor.obj
 0002:0000f7d4       ??_C@_04GKOOIABA@loop@     000000018006d7d4     ClipProcessor.obj
 0002:0000f7e0       ??_C@_09EMGJCNKH@B_LOOPSRC@ 000000018006d7e0     ClipProcessor.obj
 0002:0000f7ec       ??_C@_05PEENBMOG@color@    000000018006d7ec     ClipProcessor.obj
 0002:0000f7f4       ??_C@_06FHLCKAHH@toggle@   000000018006d7f4     ClipProcessor.obj
 0002:0000f800       ??_C@_0M@NPADOFEL@Insert?5note@ 000000018006d800     ClipProcessor.obj
 0002:0000f80c       ??_C@_03KCHOJKKI@set@      000000018006d80c     ClipProcessor.obj
 0002:0000f810       ??_C@_06HDLLMMEJ@update@   000000018006d810     ClipProcessor.obj
 0002:0000f818       ??_C@_0M@IJHNKAFE@Change?5note@ 000000018006d818     ClipProcessor.obj
 0002:0000f828       ??_C@_0O@HIFPDEJG@I_CUSTOMCOLOR@ 000000018006d828     ClipProcessor.obj
 0002:0000f838       ??_C@_0P@PGHKJHHD@Set?5clip?5color@ 000000018006d838     ClipProcessor.obj
 0002:0000f848       ??_C@_0CD@MFMPPAMB@Transpose?5selected?5midi?5item?5no@ 000000018006d848     ClipProcessor.obj
 0002:0000f870       ??_C@_0N@CNHIANIK@Delete?5notes@ 000000018006d870     ClipProcessor.obj
 0002:0000f880       ??_C@_0M@LDOOCHHJ@Delete?5note@ 000000018006d880     ClipProcessor.obj
 0002:0000f890       ??_C@_0BJ@DHFDPMIM@invalid?5vector?5subscript@ 000000018006d890     ClipProcessor.obj
 0002:0000f8b0       ?_Is_word_table@?1??_Is_word@std@@YA_NE@Z@4QB_NB 000000018006d8b0     ClipProcessor.obj
 0002:0000f9b8       ??_7ClipProcessor@@6B@     000000018006d9b8     ClipProcessor.obj
 0002:0000f9e8       ??_C@_0BB@GCADKGJO@map?1set?5too?5long@ 000000018006d9e8     DataCollector.obj
 0002:0000fa00       ??_C@_0BF@KCFMKLOH@Out?5of?5Range?5error?3?5@ 000000018006da00     DataCollector.obj
 0002:0000fa18       ??_C@_07OPKPFDKF@?9inf?5dB@ 000000018006da18     DataCollector.obj
 0002:0000fa20       ??_C@_01MIFGBAGJ@?$CL@     000000018006da20     DataCollector.obj
 0002:0000fa24       ??_C@_03PDBIMBKG@?5dB@     000000018006da24     DataCollector.obj
 0002:0000fa28       ??_C@_01OCOKONAJ@L@        000000018006da28     DataCollector.obj
 0002:0000fa2c       ??_C@_01DGKLNCNG@R@        000000018006da2c     DataCollector.obj
 0002:0000fa30       ??_C@_08GKOPANOC@midi_arp@ 000000018006da30     DataCollector.obj
 0002:0000fa40       ??_C@_0L@KJMILCNM@LOCK?5?$CI?2d?$CL?$CJ@ 000000018006da40     DataCollector.obj
 0002:0000fa50       ??_C@_09DNFKBHDD@Name?$DN?$CI?4?$CK?$CJ@ 000000018006da50     DataCollector.obj
 0002:0000fa60       ??_C@_0BE@HPAHJBEL@?1master?1user?1param?1@ 000000018006da60     DataCollector.obj
 0002:0000fa78       ??_C@_0BA@NKLMOOND@?1primary?1param?1@ 000000018006da78     DataCollector.obj
 0002:0000fa88       ??_C@_02PGHGPEOM@?91@      000000018006da88     DataCollector.obj
 0002:0000fa90       ??_C@_09PBENLGJM@transport@ 000000018006da90     DataCollector.obj
 0002:0000faa0       ??_C@_07GKGAGMNN@project@  000000018006daa0     DataCollector.obj
 0002:0000faa8       ??_C@_05BCJOPFFH@track@    000000018006daa8     DataCollector.obj
 0002:0000fab0       ??_C@_06CHPEJBOD@device@   000000018006dab0     DataCollector.obj
 0002:0000fab8       ??_C@_06ECGAGODA@master@   000000018006dab8     DataCollector.obj
 0002:0000fac0       ??_C@_07OLCLNKMP@browser@  000000018006dac0     DataCollector.obj
 0002:0000fac8       ??_C@_06HHHKAAEJ@marker@   000000018006dac8     DataCollector.obj
 0002:0000fad0       ??_C@_04POIGMEJN@clip@     000000018006dad0     DataCollector.obj
 0002:0000fad8       ??_C@_07KMJDECGK@session@  000000018006dad8     DataCollector.obj
 0002:0000fae0       ??_C@_0L@FHNADFCG@noterepeat@ 000000018006dae0     DataCollector.obj
 0002:0000faec       ??_C@_06FKLJHCOJ@groove@   000000018006daec     DataCollector.obj
 0002:0000faf4       ??_C@_05IHANCCGD@?1play@   000000018006daf4     DataCollector.obj
 0002:0000fb00       ??_C@_07HCHGPHNC@?1record@ 000000018006db00     DataCollector.obj
 0002:0000fb08       ??_C@_07GOCJPFJM@?1repeat@ 000000018006db08     DataCollector.obj
 0002:0000fb10       ??_C@_06OFNPOOPI@?1tempo@  000000018006db10     DataCollector.obj
 0002:0000fb18       ??_C@_06DHCPBNA@?1click@   000000018006db18     DataCollector.obj
 0002:0000fb20       ??_C@_0P@HPFKFAHH@?1click?1preroll@ 000000018006db20     DataCollector.obj
 0002:0000fb30       ??_C@_0M@JLCKNJME@projmetrov1@ 000000018006db30     DataCollector.obj
 0002:0000fb40       ??_C@_0O@OKEAPAKP@?1click?1volume@ 000000018006db40     DataCollector.obj
 0002:0000fb50       ??_C@_0BB@CHANMBCO@?1click?1volumeStr@ 000000018006db50     DataCollector.obj
 0002:0000fb68       ??_C@_0L@DOABADOG@?1numerator@ 000000018006db68     DataCollector.obj
 0002:0000fb78       ??_C@_0N@FLBFBMCP@?1denominator@ 000000018006db78     DataCollector.obj
 0002:0000fb88       ??_C@_05KKDONAKI@?1time@   000000018006db88     DataCollector.obj
 0002:0000fb90       ??_C@_09GHKDJAO@?1time?1str@ 000000018006db90     DataCollector.obj
 0002:0000fb9c       ??_C@_05FFILNHEG@?1beat@   000000018006db9c     DataCollector.obj
 0002:0000fba8       ??_C@_0O@JJIIGBAN@?1project?1name@ 000000018006dba8     DataCollector.obj
 0002:0000fbb8       ??_C@_0BA@CGOPIOPF@?1project?1engine@ 000000018006dbb8     DataCollector.obj
 0002:0000fbc8       ??_C@_0O@PEIDJLBJ@?1device?1count@ 000000018006dbc8     DataCollector.obj
 0002:0000fbd8       ??_C@_0P@BKONPDLG@?1device?1exists@ 000000018006dbd8     DataCollector.obj
 0002:0000fbe8       ??_C@_0BB@OALABAML@?1device?1position@ 000000018006dbe8     DataCollector.obj
 0002:0000fc00       ??_C@_0P@CJNHJFMM@?1device?1window@ 000000018006dc00     DataCollector.obj
 0002:0000fc10       ??_C@_0P@JJDPDLGB@?1device?1expand@ 000000018006dc10     DataCollector.obj
 0002:0000fc20       ??_C@_0N@OJMIGFLC@?1device?1name@ 000000018006dc20     DataCollector.obj
 0002:0000fc30       ??_C@_0P@IGLJGCPP@?1device?1bypass@ 000000018006dc30     DataCollector.obj
 0002:0000fc40       ??_C@_05EFNKHHGE@?1name@   000000018006dc40     DataCollector.obj
 0002:0000fc48       ??_C@_0BB@GMOAGHDG@?1device?1sibling?1@ 000000018006dc48     DataCollector.obj
 0002:0000fc60       ??_C@_0BE@EBEDLDEC@?1device?1param?1count@ 000000018006dc60     DataCollector.obj
 0002:0000fc78       ??_C@_0BA@CDFKLNMJ@?1primary?1exists@ 000000018006dc78     DataCollector.obj
 0002:0000fc88       ??_C@_0BC@NJHDCANC@?1primary?1position@ 000000018006dc88     DataCollector.obj
 0002:0000fca0       ??_C@_0O@BPMLLBEO@?1primary?1name@ 000000018006dca0     DataCollector.obj
 0002:0000fcb0       ??_C@_0BF@IPJPIOHN@?1primary?1param?1count@ 000000018006dcb0     DataCollector.obj
 0002:0000fcc8       ??_C@_0L@PFOBEBED@?1eq?1exists@ 000000018006dcc8     DataCollector.obj
 0002:0000fcd8       ??_C@_0BA@KGBAPMDJ@?1eq?1param?1count@ 000000018006dcd8     DataCollector.obj
 0002:0000fce8       ??_C@_08BGHMPICO@BANDTYPE@ 000000018006dce8     DataCollector.obj
 0002:0000fcf8       ??_C@_0M@OMEBIBCK@BANDENABLED@ 000000018006dcf8     DataCollector.obj
 0002:0000fd08       ??_C@_09IKINPIEJ@?1eq?1band?1@ 000000018006dd08     DataCollector.obj
 0002:0000fd18       ??_C@_0BC@FIJHIPB@?1user?1param?1count@ 000000018006dd18     DataCollector.obj
 0002:0000fd30       ??_C@_0N@FOGOEE@playingnotes@ 000000018006dd30     DataCollector.obj
 0002:0000fd40       ??_C@_0O@EFGBJNCP@?1playingnotes@ 000000018006dd40     DataCollector.obj
 0002:0000fd50       ??_C@_07DPBJBCCC@?1track?1@ 000000018006dd50     DataCollector.obj
 0002:0000fd58       ??_C@_0N@MKMBMGKN@?1track?1count@ 000000018006dd58     DataCollector.obj
 0002:0000fd68       ??_C@_01ICJEACDI@?$DL@     000000018006dd68     DataCollector.obj
 0002:0000fd6c       ??_C@_01JLIPDDHJ@?3@       000000018006dd6c     DataCollector.obj
 0002:0000fd70       ??_C@_0P@BMIANLPD@?1master?1select@ 000000018006dd70     DataCollector.obj
 0002:0000fd80       ??_C@_0N@JACEMLOD@?1master?1mute@ 000000018006dd80     DataCollector.obj
 0002:0000fd90       ??_C@_0N@JIIKEPLJ@?1master?1solo@ 000000018006dd90     DataCollector.obj
 0002:0000fda0       ??_C@_05KJNLNELG@D_VOL@    000000018006dda0     DataCollector.obj
 0002:0000fda8       ??_C@_0P@OGHNIOLH@?1master?1volume@ 000000018006dda8     DataCollector.obj
 0002:0000fdb8       ??_C@_0BD@MMBMGMAA@?1master?1volume?1str@ 000000018006ddb8     DataCollector.obj
 0002:0000fdcc       ??_C@_05LEBIMEOC@D_PAN@    000000018006ddcc     DataCollector.obj
 0002:0000fdd8       ??_C@_0M@KPHPJJON@?1master?1pan@ 000000018006ddd8     DataCollector.obj
 0002:0000fde8       ??_C@_0BA@EMPDKNIF@?1master?1pan?1str@ 000000018006dde8     DataCollector.obj
 0002:0000fdf8       ??_C@_0L@PFKLEGBB@?1master?1vu@ 000000018006ddf8     DataCollector.obj
 0002:0000fe08       ??_C@_0P@ELKFDECE@?1master?1vuleft@ 000000018006de08     DataCollector.obj
 0002:0000fe18       ??_C@_0BA@CGLHEOIM@?1master?1vuright@ 000000018006de18     DataCollector.obj
 0002:0000fe28       ??_C@_0O@KMPKJIII@?1master?1color@ 000000018006de28     DataCollector.obj
 0002:0000fe38       ??_C@_0L@BFFAGBII@I_AUTOMODE@ 000000018006de38     DataCollector.obj
 0002:0000fe48       ??_C@_0BB@EKMLJNFA@?1master?1automode@ 000000018006de48     DataCollector.obj
 0002:0000fe60       ??_C@_0N@BIDNBNDG@?1clip?1exists@ 000000018006de60     DataCollector.obj
 0002:0000fe70       ??_C@_0M@OMIBMEH@?1clip?1notes@ 000000018006de70     DataCollector.obj
 0002:0000fe80       ??_C@_0M@JHFPCPAO@?1clip?1start@ 000000018006de80     DataCollector.obj
 0002:0000fe90       ??_C@_09FJDEDENL@?1clip?1end@ 000000018006de90     DataCollector.obj
 0002:0000fea0       ??_C@_0BD@CHPKACAP@?1clip?1playposition@ 000000018006dea0     DataCollector.obj
 0002:0000feb8       ??_C@_0L@IHJOKMGL@?1clip?1loop@ 000000018006deb8     DataCollector.obj
 0002:0000fec8       ??_C@_0M@DDHHMEHO@?1clip?1color@ 000000018006dec8     DataCollector.obj
 0002:0000fed8       ??_C@_0BH@OKPEBKJM@?1browser?1selected?1name@ 000000018006ded8     DataCollector.obj
 0002:0000fef0       ??_C@_0BI@PMOIDAGI@?1browser?1selected?1index@ 000000018006def0     DataCollector.obj
 0002:0000ff08       ??_C@_0O@MBFIEIIJ@?1marker?1count@ 000000018006df08     DataCollector.obj
 0002:0000ff18       ??_C@_06INLJAPLH@P_NAME@   000000018006df18     DataCollector.obj
 0002:0000ff20       ??_C@_0CG@MAOMPJNO@ERROR?3?5Could?5not?5read?5name?5from@ 000000018006df20     DataCollector.obj
 0002:0000ff48       ??_C@_0L@FNNFPINI@?5on?5track?5@ 000000018006df48     DataCollector.obj
 0002:0000ff58       ??_C@_07NBCGADJA@Unknown@  000000018006df58     DataCollector.obj
 0002:0000ff60       ??_C@_09BNALPNOK@?1clip?1all@ 000000018006df60     DataCollector.obj
 0002:0000ff70       ??_C@_0N@DMAPGBDG@?1scene?1count@ 000000018006df70     DataCollector.obj
 0002:0000ff80       ??_C@_05ELCCFCFH@scene@    000000018006df80     DataCollector.obj
 0002:0000ff88       ??_C@_0BD@HOIAALNL@?1noterepeat?1active@ 000000018006df88     DataCollector.obj
 0002:0000ffa0       ??_C@_0BD@OMNMCDKC@?1noterepeat?1period@ 000000018006dfa0     DataCollector.obj
 0002:0000ffb8       ??_C@_0BH@BCNEPADL@?1noterepeat?1notelength@ 000000018006dfb8     DataCollector.obj
 0002:0000ffd0       ??_C@_0BB@JPDLIIAH@?1noterepeat?1mode@ 000000018006dfd0     DataCollector.obj
 0002:0000ffe8       ??_C@_0BF@DGGLAJCO@?1noterepeat?1velocity@ 000000018006dfe8     DataCollector.obj
 0002:00010000       ??_C@_0P@DCONHCFH@?1groove?1active@ 000000018006e000     DataCollector.obj
 0002:00010010       ??_C@_0P@EEPEIMEL@?1groove?1amount@ 000000018006e010     DataCollector.obj
 0002:00010020       ??_C@_06PGNEKALH@B_MUTE@   000000018006e020     DataCollector.obj
 0002:00010028       ??_C@_0BB@LFAMKJDL@?1browser?1result?1@ 000000018006e028     DataCollector.obj
 0002:00010048       ??_7?$basic_streambuf@DU?$char_traits@D@std@@@std@@6B@ 000000018006e048     DataCollector.obj
 0002:000100c8       ??_7?$basic_ostringstream@DU?$char_traits@D@std@@V?$allocator@D@2@@std@@6B@ 000000018006e0c8     DataCollector.obj
 0002:000100d8       ??_7ios_base@std@@6B@      000000018006e0d8     DataCollector.obj
 0002:000100e8       ??_7?$basic_filebuf@DU?$char_traits@D@std@@@std@@6B@ 000000018006e0e8     DataCollector.obj
 0002:00010168       ??_7?$basic_ios@DU?$char_traits@D@std@@@std@@6B@ 000000018006e168     DataCollector.obj
 0002:00010178       ??_7?$basic_stringbuf@DU?$char_traits@D@std@@V?$allocator@D@2@@std@@6B@ 000000018006e178     DataCollector.obj
 0002:000101f0       ??_8?$basic_ifstream@DU?$char_traits@D@std@@@std@@7B@ 000000018006e1f0     DataCollector.obj
 0002:00010200       ??_7?$basic_istream@DU?$char_traits@D@std@@@std@@6B@ 000000018006e200     DataCollector.obj
 0002:00010208       ??_8?$basic_ostringstream@DU?$char_traits@D@std@@V?$allocator@D@2@@std@@7B@ 000000018006e208     DataCollector.obj
 0002:00010218       ??_7?$basic_ifstream@DU?$char_traits@D@std@@@std@@6B@ 000000018006e218     DataCollector.obj
 0002:00010228       ??_7?$basic_ostream@DU?$char_traits@D@std@@@std@@6B@ 000000018006e228     DataCollector.obj
 0002:00010238       ??_7DataCollector@@6B@     000000018006e238     DataCollector.obj
 0002:00010240       ??_C@_01GFHCPBMG@C@        000000018006e240     DataCollector.obj
 0002:00010244       ??_C@_04BGIHDKAM@page@     000000018006e244     DeviceProcessor.obj
 0002:0001024c       ??_C@_01JOAMLHOP@?9@       000000018006e24c     DeviceProcessor.obj
 0002:00010250       ??_C@_06IPOHCLCL@eq?9add@  000000018006e250     DeviceProcessor.obj
 0002:00010258       ??_C@_06LEMKAMD@remove@    000000018006e258     DeviceProcessor.obj
 0002:00010260       ??_C@_0O@DMBBLOFB@Delete?5device@ 000000018006e260     DeviceProcessor.obj
 0002:00010270       ??_C@_08CJLOJPNI@selected@ 000000018006e270     DeviceProcessor.obj
 0002:0001027c       ??_C@_06HKHKKNNB@bypass@   000000018006e27c     DeviceProcessor.obj
 0002:00010284       ??_C@_06NFBEFKOC@window@   000000018006e284     DeviceProcessor.obj
 0002:0001028c       ??_C@_06GFPMPEEP@expand@   000000018006e28c     DeviceProcessor.obj
 0002:00010294       ??_C@_06OFAGBOBG@preset@   000000018006e294     DeviceProcessor.obj
 0002:0001029c       ??_C@_05LJDNNBIK@param@    000000018006e29c     DeviceProcessor.obj
 0002:000102a4       ??_C@_05MFEJDJP@value@     000000018006e2a4     DeviceProcessor.obj
 0002:000102ac       ??_C@_03BDGOHNNK@add@      000000018006e2ac     DeviceProcessor.obj
 0002:000102b0       ??_C@_07NAELLPPM@eq?9band@ 000000018006e2b0     DeviceProcessor.obj
 0002:000102b8       ??_C@_01GBGANLPD@0@        000000018006e2b8     DeviceProcessor.obj
 0002:000102bc       ??_C@_01HIHLOKLC@1@        000000018006e2bc     DeviceProcessor.obj
 0002:000102c8       ??_7DeviceProcessor@@6B@   000000018006e2c8     DeviceProcessor.obj
 0002:00013590       ?tab@?8??parseDestroyBuffer@LineParserInt@@QEAAHPEAD_N11@Z@4QBDB 0000000180071590     dllmain.obj
 0002:00013598       ??_C@_0M@CKCCJJMN@__mergesort@ 0000000180071598     dllmain.obj
 0002:000135a8       ??_C@_0BE@KFNMAODG@AddCustomizableMenu@ 00000001800715a8     dllmain.obj
 0002:000135c0       ??_C@_0BG@DFHPCEGO@AddExtensionsMainMenu@ 00000001800715c0     dllmain.obj
 0002:000135d8       ??_C@_0BE@HFDANIDF@AddMediaItemToTrack@ 00000001800715d8     dllmain.obj
 0002:000135f0       ??_C@_0BB@HMLCIKIJ@AddProjectMarker@ 00000001800715f0     dllmain.obj
 0002:00013608       ??_C@_0BC@HJGINNHP@AddProjectMarker2@ 0000000180071608     dllmain.obj
 0002:00013620       ??_C@_0BD@GEBEKOIO@AddRemoveReaScript@ 0000000180071620     dllmain.obj
 0002:00013638       ??_C@_0BD@EDDANDDK@AddTakeToMediaItem@ 0000000180071638     dllmain.obj
 0002:00013650       ??_C@_0BG@EDHLFCM@AddTempoTimeSigMarker@ 0000000180071650     dllmain.obj
 0002:00013668       ??_C@_0L@DPNOBLIG@adjustZoom@ 0000000180071668     dllmain.obj
 0002:00013678       ??_C@_0N@MBEEPBPE@AnyTrackSolo@ 0000000180071678     dllmain.obj
 0002:00013688       ??_C@_09GCINEGCC@APIExists@ 0000000180071688     dllmain.obj
 0002:00013698       ??_C@_07KIOHFEDH@APITest@  0000000180071698     dllmain.obj
 0002:000136a0       ??_C@_0L@JONGMIMN@ApplyNudge@ 00000001800716a0     dllmain.obj
 0002:000136b0       ??_C@_0L@BDEIDFPP@ArmCommand@ 00000001800716b0     dllmain.obj
 0002:000136c0       ??_C@_0L@FPJMNNKD@Audio_Init@ 00000001800716c0     dllmain.obj
 0002:000136d0       ??_C@_0BC@JGLPCECD@Audio_IsPreBuffer@ 00000001800716d0     dllmain.obj
 0002:000136e8       ??_C@_0BA@DDOLGBHB@Audio_IsRunning@ 00000001800716e8     dllmain.obj
 0002:000136f8       ??_C@_0L@IIBENBHO@Audio_Quit@ 00000001800716f8     dllmain.obj
 0002:00013708       ??_C@_0BG@PODLMOFI@Audio_RegHardwareHook@ 0000000180071708     dllmain.obj
 0002:00013720       ??_C@_0BK@MJIDHBBB@AudioAccessorStateChanged@ 0000000180071720     dllmain.obj
 0002:00013740       ??_C@_0BE@OGJKFFNM@AudioAccessorUpdate@ 0000000180071740     dllmain.obj
 0002:00013758       ??_C@_0BL@DEMLMDIN@AudioAccessorValidateState@ 0000000180071758     dllmain.obj
 0002:00013778       ??_C@_0BC@BMNJKJMP@BypassFxAllTracks@ 0000000180071778     dllmain.obj
 0002:00013790       ??_C@_0P@EJIJEDMG@CalculatePeaks@ 0000000180071790     dllmain.obj
 0002:000137a0       ??_C@_0BK@JHCPAPK@CalculatePeaksFloatSrcPtr@ 00000001800717a0     dllmain.obj
 0002:000137c0       ??_C@_0BB@JJJJFKJM@ClearAllRecArmed@ 00000001800717c0     dllmain.obj
 0002:000137d8       ??_C@_0N@HAAFJMDC@ClearConsole@ 00000001800717d8     dllmain.obj
 0002:000137e8       ??_C@_0P@DDLENADB@ClearPeakCache@ 00000001800717e8     dllmain.obj
 0002:000137f8       ??_C@_0BA@JEPNKEJD@ColorFromNative@ 00000001800717f8     dllmain.obj
 0002:00013808       ??_C@_0O@NFLEEIJL@ColorToNative@ 0000000180071808     dllmain.obj
 0002:00013818       ??_C@_0BF@LOJLBFFC@CountActionShortcuts@ 0000000180071818     dllmain.obj
 0002:00013830       ??_C@_0BF@DEGLIBLK@CountAutomationItems@ 0000000180071830     dllmain.obj
 0002:00013848       ??_C@_0BE@JCHKJKGO@CountEnvelopePoints@ 0000000180071848     dllmain.obj
 0002:00013860       ??_C@_0BG@HKBDBCNM@CountEnvelopePointsEx@ 0000000180071860     dllmain.obj
 0002:00013878       ??_C@_0BA@BKMJBOPI@CountMediaItems@ 0000000180071878     dllmain.obj
 0002:00013888       ??_C@_0BE@OGMAMEDM@CountProjectMarkers@ 0000000180071888     dllmain.obj
 0002:000138a0       ??_C@_0BI@KEGNBFHK@CountSelectedMediaItems@ 00000001800718a0     dllmain.obj
 0002:000138b8       ??_C@_0BE@MNKOOBLM@CountSelectedTracks@ 00000001800718b8     dllmain.obj
 0002:000138d0       ??_C@_0BF@CPGKAFDH@CountSelectedTracks2@ 00000001800718d0     dllmain.obj
 0002:000138e8       ??_C@_0BD@FAIDKCEM@CountTakeEnvelopes@ 00000001800718e8     dllmain.obj
 0002:00013900       ??_C@_0L@JCIOJML@CountTakes@ 0000000180071900     dllmain.obj
 0002:00013910       ??_C@_0BA@KCFGLCAD@CountTCPFXParms@ 0000000180071910     dllmain.obj
 0002:00013920       ??_C@_0BJ@MHECKPCP@CountTempoTimeSigMarkers@ 0000000180071920     dllmain.obj
 0002:00013940       ??_C@_0BE@LMDCLLEL@CountTrackEnvelopes@ 0000000180071940     dllmain.obj
 0002:00013958       ??_C@_0BF@CBAAEKMN@CountTrackMediaItems@ 0000000180071958     dllmain.obj
 0002:00013970       ??_C@_0M@PAABNMGE@CountTracks@ 0000000180071970     dllmain.obj
 0002:00013980       ??_C@_0BG@JCNJEHBP@CreateLocalOscHandler@ 0000000180071980     dllmain.obj
 0002:00013998       ??_C@_0BA@HOMOBOFN@CreateMIDIInput@ 0000000180071998     dllmain.obj
 0002:000139a8       ??_C@_0BB@JHKKKEAC@CreateMIDIOutput@ 00000001800719a8     dllmain.obj
 0002:000139c0       ??_C@_0BI@COEJEMCF@CreateNewMIDIItemInProj@ 00000001800719c0     dllmain.obj
 0002:000139d8       ??_C@_0BI@CGIPBFBE@CreateTakeAudioAccessor@ 00000001800719d8     dllmain.obj
 0002:000139f0       ??_C@_0BJ@KFKLNOPA@CreateTrackAudioAccessor@ 00000001800719f0     dllmain.obj
 0002:00013a10       ??_C@_0BA@PNOJMBPH@CreateTrackSend@ 0000000180071a10     dllmain.obj
 0002:00013a20       ??_C@_0BA@GBIOIFDJ@CSurf_FlushUndo@ 0000000180071a20     dllmain.obj
 0002:00013a30       ??_C@_0BE@FAHKBPEA@CSurf_GetTouchState@ 0000000180071a30     dllmain.obj
 0002:00013a48       ??_C@_0M@MJIKEIJG@CSurf_GoEnd@ 0000000180071a48     dllmain.obj
 0002:00013a58       ??_C@_0O@ILDLLDOP@CSurf_GoStart@ 0000000180071a58     dllmain.obj
 0002:00013a68       ??_C@_0BA@DONDOBGN@CSurf_NumTracks@ 0000000180071a68     dllmain.obj
 0002:00013a78       ??_C@_0O@ECIIGOEP@CSurf_OnArrow@ 0000000180071a78     dllmain.obj
 0002:00013a88       ??_C@_0M@BJPLNEFK@CSurf_OnFwd@ 0000000180071a88     dllmain.obj
 0002:00013a98       ??_C@_0BB@BNFGKKNI@CSurf_OnFXChange@ 0000000180071a98     dllmain.obj
 0002:00013ab0       ??_C@_0BL@PMBHKCBN@CSurf_OnInputMonitorChange@ 0000000180071ab0     dllmain.obj
 0002:00013ad0       ??_C@_0BN@FGADOOBK@CSurf_OnInputMonitorChangeEx@ 0000000180071ad0     dllmain.obj
 0002:00013af0       ??_C@_0BD@LEBNFEBH@CSurf_OnMuteChange@ 0000000180071af0     dllmain.obj
 0002:00013b08       ??_C@_0BF@PIDCBJLD@CSurf_OnMuteChangeEx@ 0000000180071b08     dllmain.obj
 0002:00013b20       ??_C@_0BK@GKAKBNBL@CSurf_OnOscControlMessage@ 0000000180071b20     dllmain.obj
 0002:00013b40       ??_C@_0BC@EMKHFDJE@CSurf_OnPanChange@ 0000000180071b40     dllmain.obj
 0002:00013b58       ??_C@_0BE@HGPILPCC@CSurf_OnPanChangeEx@ 0000000180071b58     dllmain.obj
 0002:00013b70       ??_C@_0O@FNFNEAFN@CSurf_OnPause@ 0000000180071b70     dllmain.obj
 0002:00013b80       ??_C@_0N@BLCJPBNG@CSurf_OnPlay@ 0000000180071b80     dllmain.obj
 0002:00013b90       ??_C@_0BH@MACMNAGK@CSurf_OnPlayRateChange@ 0000000180071b90     dllmain.obj
 0002:00013ba8       ??_C@_0BF@MFBDGICM@CSurf_OnRecArmChange@ 0000000180071ba8     dllmain.obj
 0002:00013bc0       ??_C@_0BH@OLOPPLAC@CSurf_OnRecArmChangeEx@ 0000000180071bc0     dllmain.obj
 0002:00013bd8       ??_C@_0P@PEBOLCGF@CSurf_OnRecord@ 0000000180071bd8     dllmain.obj
 0002:00013be8       ??_C@_0BG@PCEANJBD@CSurf_OnRecvPanChange@ 0000000180071be8     dllmain.obj
 0002:00013c00       ??_C@_0BJ@KGJJKAOL@CSurf_OnRecvVolumeChange@ 0000000180071c00     dllmain.obj
 0002:00013c20       ??_C@_0M@LIMNCCBO@CSurf_OnRew@ 0000000180071c20     dllmain.obj
 0002:00013c30       ??_C@_0P@LKIPKBHI@CSurf_OnRewFwd@ 0000000180071c30     dllmain.obj
 0002:00013c40       ??_C@_0P@HNBOAIM@CSurf_OnScroll@ 0000000180071c40     dllmain.obj
 0002:00013c50       ??_C@_0BH@GOELANIM@CSurf_OnSelectedChange@ 0000000180071c50     dllmain.obj
 0002:00013c68       ??_C@_0BG@HHKEEIB@CSurf_OnSendPanChange@ 0000000180071c68     dllmain.obj
 0002:00013c80       ??_C@_0BJ@FKONOBGF@CSurf_OnSendVolumeChange@ 0000000180071c80     dllmain.obj
 0002:00013ca0       ??_C@_0BD@POMJFGFK@CSurf_OnSoloChange@ 0000000180071ca0     dllmain.obj
 0002:00013cb8       ??_C@_0BF@FDOLADAD@CSurf_OnSoloChangeEx@ 0000000180071cb8     dllmain.obj
 0002:00013cd0       ??_C@_0N@BCHIGCDF@CSurf_OnStop@ 0000000180071cd0     dllmain.obj
 0002:00013ce0       ??_C@_0BE@CBPGPOEJ@CSurf_OnTempoChange@ 0000000180071ce0     dllmain.obj
 0002:00013cf8       ??_C@_0BH@IEBJOHKA@CSurf_OnTrackSelection@ 0000000180071cf8     dllmain.obj
 0002:00013d10       ??_C@_0BF@LNOBKKEK@CSurf_OnVolumeChange@ 0000000180071d10     dllmain.obj
 0002:00013d28       ??_C@_0BH@KNCCOMEN@CSurf_OnVolumeChangeEx@ 0000000180071d28     dllmain.obj
 0002:00013d40       ??_C@_0BE@PHEOMNKB@CSurf_OnWidthChange@ 0000000180071d40     dllmain.obj
 0002:00013d58       ??_C@_0BG@MDHOHIDO@CSurf_OnWidthChangeEx@ 0000000180071d58     dllmain.obj
 0002:00013d70       ??_C@_0N@GHBMLMMG@CSurf_OnZoom@ 0000000180071d70     dllmain.obj
 0002:00013d80       ??_C@_0CB@DOCAEMEN@CSurf_ResetAllCachedVolPanState@ 0000000180071d80     dllmain.obj
 0002:00013da8       ??_C@_0P@MJLBCKHH@CSurf_ScrubAmt@ 0000000180071da8     dllmain.obj
 0002:00013db8       ??_C@_0BC@ENAIMIIE@CSurf_SetAutoMode@ 0000000180071db8     dllmain.obj
 0002:00013dd0       ??_C@_0BD@OJOKEFJ@CSurf_SetPlayState@ 0000000180071dd0     dllmain.obj
 0002:00013de8       ??_C@_0BF@OFGGEOEE@CSurf_SetRepeatState@ 0000000180071de8     dllmain.obj
 0002:00013e00       ??_C@_0BF@OOFNHGNH@CSurf_SetSurfaceMute@ 0000000180071e00     dllmain.obj
 0002:00013e18       ??_C@_0BE@GHLOBAOA@CSurf_SetSurfacePan@ 0000000180071e18     dllmain.obj
 0002:00013e30       ??_C@_0BH@JPOJFNBP@CSurf_SetSurfaceRecArm@ 0000000180071e30     dllmain.obj
 0002:00013e48       ??_C@_0BJ@JKJCJOPL@CSurf_SetSurfaceSelected@ 0000000180071e48     dllmain.obj
 0002:00013e68       ??_C@_0BF@OGPDPCIN@CSurf_SetSurfaceSolo@ 0000000180071e68     dllmain.obj
 0002:00013e80       ??_C@_0BH@OIIHMMAI@CSurf_SetSurfaceVolume@ 0000000180071e80     dllmain.obj
 0002:00013e98       ??_C@_0BJ@PGIJFIMH@CSurf_SetTrackListChange@ 0000000180071e98     dllmain.obj
 0002:00013eb8       ??_C@_0BC@JHFKOCFC@CSurf_TrackFromID@ 0000000180071eb8     dllmain.obj
 0002:00013ed0       ??_C@_0BA@PMFFPKLB@CSurf_TrackToID@ 0000000180071ed0     dllmain.obj
 0002:00013ee0       ??_C@_09GJEGPDEA@DB2SLIDER@ 0000000180071ee0     dllmain.obj
 0002:00013ef0       ??_C@_0BF@IPNIILPM@DeleteActionShortcut@ 0000000180071ef0     dllmain.obj
 0002:00013f08       ??_C@_0BG@GDJFAFMC@DeleteEnvelopePointEx@ 0000000180071f08     dllmain.obj
 0002:00013f20       ??_C@_0BJ@JCPBNEGE@DeleteEnvelopePointRange@ 0000000180071f20     dllmain.obj
 0002:00013f40       ??_C@_0BL@BBJIJGEK@DeleteEnvelopePointRangeEx@ 0000000180071f40     dllmain.obj
 0002:00013f60       ??_C@_0P@IAGPFOLB@DeleteExtState@ 0000000180071f60     dllmain.obj
 0002:00013f70       ??_C@_0BE@GNNOPNGJ@DeleteProjectMarker@ 0000000180071f70     dllmain.obj
 0002:00013f88       ??_C@_0BL@EJAILFJG@DeleteProjectMarkerByIndex@ 0000000180071f88     dllmain.obj
 0002:00013fa8       ??_C@_0BB@PEGEHFLL@DeleteTakeMarker@ 0000000180071fa8     dllmain.obj
 0002:00013fc0       ??_C@_0BJ@JBENLBCJ@DeleteTakeStretchMarkers@ 0000000180071fc0     dllmain.obj
 0002:00013fe0       ??_C@_0BJ@MIBPPLIC@DeleteTempoTimeSigMarker@ 0000000180071fe0     dllmain.obj
 0002:00014000       ??_C@_0M@OBHIPNGF@DeleteTrack@ 0000000180072000     dllmain.obj
 0002:00014010       ??_C@_0BF@KLGDLBLK@DeleteTrackMediaItem@ 0000000180072010     dllmain.obj
 0002:00014028       ??_C@_0BF@IFOEENIJ@DestroyAudioAccessor@ 0000000180072028     dllmain.obj
 0002:00014040       ??_C@_0BH@EMPKNCFP@DestroyLocalOscHandler@ 0000000180072040     dllmain.obj
 0002:00014058       ??_C@_0BH@NLGDDKBP@DoActionShortcutDialog@ 0000000180072058     dllmain.obj
 0002:00014070       ??_C@_0BC@CKPEEIFM@Dock_UpdateDockID@ 0000000180072070     dllmain.obj
 0002:00014088       ??_C@_0BA@HIKFFLG@DockGetPosition@ 0000000180072088     dllmain.obj
 0002:00014098       ??_C@_0BC@PIJKOHLE@DockIsChildOfDock@ 0000000180072098     dllmain.obj
 0002:000140b0       ??_C@_0BD@PCAGDHME@DockWindowActivate@ 00000001800720b0     dllmain.obj
 0002:000140c8       ??_C@_0O@LNMMFNNL@DockWindowAdd@ 00000001800720c8     dllmain.obj
 0002:000140d8       ??_C@_0BA@OGKBDAIE@DockWindowAddEx@ 00000001800720d8     dllmain.obj
 0002:000140e8       ??_C@_0BC@CKFMMLEH@DockWindowRefresh@ 00000001800720e8     dllmain.obj
 0002:00014100       ??_C@_0BJ@MMEBJNOE@DockWindowRefreshForHWND@ 0000000180072100     dllmain.obj
 0002:00014120       ??_C@_0BB@KHNCCMDM@DockWindowRemove@ 0000000180072120     dllmain.obj
 0002:00014138       ??_C@_0BK@FEEDLKML@DuplicateCustomizableMenu@ 0000000180072138     dllmain.obj
 0002:00014158       ??_C@_0BH@MLFKDCIK@EditTempoTimeSigMarker@ 0000000180072158     dllmain.obj
 0002:00014170       ??_C@_0BN@NPADHKOM@EnsureNotCompletelyOffscreen@ 0000000180072170     dllmain.obj
 0002:00014190       ??_C@_0P@JIFONACO@EnumerateFiles@ 0000000180072190     dllmain.obj
 0002:000141a0       ??_C@_0BI@MNCCOIF@EnumerateSubdirectories@ 00000001800721a0     dllmain.obj
 0002:000141b8       ??_C@_0BE@EEDALMGM@EnumPitchShiftModes@ 00000001800721b8     dllmain.obj
 0002:000141d0       ??_C@_0BH@HFGINMFA@EnumPitchShiftSubModes@ 00000001800721d0     dllmain.obj
 0002:000141e8       ??_C@_0BD@LICOIEDD@EnumProjectMarkers@ 00000001800721e8     dllmain.obj
 0002:00014200       ??_C@_0BE@FCBIBLOD@EnumProjectMarkers2@ 0000000180072200     dllmain.obj
 0002:00014218       ??_C@_0BE@ELADCKKC@EnumProjectMarkers3@ 0000000180072218     dllmain.obj
 0002:00014230       ??_C@_0N@FNDLNIGA@EnumProjects@ 0000000180072230     dllmain.obj
 0002:00014240       ??_C@_0BB@PBOCHCBF@EnumProjExtState@ 0000000180072240     dllmain.obj
 0002:00014258       ??_C@_0BH@BJOIPEKI@EnumRegionRenderMatrix@ 0000000180072258     dllmain.obj
 0002:00014270       ??_C@_0BK@LFJCGOAM@EnumTrackMIDIProgramNames@ 0000000180072270     dllmain.obj
 0002:00014290       ??_C@_0BM@JHAIAKBE@EnumTrackMIDIProgramNamesEx@ 0000000180072290     dllmain.obj
 0002:000142b0       ??_C@_0BC@JOHGCOIE@Envelope_Evaluate@ 00000001800722b0     dllmain.obj
 0002:000142c8       ??_C@_0BF@GECJJLFG@Envelope_FormatValue@ 00000001800722c8     dllmain.obj
 0002:000142e0       ??_C@_0BH@GOPBAHFH@Envelope_GetParentTake@ 00000001800722e0     dllmain.obj
 0002:000142f8       ??_C@_0BI@DPBIPGLI@Envelope_GetParentTrack@ 00000001800722f8     dllmain.obj
 0002:00014310       ??_C@_0BE@JLMGHHLG@Envelope_SortPoints@ 0000000180072310     dllmain.obj
 0002:00014328       ??_C@_0BG@ONEJMKLC@Envelope_SortPointsEx@ 0000000180072328     dllmain.obj
 0002:00014340       ??_C@_0M@GNJHEBEI@ExecProcess@ 0000000180072340     dllmain.obj
 0002:00014350       ??_C@_0M@LNEIIFKD@file_exists@ 0000000180072350     dllmain.obj
 0002:00014360       ??_C@_0BH@MGFEPHAK@FindTempoTimeSigMarker@ 0000000180072360     dllmain.obj
 0002:00014378       ??_C@_0P@NJBALGCN@format_timestr@ 0000000180072378     dllmain.obj
 0002:00014388       ??_C@_0BD@FIJHNCCD@format_timestr_len@ 0000000180072388     dllmain.obj
 0002:000143a0       ??_C@_0BD@LAKDNDMO@format_timestr_pos@ 00000001800723a0     dllmain.obj
 0002:000143b8       ??_C@_0M@EAHAJJBN@FreeHeapPtr@ 00000001800723b8     dllmain.obj
 0002:000143c8       ??_C@_07FLCGAOKH@genGuid@  00000001800723c8     dllmain.obj
 0002:000143d0       ??_C@_0P@NOEPDOJ@get_config_var@ 00000001800723d0     dllmain.obj
 0002:000143e0       ??_C@_0BG@EGPMEFNG@get_config_var_string@ 00000001800723e0     dllmain.obj
 0002:000143f8       ??_C@_0N@OKFCCDHH@get_ini_file@ 00000001800723f8     dllmain.obj
 0002:00014408       ??_C@_0BE@LDKNFGOA@get_midi_config_var@ 0000000180072408     dllmain.obj
 0002:00014420       ??_C@_0BG@GNBPKHJI@GetActionShortcutDesc@ 0000000180072420     dllmain.obj
 0002:00014438       ??_C@_0O@LENNGBGM@GetActiveTake@ 0000000180072438     dllmain.obj
 0002:00014448       ??_C@_0BI@JFOLNKBN@GetAllProjectPlayStates@ 0000000180072448     dllmain.obj
 0002:00014460       ??_C@_0O@GDAIFFMG@GetAppVersion@ 0000000180072460     dllmain.obj
 0002:00014470       ??_C@_0BA@IILEGAGA@GetArmedCommand@ 0000000180072470     dllmain.obj
 0002:00014480       ??_C@_0BI@MHHEFADP@GetAudioAccessorEndTime@ 0000000180072480     dllmain.obj
 0002:00014498       ??_C@_0BF@HBCFLFBA@GetAudioAccessorHash@ 0000000180072498     dllmain.obj
 0002:000144b0       ??_C@_0BI@LNPDNECL@GetAudioAccessorSamples@ 00000001800724b0     dllmain.obj
 0002:000144c8       ??_C@_0BK@MFEMDEKF@GetAudioAccessorStartTime@ 00000001800724c8     dllmain.obj
 0002:000144e8       ??_C@_0BD@BKFACHLM@GetAudioDeviceInfo@ 00000001800724e8     dllmain.obj
 0002:00014500       ??_C@_0O@PDKNJPLE@GetColorTheme@ 0000000180072500     dllmain.obj
 0002:00014510       ??_C@_0BE@IGDBHLIE@GetColorThemeStruct@ 0000000180072510     dllmain.obj
 0002:00014528       ??_C@_0BD@EAIGDAEH@GetConfigWantsDock@ 0000000180072528     dllmain.obj
 0002:00014540       ??_C@_0P@IGPAFBNJ@GetContextMenu@ 0000000180072540     dllmain.obj
 0002:00014550       ??_C@_0BM@BJNCDENG@GetCurrentProjectInLoadSave@ 0000000180072550     dllmain.obj
 0002:00014570       ??_C@_0BB@LGPOCJCF@GetCursorContext@ 0000000180072570     dllmain.obj
 0002:00014588       ??_C@_0BC@KGMCHOBP@GetCursorContext2@ 0000000180072588     dllmain.obj
 0002:000145a0       ??_C@_0BC@DJJGDMOB@GetCursorPosition@ 00000001800725a0     dllmain.obj
 0002:000145b8       ??_C@_0BE@PJLNDLGJ@GetCursorPositionEx@ 00000001800725b8     dllmain.obj
 0002:000145d0       ??_C@_0BL@FNEKPHCI@GetDisplayedMediaItemColor@ 00000001800725d0     dllmain.obj
 0002:000145f0       ??_C@_0BM@NIJILGHM@GetDisplayedMediaItemColor2@ 00000001800725f0     dllmain.obj
 0002:00014610       ??_C@_0BG@JJNOCGCL@GetEnvelopeInfo_Value@ 0000000180072610     dllmain.obj
 0002:00014628       ??_C@_0BA@DJDAIIID@GetEnvelopeName@ 0000000180072628     dllmain.obj
 0002:00014638       ??_C@_0BB@DKAAPLNM@GetEnvelopePoint@ 0000000180072638     dllmain.obj
 0002:00014650       ??_C@_0BH@FPGFPDBE@GetEnvelopePointByTime@ 0000000180072650     dllmain.obj
 0002:00014668       ??_C@_0BJ@JLKNJHED@GetEnvelopePointByTimeEx@ 0000000180072668     dllmain.obj
 0002:00014688       ??_C@_0BD@JGFFCHFC@GetEnvelopePointEx@ 0000000180072688     dllmain.obj
 0002:000146a0       ??_C@_0BH@IOPFFOAI@GetEnvelopeScalingMode@ 00000001800726a0     dllmain.obj
 0002:000146b8       ??_C@_0BG@FBECJJLO@GetEnvelopeStateChunk@ 00000001800726b8     dllmain.obj
 0002:000146d0       ??_C@_0L@FCBMKNDA@GetExePath@ 00000001800726d0     dllmain.obj
 0002:000146e0       ??_C@_0M@KDMHLDHM@GetExtState@ 00000001800726e0     dllmain.obj
 0002:000146f0       ??_C@_0N@FAGALEIJ@GetFocusedFX@ 00000001800726f0     dllmain.obj
 0002:00014700       ??_C@_0BO@IHGALOLB@GetFreeDiskSpaceForRecordPath@ 0000000180072700     dllmain.obj
 0002:00014720       ??_C@_0O@FPIHBIEN@GetFXEnvelope@ 0000000180072720     dllmain.obj
 0002:00014730       ??_C@_0BM@NKIFEDLJ@GetGlobalAutomationOverride@ 0000000180072730     dllmain.obj
 0002:00014750       ??_C@_0O@HMCFNHKJ@GetHZoomLevel@ 0000000180072750     dllmain.obj
 0002:00014760       ??_C@_0BE@KMLDPJPE@GetIconThemePointer@ 0000000180072760     dllmain.obj
 0002:00014778       ??_C@_0BK@BAJIHHKG@GetIconThemePointerForDPI@ 0000000180072778     dllmain.obj
 0002:00014798       ??_C@_0BD@DDGKKMBG@GetIconThemeStruct@ 0000000180072798     dllmain.obj
 0002:000147b0       ??_C@_0BE@NMNFDFJM@GetInputChannelName@ 00000001800727b0     dllmain.obj
 0002:000147c8       ??_C@_0BG@JONCBAGI@GetInputOutputLatency@ 00000001800727c8     dllmain.obj
 0002:000147e0       ??_C@_0BE@IDAJAOKG@GetItemEditingTime2@ 00000001800727e0     dllmain.obj
 0002:000147f8       ??_C@_0BB@MMGMCPJL@GetItemFromPoint@ 00000001800727f8     dllmain.obj
 0002:00014810       ??_C@_0BG@FAMEBGBG@GetItemProjectContext@ 0000000180072810     dllmain.obj
 0002:00014828       ??_C@_0BC@LJGNONOD@GetItemStateChunk@ 0000000180072828     dllmain.obj
 0002:00014840       ??_C@_0BG@NCIGBFAM@GetLastColorThemeFile@ 0000000180072840     dllmain.obj
 0002:00014858       ??_C@_0BK@NHGBKGNK@GetLastMarkerAndCurRegion@ 0000000180072858     dllmain.obj
 0002:00014878       ??_C@_0BB@ELHFHNGK@GetLastTouchedFX@ 0000000180072878     dllmain.obj
 0002:00014890       ??_C@_0BE@HFNDAPPD@GetLastTouchedTrack@ 0000000180072890     dllmain.obj
 0002:000148a8       ??_C@_0M@NMAPJIDK@GetMainHwnd@ 00000001800728a8     dllmain.obj
 0002:000148b8       ??_C@_0BH@BINAGDLL@GetMasterMuteSoloFlags@ 00000001800728b8     dllmain.obj
 0002:000148d0       ??_C@_0P@DMLBONGN@GetMasterTrack@ 00000001800728d0     dllmain.obj
 0002:000148e0       ??_C@_0BJ@KFLHKPJG@GetMasterTrackVisibility@ 00000001800728e0     dllmain.obj
 0002:00014900       ??_C@_0BB@GMCNJPOK@GetMaxMidiInputs@ 0000000180072900     dllmain.obj
 0002:00014918       ??_C@_0BC@JJFHBPJ@GetMaxMidiOutputs@ 0000000180072918     dllmain.obj
 0002:00014930       ??_C@_0N@BFBJDGEG@GetMediaItem@ 0000000180072930     dllmain.obj
 0002:00014940       ??_C@_0BD@EOAOOKLK@GetMediaItem_Track@ 0000000180072940     dllmain.obj
 0002:00014958       ??_C@_0BH@EMFMFPON@GetMediaItemInfo_Value@ 0000000180072958     dllmain.obj
 0002:00014970       ??_C@_0BF@CFHNDNAH@GetMediaItemNumTakes@ 0000000180072970     dllmain.obj
 0002:00014988       ??_C@_0BB@HKEFJBHO@GetMediaItemTake@ 0000000180072988     dllmain.obj
 0002:000149a0       ??_C@_0BG@DCLGKNMI@GetMediaItemTake_Item@ 00000001800729a0     dllmain.obj
 0002:000149b8       ??_C@_0BH@GDCJNAJO@GetMediaItemTake_Peaks@ 00000001800729b8     dllmain.obj
 0002:000149d0       ??_C@_0BI@DLHKLLKN@GetMediaItemTake_Source@ 00000001800729d0     dllmain.obj
 0002:000149e8       ??_C@_0BH@KGHABAPL@GetMediaItemTake_Track@ 00000001800729e8     dllmain.obj
 0002:00014a00       ??_C@_0BH@CKAFFIEG@GetMediaItemTakeByGUID@ 0000000180072a00     dllmain.obj
 0002:00014a18       ??_C@_0BL@MIMKKIIB@GetMediaItemTakeInfo_Value@ 0000000180072a18     dllmain.obj
 0002:00014a38       ??_C@_0BC@HNLONKEC@GetMediaItemTrack@ 0000000180072a38     dllmain.obj
 0002:00014a50       ??_C@_0BH@OMNGJBOO@GetMediaSourceFileName@ 0000000180072a50     dllmain.obj
 0002:00014a68       ??_C@_0BF@HLEBDCOM@GetMediaSourceLength@ 0000000180072a68     dllmain.obj
 0002:00014a80       ??_C@_0BK@JPCFLGDH@GetMediaSourceNumChannels@ 0000000180072a80     dllmain.obj
 0002:00014aa0       ??_C@_0BF@LIHBEPLD@GetMediaSourceParent@ 0000000180072aa0     dllmain.obj
 0002:00014ab8       ??_C@_0BJ@IMHBBPNK@GetMediaSourceSampleRate@ 0000000180072ab8     dllmain.obj
 0002:00014ad8       ??_C@_0BD@CPGIODEB@GetMediaSourceType@ 0000000180072ad8     dllmain.obj
 0002:00014af0       ??_C@_0BI@MMPEABBF@GetMediaTrackInfo_Value@ 0000000180072af0     dllmain.obj
 0002:00014b08       ??_C@_0BB@JOKGKJOH@GetMIDIInputName@ 0000000180072b08     dllmain.obj
 0002:00014b20       ??_C@_0BC@EPNIAO@GetMIDIOutputName@ 0000000180072b20     dllmain.obj
 0002:00014b38       ??_C@_0P@GHCADKCL@GetMixerScroll@ 0000000180072b38     dllmain.obj
 0002:00014b48       ??_C@_0BB@MCIGDFLI@GetMouseModifier@ 0000000180072b48     dllmain.obj
 0002:00014b60       ??_C@_0BB@MMLACOLH@GetMousePosition@ 0000000180072b60     dllmain.obj
 0002:00014b78       ??_C@_0BC@FLMACKDO@GetNumAudioInputs@ 0000000180072b78     dllmain.obj
 0002:00014b90       ??_C@_0BD@IIBMIKIB@GetNumAudioOutputs@ 0000000180072b90     dllmain.obj
 0002:00014ba8       ??_C@_0BB@MEJDAPLE@GetNumMIDIInputs@ 0000000180072ba8     dllmain.obj
 0002:00014bc0       ??_C@_0BC@IFOOLDJK@GetNumMIDIOutputs@ 0000000180072bc0     dllmain.obj
 0002:00014bd8       ??_C@_0BC@LGNKPCIM@GetNumTakeMarkers@ 0000000180072bd8     dllmain.obj
 0002:00014bf0       ??_C@_0N@ODPHHJIO@GetNumTracks@ 0000000180072bf0     dllmain.obj
 0002:00014c00       ??_C@_05DLPGPBE@GetOS@     0000000180072c00     dllmain.obj
 0002:00014c08       ??_C@_0BF@CLNMONME@GetOutputChannelName@ 0000000180072c08     dllmain.obj
 0002:00014c20       ??_C@_0BB@KNEMFAKB@GetOutputLatency@ 0000000180072c20     dllmain.obj
 0002:00014c38       ??_C@_0P@MEMFBFBP@GetParentTrack@ 0000000180072c38     dllmain.obj
 0002:00014c48       ??_C@_0BA@JEACPLP@GetPeakFileName@ 0000000180072c48     dllmain.obj
 0002:00014c58       ??_C@_0BC@FJDLDKLL@GetPeakFileNameEx@ 0000000180072c58     dllmain.obj
 0002:00014c70       ??_C@_0BD@LBJKAFEP@GetPeakFileNameEx2@ 0000000180072c70     dllmain.obj
 0002:00014c88       ??_C@_0P@ILIKHCOJ@GetPeaksBitmap@ 0000000180072c88     dllmain.obj
 0002:00014c98       ??_C@_0BA@IGAGNPLG@GetPlayPosition@ 0000000180072c98     dllmain.obj
 0002:00014ca8       ??_C@_0BB@MPPEEEBH@GetPlayPosition2@ 0000000180072ca8     dllmain.obj
 0002:00014cc0       ??_C@_0BD@OFIFHCDO@GetPlayPosition2Ex@ 0000000180072cc0     dllmain.obj
 0002:00014cd8       ??_C@_0BC@DFEEPMKI@GetPlayPositionEx@ 0000000180072cd8     dllmain.obj
 0002:00014cf0       ??_C@_0N@OGCNCGJM@GetPlayState@ 0000000180072cf0     dllmain.obj
 0002:00014d00       ??_C@_0P@JOEOBKBD@GetPlayStateEx@ 0000000180072d00     dllmain.obj
 0002:00014d10       ??_C@_0BJ@GPMNEOIB@GetPreferredDiskReadMode@ 0000000180072d10     dllmain.obj
 0002:00014d30       ??_C@_0BN@HHEPHPNP@GetPreferredDiskReadModePeak@ 0000000180072d30     dllmain.obj
 0002:00014d50       ??_C@_0BK@JONEJEJE@GetPreferredDiskWriteMode@ 0000000180072d50     dllmain.obj
 0002:00014d70       ??_C@_0BB@EOGFIMFK@GetProjectLength@ 0000000180072d70     dllmain.obj
 0002:00014d88       ??_C@_0P@PGELJMHP@GetProjectName@ 0000000180072d88     dllmain.obj
 0002:00014d98       ??_C@_0P@IPMCFDCO@GetProjectPath@ 0000000180072d98     dllmain.obj
 0002:00014da8       ??_C@_0BB@GINCDKHF@GetProjectPathEx@ 0000000180072da8     dllmain.obj
 0002:00014dc0       ??_C@_0BL@PBPLIAMI@GetProjectStateChangeCount@ 0000000180072dc0     dllmain.obj
 0002:00014de0       ??_C@_0BF@EKAJKIJB@GetProjectTimeOffset@ 0000000180072de0     dllmain.obj
 0002:00014df8       ??_C@_0BI@EDNEDOIL@GetProjectTimeSignature@ 0000000180072df8     dllmain.obj
 0002:00014e10       ??_C@_0BJ@JHFJNKOH@GetProjectTimeSignature2@ 0000000180072e10     dllmain.obj
 0002:00014e30       ??_C@_0BA@DLJMGIEF@GetProjExtState@ 0000000180072e30     dllmain.obj
 0002:00014e40       ??_C@_0BA@CPMBCJFG@GetResourcePath@ 0000000180072e40     dllmain.obj
 0002:00014e50       ??_C@_0BE@HOJDFLBJ@GetSelectedEnvelope@ 0000000180072e50     dllmain.obj
 0002:00014e68       ??_C@_0BF@KBIHPCFH@GetSelectedMediaItem@ 0000000180072e68     dllmain.obj
 0002:00014e80       ??_C@_0BB@OLPDCBOF@GetSelectedTrack@ 0000000180072e80     dllmain.obj
 0002:00014e98       ??_C@_0BC@DNPLLBKH@GetSelectedTrack2@ 0000000180072e98     dllmain.obj
 0002:00014eb0       ??_C@_0BJ@JLOBIBMG@GetSelectedTrackEnvelope@ 0000000180072eb0     dllmain.obj
 0002:00014ed0       ??_C@_0BE@ENLJJBKL@GetSet_ArrangeView2@ 0000000180072ed0     dllmain.obj
 0002:00014ee8       ??_C@_0BF@MBPLNFAM@GetSet_LoopTimeRange@ 0000000180072ee8     dllmain.obj
 0002:00014f00       ??_C@_0BG@OEAHODIP@GetSet_LoopTimeRange2@ 0000000180072f00     dllmain.obj
 0002:00014f18       ??_C@_0BJ@MFCDKJA@GetSetAutomationItemInfo@ 0000000180072f18     dllmain.obj
 0002:00014f38       ??_C@_0CA@OBGNDMBP@GetSetAutomationItemInfo_String@ 0000000180072f38     dllmain.obj
 0002:00014f58       ??_C@_0BK@BFNJADHN@GetSetEnvelopeInfo_String@ 0000000180072f58     dllmain.obj
 0002:00014f78       ??_C@_0BE@MNGBIEHH@GetSetEnvelopeState@ 0000000180072f78     dllmain.obj
 0002:00014f90       ??_C@_0BF@CDNMNBGK@GetSetEnvelopeState2@ 0000000180072f90     dllmain.obj
 0002:00014fa8       ??_C@_0BA@PLNJNCNC@GetSetItemState@ 0000000180072fa8     dllmain.obj
 0002:00014fb8       ??_C@_0BB@IFFGDOFL@GetSetItemState2@ 0000000180072fb8     dllmain.obj
 0002:00014fd0       ??_C@_0BE@KJHICPAN@GetSetMediaItemInfo@ 0000000180072fd0     dllmain.obj
 0002:00014fe8       ??_C@_0BL@MNKNGGFJ@GetSetMediaItemInfo_String@ 0000000180072fe8     dllmain.obj
 0002:00015008       ??_C@_0BI@ONFBLOGM@GetSetMediaItemTakeInfo@ 0000000180073008     dllmain.obj
 0002:00015020       ??_C@_0BP@OOPBGGPB@GetSetMediaItemTakeInfo_String@ 0000000180073020     dllmain.obj
 0002:00015040       ??_C@_0BF@BKKCDBMG@GetSetMediaTrackInfo@ 0000000180073040     dllmain.obj
 0002:00015058       ??_C@_0BM@PGOJEIEP@GetSetMediaTrackInfo_String@ 0000000180073058     dllmain.obj
 0002:00015078       ??_C@_0BC@DABBIAKD@GetSetObjectState@ 0000000180073078     dllmain.obj
 0002:00015090       ??_C@_0BD@KCJPLHKD@GetSetObjectState2@ 0000000180073090     dllmain.obj
 0002:000150a8       ??_C@_0BE@BPBAEAPB@GetSetProjectAuthor@ 00000001800730a8     dllmain.obj
 0002:000150c0       ??_C@_0BC@OIMJHHM@GetSetProjectGrid@ 00000001800730c0     dllmain.obj
 0002:000150d8       ??_C@_0BC@EDNLFPMM@GetSetProjectInfo@ 00000001800730d8     dllmain.obj
 0002:000150f0       ??_C@_0BJ@CCKALLLN@GetSetProjectInfo_String@ 00000001800730f0     dllmain.obj
 0002:00015110       ??_C@_0BD@EBGBHMDL@GetSetProjectNotes@ 0000000180073110     dllmain.obj
 0002:00015128       ??_C@_0N@LJKNOOEB@GetSetRepeat@ 0000000180073128     dllmain.obj
 0002:00015138       ??_C@_0P@DPGHLEED@GetSetRepeatEx@ 0000000180073138     dllmain.obj
 0002:00015148       ??_C@_0BL@MIIGHGCL@GetSetTrackGroupMembership@ 0000000180073148     dllmain.obj
 0002:00015168       ??_C@_0BP@BBDINOJJ@GetSetTrackGroupMembershipHigh@ 0000000180073168     dllmain.obj
 0002:00015188       ??_C@_0BL@FPNBLAPC@GetSetTrackMIDISupportFile@ 0000000180073188     dllmain.obj
 0002:000151a8       ??_C@_0BE@GJDBAPJG@GetSetTrackSendInfo@ 00000001800731a8     dllmain.obj
 0002:000151c0       ??_C@_0BL@EGAJFJH@GetSetTrackSendInfo_String@ 00000001800731c0     dllmain.obj
 0002:000151e0       ??_C@_0BB@DLAOHNO@GetSetTrackState@ 00000001800731e0     dllmain.obj
 0002:000151f8       ??_C@_0BC@IMBIBLEF@GetSetTrackState2@ 00000001800731f8     dllmain.obj
 0002:00015210       ??_C@_0BI@DINEJHPI@GetSubProjectFromSource@ 0000000180073210     dllmain.obj
 0002:00015228       ??_C@_07OCLJIFLJ@GetTake@  0000000180073228     dllmain.obj
 0002:00015230       ??_C@_0BA@IJFPNLEJ@GetTakeEnvelope@ 0000000180073230     dllmain.obj
 0002:00015240       ??_C@_0BG@GIJNKDJB@GetTakeEnvelopeByName@ 0000000180073240     dllmain.obj
 0002:00015258       ??_C@_0O@FEILGBNF@GetTakeMarker@ 0000000180073258     dllmain.obj
 0002:00015268       ??_C@_0M@MAFLPPAB@GetTakeName@ 0000000180073268     dllmain.obj
 0002:00015278       ??_C@_0BJ@CAGPIPEG@GetTakeNumStretchMarkers@ 0000000180073278     dllmain.obj
 0002:00015298       ??_C@_0BF@EEPAKAPG@GetTakeStretchMarker@ 0000000180073298     dllmain.obj
 0002:000152b0       ??_C@_0BK@FCCILFNL@GetTakeStretchMarkerSlope@ 00000001800732b0     dllmain.obj
 0002:000152d0       ??_C@_0N@DHBAMCHB@GetTCPFXParm@ 00000001800732d0     dllmain.obj
 0002:000152e0       ??_C@_0BG@PMFBIIMH@GetTempoMatchPlayRate@ 00000001800732e0     dllmain.obj
 0002:000152f8       ??_C@_0BG@JNKMHBH@GetTempoTimeSigMarker@ 00000001800732f8     dllmain.obj
 0002:00015310       ??_C@_0O@NLPLHKC@GetThemeColor@ 0000000180073310     dllmain.obj
 0002:00015320       ??_C@_0BG@PDHAAPNM@GetToggleCommandState@ 0000000180073320     dllmain.obj
 0002:00015338       ??_C@_0BH@GCOGLKIB@GetToggleCommandState2@ 0000000180073338     dllmain.obj
 0002:00015350       ??_C@_0BI@CMIFNICH@GetToggleCommandStateEx@ 0000000180073350     dllmain.obj
 0002:00015368       ??_C@_0CC@PBEMKJDE@GetToggleCommandStateThroughHoo@ 0000000180073368     dllmain.obj
 0002:00015390       ??_C@_0BB@EINIIELK@GetTooltipWindow@ 0000000180073390     dllmain.obj
 0002:000153a8       ??_C@_08HICGHBEF@GetTrack@ 00000001800733a8     dllmain.obj
 0002:000153b8       ??_C@_0BH@DACOCBEI@GetTrackAutomationMode@ 00000001800733b8     dllmain.obj
 0002:000153d0       ??_C@_0O@CFGKJOOA@GetTrackColor@ 00000001800733d0     dllmain.obj
 0002:000153e0       ??_C@_0O@MIEOOIJE@GetTrackDepth@ 00000001800733e0     dllmain.obj
 0002:000153f0       ??_C@_0BB@MGCMFPKB@GetTrackEnvelope@ 00000001800733f0     dllmain.obj
 0002:00015408       ??_C@_0BM@KDHLLEG@GetTrackEnvelopeByChunkName@ 0000000180073408     dllmain.obj
 0002:00015428       ??_C@_0BH@NEKAOJKD@GetTrackEnvelopeByName@ 0000000180073428     dllmain.obj
 0002:00015440       ??_C@_0BC@EJGAFNPA@GetTrackFromPoint@ 0000000180073440     dllmain.obj
 0002:00015458       ??_C@_0N@JJKHJHMF@GetTrackGUID@ 0000000180073458     dllmain.obj
 0002:00015468       ??_C@_0N@EENMKKLA@GetTrackInfo@ 0000000180073468     dllmain.obj
 0002:00015478       ??_C@_0BC@GEIFHGON@GetTrackMediaItem@ 0000000180073478     dllmain.obj
 0002:00015490       ??_C@_0BD@JBDDAKMO@GetTrackMIDILyrics@ 0000000180073490     dllmain.obj
 0002:000154a8       ??_C@_0BF@KOFINELG@GetTrackMIDINoteName@ 00000001800734a8     dllmain.obj
 0002:000154c0       ??_C@_0BH@KCJGANHO@GetTrackMIDINoteNameEx@ 00000001800734c0     dllmain.obj
 0002:000154d8       ??_C@_0BG@FPADGIOP@GetTrackMIDINoteRange@ 00000001800734d8     dllmain.obj
 0002:000154f0       ??_C@_0N@FICFGBJN@GetTrackName@ 00000001800734f0     dllmain.obj
 0002:00015500       ??_C@_0BG@KKOGLALC@GetTrackNumMediaItems@ 0000000180073500     dllmain.obj
 0002:00015518       ??_C@_0BB@GAEJHLOK@GetTrackNumSends@ 0000000180073518     dllmain.obj
 0002:00015530       ??_C@_0BE@MJNENOMB@GetTrackReceiveName@ 0000000180073530     dllmain.obj
 0002:00015548       ??_C@_0BG@OHAGLIJC@GetTrackReceiveUIMute@ 0000000180073548     dllmain.obj
 0002:00015560       ??_C@_0BI@GEFHOOAH@GetTrackReceiveUIVolPan@ 0000000180073560     dllmain.obj
 0002:00015578       ??_C@_0BH@INIPBHJO@GetTrackSendInfo_Value@ 0000000180073578     dllmain.obj
 0002:00015590       ??_C@_0BB@JENBECHE@GetTrackSendName@ 0000000180073590     dllmain.obj
 0002:000155a8       ??_C@_0BD@IHANGAAF@GetTrackSendUIMute@ 00000001800735a8     dllmain.obj
 0002:000155c0       ??_C@_0BF@NCFPMIDH@GetTrackSendUIVolPan@ 00000001800735c0     dllmain.obj
 0002:000155d8       ??_C@_0O@NGBGCKDC@GetTrackState@ 00000001800735d8     dllmain.obj
 0002:000155e8       ??_C@_0BD@GDIIFJEB@GetTrackStateChunk@ 00000001800735e8     dllmain.obj
 0002:00015600       ??_C@_0P@KKNGJFCG@GetTrackUIMute@ 0000000180073600     dllmain.obj
 0002:00015610       ??_C@_0O@OIHAJCIM@GetTrackUIPan@ 0000000180073610     dllmain.obj
 0002:00015620       ??_C@_0BB@KBCBJEBO@GetTrackUIVolPan@ 0000000180073620     dllmain.obj
 0002:00015638       ??_C@_0BA@CPAKJGOC@GetUnderrunTime@ 0000000180073638     dllmain.obj
 0002:00015648       ??_C@_0BH@PCOHKEL@GetUserFileNameForRead@ 0000000180073648     dllmain.obj
 0002:00015660       ??_C@_0O@MDACBBGM@GetUserInputs@ 0000000180073660     dllmain.obj
 0002:00015670       ??_C@_0L@LHMGKGLL@GoToMarker@ 0000000180073670     dllmain.obj
 0002:00015680       ??_C@_0L@FECIAAHI@GoToRegion@ 0000000180073680     dllmain.obj
 0002:00015690       ??_C@_0P@NNJPODHE@GR_SelectColor@ 0000000180073690     dllmain.obj
 0002:000156a0       ??_C@_0M@CDANFLOH@GSC_mainwnd@ 00000001800736a0     dllmain.obj
 0002:000156b0       ??_C@_0N@MFEFJBNE@guidToString@ 00000001800736b0     dllmain.obj
 0002:000156c0       ??_C@_0M@IDFGEEPG@HasExtState@ 00000001800736c0     dllmain.obj
 0002:000156d0       ??_C@_0BF@DFHKAPPM@HasTrackMIDIPrograms@ 00000001800736d0     dllmain.obj
 0002:000156e8       ??_C@_0BH@LJABDKIP@HasTrackMIDIProgramsEx@ 00000001800736e8     dllmain.obj
 0002:00015700       ??_C@_08MFDHICKO@Help_Set@ 0000000180073700     dllmain.obj
 0002:00015710       ??_C@_0BF@NPBMENLH@HiresPeaksFromSource@ 0000000180073710     dllmain.obj
 0002:00015728       ??_C@_0BB@OODOLCKD@image_resolve_fn@ 0000000180073728     dllmain.obj
 0002:00015740       ??_C@_0BF@DPIACPAP@InsertAutomationItem@ 0000000180073740     dllmain.obj
 0002:00015758       ??_C@_0BE@MCAHNFI@InsertEnvelopePoint@ 0000000180073758     dllmain.obj
 0002:00015770       ??_C@_0BG@MNGBGKCI@InsertEnvelopePointEx@ 0000000180073770     dllmain.obj
 0002:00015788       ??_C@_0M@LLCKLKPI@InsertMedia@ 0000000180073788     dllmain.obj
 0002:00015798       ??_C@_0BD@NDAMGELC@InsertMediaSection@ 0000000180073798     dllmain.obj
 0002:000157b0       ??_C@_0BD@PLHAJKGF@InsertTrackAtIndex@ 00000001800737b0     dllmain.obj
 0002:000157c8       ??_C@_0BC@LLMCLMJP@IsInRealTimeAudio@ 00000001800737c8     dllmain.obj
 0002:000157e0       ??_C@_0BM@OJACDFPG@IsItemTakeActiveForPlayback@ 00000001800737e0     dllmain.obj
 0002:00015800       ??_C@_0BB@JIAFHIJF@IsMediaExtension@ 0000000180073800     dllmain.obj
 0002:00015818       ??_C@_0BE@EKACJFIN@IsMediaItemSelected@ 0000000180073818     dllmain.obj
 0002:00015830       ??_C@_0P@PKNGHICA@IsProjectDirty@ 0000000180073830     dllmain.obj
 0002:00015840       ??_C@_08PCIFKFJJ@IsREAPER@ 0000000180073840     dllmain.obj
 0002:00015850       ??_C@_0BA@PCBAKIOB@IsTrackSelected@ 0000000180073850     dllmain.obj
 0002:00015860       ??_C@_0P@CKMOKGOA@IsTrackVisible@ 0000000180073860     dllmain.obj
 0002:00015870       ??_C@_0BA@IKLMMHOB@joystick_create@ 0000000180073870     dllmain.obj
 0002:00015880       ??_C@_0BB@NELFCELB@joystick_destroy@ 0000000180073880     dllmain.obj
 0002:00015898       ??_C@_0O@KKCDIDFC@joystick_enum@ 0000000180073898     dllmain.obj
 0002:000158a8       ??_C@_0BB@HOOAHPEE@joystick_getaxis@ 00000001800738a8     dllmain.obj
 0002:000158c0       ??_C@_0BH@CBILGPFB@joystick_getbuttonmask@ 00000001800738c0     dllmain.obj
 0002:000158d8       ??_C@_0BB@NGMJCGKG@joystick_getinfo@ 00000001800738d8     dllmain.obj
 0002:000158f0       ??_C@_0BA@KEJJFCBK@joystick_getpov@ 00000001800738f0     dllmain.obj
 0002:00015900       ??_C@_0BA@POBKOGKO@joystick_update@ 0000000180073900     dllmain.obj
 0002:00015910       ??_C@_0BF@MLHCCABB@kbd_enumerateActions@ 0000000180073910     dllmain.obj
 0002:00015928       ??_C@_0BC@DCAPAIPC@kbd_formatKeyName@ 0000000180073928     dllmain.obj
 0002:00015940       ??_C@_0BD@IOFEHDKA@kbd_getCommandName@ 0000000180073940     dllmain.obj
 0002:00015958       ??_C@_0BD@HJNEPPMH@kbd_getTextFromCmd@ 0000000180073958     dllmain.obj
 0002:00015970       ??_C@_0BD@JAAFFOFI@KBD_OnMainActionEx@ 0000000180073970     dllmain.obj
 0002:00015988       ??_C@_0BA@JMFGFOOK@kbd_OnMidiEvent@ 0000000180073988     dllmain.obj
 0002:00015998       ??_C@_0P@KFNMPGEA@kbd_OnMidiList@ 0000000180073998     dllmain.obj
 0002:000159a8       ??_C@_0BH@BBLBMANM@kbd_ProcessActionsMenu@ 00000001800739a8     dllmain.obj
 0002:000159c0       ??_C@_0BN@IBDJNMD@kbd_processMidiEventActionEx@ 00000001800739c0     dllmain.obj
 0002:000159e0       ??_C@_0BC@LJDMNHED@kbd_reprocessMenu@ 00000001800739e0     dllmain.obj
 0002:000159f8       ??_C@_0BL@GPLLAODC@kbd_RunCommandThroughHooks@ 00000001800739f8     dllmain.obj
 0002:00015a18       ??_C@_0BJ@DKOKGLEG@kbd_translateAccelerator@ 0000000180073a18     dllmain.obj
 0002:00015a38       ??_C@_0BD@HJAFGGIO@kbd_translateMouse@ 0000000180073a38     dllmain.obj
 0002:00015a50       ??_C@_0O@PDPLEIOI@LICE__Destroy@ 0000000180073a50     dllmain.obj
 0002:00015a60       ??_C@_0BC@DFCDOBL@LICE__DestroyFont@ 0000000180073a60     dllmain.obj
 0002:00015a78       ??_C@_0P@MFCELKHM@LICE__DrawText@ 0000000180073a78     dllmain.obj
 0002:00015a88       ??_C@_0O@CDJEEGBA@LICE__GetBits@ 0000000180073a88     dllmain.obj
 0002:00015a98       ??_C@_0M@KPEAKKKM@LICE__GetDC@ 0000000180073a98     dllmain.obj
 0002:00015aa8       ??_C@_0BA@EMFDPPME@LICE__GetHeight@ 0000000180073aa8     dllmain.obj
 0002:00015ab8       ??_C@_0BB@MMANACJE@LICE__GetRowSpan@ 0000000180073ab8     dllmain.obj
 0002:00015ad0       ??_C@_0P@LGPNLHLP@LICE__GetWidth@ 0000000180073ad0     dllmain.obj
 0002:00015ae0       ??_C@_0BA@OELMGGKP@LICE__IsFlipped@ 0000000180073ae0     dllmain.obj
 0002:00015af0       ??_C@_0N@PGNMMPJC@LICE__resize@ 0000000180073af0     dllmain.obj
 0002:00015b00       ??_C@_0BB@FHMKCIKJ@LICE__SetBkColor@ 0000000180073b00     dllmain.obj
 0002:00015b18       ??_C@_0BD@IBDLBFDP@LICE__SetFromHFont@ 0000000180073b18     dllmain.obj
 0002:00015b30       ??_C@_0BD@NMCFFJE@LICE__SetTextColor@ 0000000180073b30     dllmain.obj
 0002:00015b48       ??_C@_0BJ@IKAGCOMG@LICE__SetTextCombineMode@ 0000000180073b48     dllmain.obj
 0002:00015b68       ??_C@_08LNLKNFKH@LICE_Arc@ 0000000180073b68     dllmain.obj
 0002:00015b78       ??_C@_09PJKNOPMG@LICE_Blit@ 0000000180073b78     dllmain.obj
 0002:00015b88       ??_C@_09LKMLBCFE@LICE_Blur@ 0000000180073b88     dllmain.obj
 0002:00015b98       ??_C@_0BC@IJODJGNM@LICE_BorderedRect@ 0000000180073b98     dllmain.obj
 0002:00015bb0       ??_C@_0M@NIBGIIJI@LICE_Circle@ 0000000180073bb0     dllmain.obj
 0002:00015bc0       ??_C@_0L@PEJANMJI@LICE_Clear@ 0000000180073bc0     dllmain.obj
 0002:00015bd0       ??_C@_0P@HIBPOLBB@LICE_ClearRect@ 0000000180073bd0     dllmain.obj
 0002:00015be0       ??_C@_0O@CDFEIMAH@LICE_ClipLine@ 0000000180073be0     dllmain.obj
 0002:00015bf0       ??_C@_09HACBIPCK@LICE_Copy@ 0000000180073bf0     dllmain.obj
 0002:00015c00       ??_C@_0BC@DALKCAKK@LICE_CreateBitmap@ 0000000180073c00     dllmain.obj
 0002:00015c18       ??_C@_0BA@LPFFPMFF@LICE_CreateFont@ 0000000180073c18     dllmain.obj
 0002:00015c28       ??_C@_0BB@IIAHFKBP@LICE_DrawCBezier@ 0000000180073c28     dllmain.obj
 0002:00015c40       ??_C@_0O@DENNIPBH@LICE_DrawChar@ 0000000180073c40     dllmain.obj
 0002:00015c50       ??_C@_0P@NGPLPGCP@LICE_DrawGlyph@ 0000000180073c50     dllmain.obj
 0002:00015c60       ??_C@_0O@MOOJJKBA@LICE_DrawRect@ 0000000180073c60     dllmain.obj
 0002:00015c70       ??_C@_0O@FBNKCDCB@LICE_DrawText@ 0000000180073c70     dllmain.obj
 0002:00015c80       ??_C@_0BB@DCIANABD@LICE_FillCBezier@ 0000000180073c80     dllmain.obj
 0002:00015c98       ??_C@_0BA@HCMGIEKF@LICE_FillCircle@ 0000000180073c98     dllmain.obj
 0002:00015ca8       ??_C@_0BH@FNDFMBHF@LICE_FillConvexPolygon@ 0000000180073ca8     dllmain.obj
 0002:00015cc0       ??_C@_0O@MJAIAMHD@LICE_FillRect@ 0000000180073cc0     dllmain.obj
 0002:00015cd0       ??_C@_0BD@FNNDLLFH@LICE_FillTrapezoid@ 0000000180073cd0     dllmain.obj
 0002:00015ce8       ??_C@_0BC@HBEKCAOE@LICE_FillTriangle@ 0000000180073ce8     dllmain.obj
 0002:00015d00       ??_C@_0O@FMEBPKDO@LICE_GetPixel@ 0000000180073d00     dllmain.obj
 0002:00015d10       ??_C@_0O@HCCGNGOA@LICE_GradRect@ 0000000180073d10     dllmain.obj
 0002:00015d20       ??_C@_09CHNFJEAA@LICE_Line@ 0000000180073d20     dllmain.obj
 0002:00015d30       ??_C@_0N@MJCCEAN@LICE_LineInt@ 0000000180073d30     dllmain.obj
 0002:00015d40       ??_C@_0N@ECEDLBJH@LICE_LoadPNG@ 0000000180073d40     dllmain.obj
 0002:00015d50       ??_C@_0BJ@HDBFLMPE@LICE_LoadPNGFromResource@ 0000000180073d50     dllmain.obj
 0002:00015d70       ??_C@_0BB@FCMNKGBK@LICE_MeasureText@ 0000000180073d70     dllmain.obj
 0002:00015d88       ??_C@_0BF@NICDHLKA@LICE_MultiplyAddRect@ 0000000180073d88     dllmain.obj
 0002:00015da0       ??_C@_0O@OIFLOEKN@LICE_PutPixel@ 0000000180073da0     dllmain.obj
 0002:00015db0       ??_C@_0BB@KHJMDJNM@LICE_RotatedBlit@ 0000000180073db0     dllmain.obj
 0002:00015dc8       ??_C@_0P@NGICJNEG@LICE_RoundRect@ 0000000180073dc8     dllmain.obj
 0002:00015dd8       ??_C@_0BA@PHKJMNOB@LICE_ScaledBlit@ 0000000180073dd8     dllmain.obj
 0002:00015de8       ??_C@_0BA@DFOBBAGO@LICE_SimpleFill@ 0000000180073de8     dllmain.obj
 0002:00015df8       ??_C@_0P@NIFIODOJ@LocalizeString@ 0000000180073df8     dllmain.obj
 0002:00015e08       ??_C@_0N@JLBFINDB@Loop_OnArrow@ 0000000180073e08     dllmain.obj
 0002:00015e18       ??_C@_0P@JIDOFFPK@Main_OnCommand@ 0000000180073e18     dllmain.obj
 0002:00015e28       ??_C@_0BB@GEOFIIKH@Main_OnCommandEx@ 0000000180073e28     dllmain.obj
 0002:00015e40       ??_C@_0BB@LNHBKEEG@Main_openProject@ 0000000180073e40     dllmain.obj
 0002:00015e58       ??_C@_0BB@INOGGAPO@Main_SaveProject@ 0000000180073e58     dllmain.obj
 0002:00015e70       ??_C@_0BE@JADKJGPL@Main_UpdateLoopInfo@ 0000000180073e70     dllmain.obj
 0002:00015e88       ??_C@_0BB@HLIDHFPP@MarkProjectDirty@ 0000000180073e88     dllmain.obj
 0002:00015ea0       ??_C@_0BE@DCECBFLI@MarkTrackItemsDirty@ 0000000180073ea0     dllmain.obj
 0002:00015eb8       ??_C@_0BD@NLGNMNAF@Master_GetPlayRate@ 0000000180073eb8     dllmain.obj
 0002:00015ed0       ??_C@_0BJ@KICPGPNP@Master_GetPlayRateAtTime@ 0000000180073ed0     dllmain.obj
 0002:00015ef0       ??_C@_0BA@POJMIFHC@Master_GetTempo@ 0000000180073ef0     dllmain.obj
 0002:00015f00       ??_C@_0BJ@CCDAIGBF@Master_NormalizePlayRate@ 0000000180073f00     dllmain.obj
 0002:00015f20       ??_C@_0BG@PBLILPPD@Master_NormalizeTempo@ 0000000180073f20     dllmain.obj
 0002:00015f38       ??_C@_02LKLDBFPJ@MB@       0000000180073f38     dllmain.obj
 0002:00015f40       ??_C@_0BL@DLDPICIB@MediaItemDescendsFromTrack@ 0000000180073f40     dllmain.obj
 0002:00015f60       ??_C@_0P@BKPOHFOL@MIDI_CountEvts@ 0000000180073f60     dllmain.obj
 0002:00015f70       ??_C@_0O@JCBIMGDM@MIDI_DeleteCC@ 0000000180073f70     dllmain.obj
 0002:00015f80       ??_C@_0P@GDGFKABE@MIDI_DeleteEvt@ 0000000180073f80     dllmain.obj
 0002:00015f90       ??_C@_0BA@FIPCAHDL@MIDI_DeleteNote@ 0000000180073f90     dllmain.obj
 0002:00015fa0       ??_C@_0BI@OIBOBFHH@MIDI_DeleteTextSysexEvt@ 0000000180073fa0     dllmain.obj
 0002:00015fb8       ??_C@_0BB@MDNEAGBJ@MIDI_DisableSort@ 0000000180073fb8     dllmain.obj
 0002:00015fd0       ??_C@_0P@CLNNGDOF@MIDI_EnumSelCC@ 0000000180073fd0     dllmain.obj
 0002:00015fe0       ??_C@_0BB@OIONALBM@MIDI_EnumSelEvts@ 0000000180073fe0     dllmain.obj
 0002:00015ff8       ??_C@_0BC@PGHEBID@MIDI_EnumSelNotes@ 0000000180073ff8     dllmain.obj
 0002:00016010       ??_C@_0BK@MKBBEMJP@MIDI_EnumSelTextSysexEvts@ 0000000180074010     dllmain.obj
 0002:00016030       ??_C@_0BG@HMFPKPAA@MIDI_eventlist_Create@ 0000000180074030     dllmain.obj
 0002:00016048       ??_C@_0BH@DEOBFDH@MIDI_eventlist_Destroy@ 0000000180074048     dllmain.obj
 0002:00016060       ??_C@_0BA@JOFDPCEN@MIDI_GetAllEvts@ 0000000180074060     dllmain.obj
 0002:00016070       ??_C@_0L@IFGAPOHP@MIDI_GetCC@ 0000000180074070     dllmain.obj
 0002:00016080       ??_C@_0BA@PPKBJAKF@MIDI_GetCCShape@ 0000000180074080     dllmain.obj
 0002:00016090       ??_C@_0M@IMKHMIAG@MIDI_GetEvt@ 0000000180074090     dllmain.obj
 0002:000160a0       ??_C@_0N@JCCFIEK@MIDI_GetGrid@ 00000001800740a0     dllmain.obj
 0002:000160b0       ??_C@_0N@HENKFOEA@MIDI_GetHash@ 00000001800740b0     dllmain.obj
 0002:000160c0       ??_C@_0N@KLKELEBL@MIDI_GetNote@ 00000001800740c0     dllmain.obj
 0002:000160d0       ??_C@_0BM@JPBCNECI@MIDI_GetPPQPos_EndOfMeasure@ 00000001800740d0     dllmain.obj
 0002:000160f0       ??_C@_0BO@ECKDFMKH@MIDI_GetPPQPos_StartOfMeasure@ 00000001800740f0     dllmain.obj
 0002:00016110       ??_C@_0BJ@LOEKKOGE@MIDI_GetPPQPosFromProjQN@ 0000000180074110     dllmain.obj
 0002:00016130       ??_C@_0BL@JNHPEBGA@MIDI_GetPPQPosFromProjTime@ 0000000180074130     dllmain.obj
 0002:00016150       ??_C@_0BJ@IOAHDLLP@MIDI_GetProjQNFromPPQPos@ 0000000180074150     dllmain.obj
 0002:00016170       ??_C@_0BL@OMADMANB@MIDI_GetProjTimeFromPPQPos@ 0000000180074170     dllmain.obj
 0002:00016190       ??_C@_0O@IAOKJCNM@MIDI_GetScale@ 0000000180074190     dllmain.obj
 0002:000161a0       ??_C@_0BF@NFLGODHL@MIDI_GetTextSysexEvt@ 00000001800741a0     dllmain.obj
 0002:000161b8       ??_C@_0BC@FOJDBKGD@MIDI_GetTrackHash@ 00000001800741b8     dllmain.obj
 0002:000161d0       ??_C@_0O@MIEOBEEA@MIDI_InsertCC@ 00000001800741d0     dllmain.obj
 0002:000161e0       ??_C@_0P@DKIMMLNB@MIDI_InsertEvt@ 00000001800741e0     dllmain.obj
 0002:000161f0       ??_C@_0BA@LDKFNIGP@MIDI_InsertNote@ 00000001800741f0     dllmain.obj
 0002:00016200       ??_C@_0BI@CKHGFFGG@MIDI_InsertTextSysexEvt@ 0000000180074200     dllmain.obj
 0002:00016218       ??_C@_0M@NNMEAIOO@midi_reinit@ 0000000180074218     dllmain.obj
 0002:00016228       ??_C@_0P@PJIMJPDM@MIDI_SelectAll@ 0000000180074228     dllmain.obj
 0002:00016238       ??_C@_0BA@IAHMEFAE@MIDI_SetAllEvts@ 0000000180074238     dllmain.obj
 0002:00016248       ??_C@_0L@BNCHLOPC@MIDI_SetCC@ 0000000180074248     dllmain.obj
 0002:00016258       ??_C@_0BA@OBIOCHOM@MIDI_SetCCShape@ 0000000180074258     dllmain.obj
 0002:00016268       ??_C@_0M@BPDGHANL@MIDI_SetEvt@ 0000000180074268     dllmain.obj
 0002:00016278       ??_C@_0BE@EMCCKJEB@MIDI_SetItemExtents@ 0000000180074278     dllmain.obj
 0002:00016290       ??_C@_0N@FDFFILMK@MIDI_SetNote@ 0000000180074290     dllmain.obj
 0002:000162a0       ??_C@_0BF@OHKAJBGC@MIDI_SetTextSysexEvt@ 00000001800742a0     dllmain.obj
 0002:000162b8       ??_C@_09IEEMLKNI@MIDI_Sort@ 00000001800742b8     dllmain.obj
 0002:000162c8       ??_C@_0BF@GMNMBDNM@MIDIEditor_GetActive@ 00000001800742c8     dllmain.obj
 0002:000162e0       ??_C@_0BD@GAFKOOMC@MIDIEditor_GetMode@ 00000001800742e0     dllmain.obj
 0002:000162f8       ??_C@_0BK@FBHBGMAE@MIDIEditor_GetSetting_int@ 00000001800742f8     dllmain.obj
 0002:00016318       ??_C@_0BK@CJDOFKNP@MIDIEditor_GetSetting_str@ 0000000180074318     dllmain.obj
 0002:00016338       ??_C@_0BD@OGCJCLDP@MIDIEditor_GetTake@ 0000000180074338     dllmain.obj
 0002:00016350       ??_C@_0CB@GOHDECHF@MIDIEditor_LastFocused_OnComman@ 0000000180074350     dllmain.obj
 0002:00016378       ??_C@_0BF@HELEKKLF@MIDIEditor_OnCommand@ 0000000180074378     dllmain.obj
 0002:00016390       ??_C@_0BK@JPGPJGCI@MIDIEditor_SetSetting_int@ 0000000180074390     dllmain.obj
 0002:000163b0       ??_C@_08HOCCADN@mkpanstr@  00000001800743b0     dllmain.obj
 0002:000163c0       ??_C@_0M@IAFCFKCG@mkvolpanstr@ 00000001800743c0     dllmain.obj
 0002:000163d0       ??_C@_08CEPICHBH@mkvolstr@ 00000001800743d0     dllmain.obj
 0002:000163e0       ??_C@_0P@EDKPBHOH@MoveEditCursor@ 00000001800743e0     dllmain.obj
 0002:000163f0       ??_C@_0BF@OMHBNFOH@MoveMediaItemToTrack@ 00000001800743f0     dllmain.obj
 0002:00016408       ??_C@_0O@GJFJIMKE@MuteAllTracks@ 0000000180074408     dllmain.obj
 0002:00016418       ??_C@_0P@PJMACFKI@my_getViewport@ 0000000180074418     dllmain.obj
 0002:00016428       ??_C@_0BD@CJJACHGC@NamedCommandLookup@ 0000000180074428     dllmain.obj
 0002:00016440       ??_C@_0O@PJJJFMOE@OnPauseButton@ 0000000180074440     dllmain.obj
 0002:00016450       ??_C@_0BA@MJHIGOHL@OnPauseButtonEx@ 0000000180074450     dllmain.obj
 0002:00016460       ??_C@_0N@DIPGCHKB@OnPlayButton@ 0000000180074460     dllmain.obj
 0002:00016470       ??_C@_0P@IDKBLMOA@OnPlayButtonEx@ 0000000180074470     dllmain.obj
 0002:00016480       ??_C@_0N@ECOAEAAF@OnStopButton@ 0000000180074480     dllmain.obj
 0002:00016490       ??_C@_0P@JKBMELOA@OnStopButtonEx@ 0000000180074490     dllmain.obj
 0002:000164a0       ??_C@_0BD@KAEDOJPO@OpenColorThemeFile@ 00000001800744a0     dllmain.obj
 0002:000164b8       ??_C@_0BC@HGCPBAPO@OpenMediaExplorer@ 00000001800744b8     dllmain.obj
 0002:000164d0       ??_C@_0BG@OJCJBGGF@OscLocalMessageToHost@ 00000001800744d0     dllmain.obj
 0002:000164e8       ??_C@_0O@MGCNPKMD@parse_timestr@ 00000001800744e8     dllmain.obj
 0002:000164f8       ??_C@_0BC@PAFHNFMH@parse_timestr_len@ 00000001800744f8     dllmain.obj
 0002:00016510       ??_C@_0BC@BIGDNECK@parse_timestr_pos@ 0000000180074510     dllmain.obj
 0002:00016528       ??_C@_0M@KMBKOEIE@parsepanstr@ 0000000180074528     dllmain.obj
 0002:00016538       ??_C@_0BA@IPHDBGKO@PCM_Sink_Create@ 0000000180074538     dllmain.obj
 0002:00016548       ??_C@_0BC@FFOHBHJA@PCM_Sink_CreateEx@ 0000000180074548     dllmain.obj
 0002:00016560       ??_C@_0BI@EMAPILPI@PCM_Sink_CreateMIDIFile@ 0000000180074560     dllmain.obj
 0002:00016578       ??_C@_0BK@DHLIMBMH@PCM_Sink_CreateMIDIFileEx@ 0000000180074578     dllmain.obj
 0002:00016598       ??_C@_0O@JGOKNNGE@PCM_Sink_Enum@ 0000000180074598     dllmain.obj
 0002:000165a8       ??_C@_0BG@DDFOLAFM@PCM_Sink_GetExtension@ 00000001800745a8     dllmain.obj
 0002:000165c0       ??_C@_0BE@OECALGCO@PCM_Sink_ShowConfig@ 00000001800745c0     dllmain.obj
 0002:000165d8       ??_C@_0BK@MEEBJCNJ@PCM_Source_CreateFromFile@ 00000001800745d8     dllmain.obj
 0002:000165f8       ??_C@_0BM@NPEMPEKK@PCM_Source_CreateFromFileEx@ 00000001800745f8     dllmain.obj
 0002:00016618       ??_C@_0BM@HIPNNIKN@PCM_Source_CreateFromSimple@ 0000000180074618     dllmain.obj
 0002:00016638       ??_C@_0BK@JLEEFLLA@PCM_Source_CreateFromType@ 0000000180074638     dllmain.obj
 0002:00016658       ??_C@_0BD@NCBEEBEK@PCM_Source_Destroy@ 0000000180074658     dllmain.obj
 0002:00016670       ??_C@_0BE@NPGDJICO@PCM_Source_GetPeaks@ 0000000180074670     dllmain.obj
 0002:00016688       ??_C@_0BK@PBNKKICN@PCM_Source_GetSectionInfo@ 0000000180074688     dllmain.obj
 0002:000166a8       ??_C@_0BB@KBPPNDAL@PeakBuild_Create@ 00000001800746a8     dllmain.obj
 0002:000166c0       ??_C@_0BD@GNJJEHIP@PeakBuild_CreateEx@ 00000001800746c0     dllmain.obj
 0002:000166d8       ??_C@_0P@GHKJHGED@PeakGet_Create@ 00000001800746d8     dllmain.obj
 0002:000166e8       ??_C@_0BG@JBAOMIDM@PitchShiftSubModeMenu@ 00000001800746e8     dllmain.obj
 0002:00016700       ??_C@_0M@OIIMJKJC@PlayPreview@ 0000000180074700     dllmain.obj
 0002:00016710       ??_C@_0O@MCBKMGJL@PlayPreviewEx@ 0000000180074710     dllmain.obj
 0002:00016720       ??_C@_0BB@EBFADCMF@PlayTrackPreview@ 0000000180074720     dllmain.obj
 0002:00016738       ??_C@_0BC@GDPDCHM@PlayTrackPreview2@ 0000000180074738     dllmain.obj
 0002:00016750       ??_C@_0BE@NKOKNNJA@PlayTrackPreview2Ex@ 0000000180074750     dllmain.obj
 0002:00016768       ??_C@_0O@NJBPDFDE@plugin_getapi@ 0000000180074768     dllmain.obj
 0002:00016778       ??_C@_0BF@POELKDPO@plugin_getFilterList@ 0000000180074778     dllmain.obj
 0002:00016790       ??_C@_0CG@JKEGPPOJ@plugin_getImportableProjectFilt@ 0000000180074790     dllmain.obj
 0002:000167b8       ??_C@_0BA@HGNAKOG@plugin_register@ 00000001800747b8     dllmain.obj
 0002:000167c8       ??_C@_0BH@FACJCLFH@PluginWantsAlwaysRunFx@ 00000001800747c8     dllmain.obj
 0002:000167e0       ??_C@_0BB@JCMEJANG@PreventUIRefresh@ 00000001800747e0     dllmain.obj
 0002:000167f8       ??_C@_0BH@GGNMGJAL@projectconfig_var_addr@ 00000001800747f8     dllmain.obj
 0002:00016810       ??_C@_0BK@JKLEMHHF@projectconfig_var_getoffs@ 0000000180074810     dllmain.obj
 0002:00016830       ??_C@_0BA@OMHOKOHN@PromptForAction@ 0000000180074830     dllmain.obj
 0002:00016840       ??_C@_0BA@HOACECKO@realloc_cmd_ptr@ 0000000180074840     dllmain.obj
 0002:00016850       ??_C@_0BH@BNMGOKLD@ReaperGetPitchShiftAPI@ 0000000180074850     dllmain.obj
 0002:00016868       ??_C@_0P@KCMDODBN@ReaScriptError@ 0000000180074868     dllmain.obj
 0002:00016878       ??_C@_0BJ@LBPPMBAH@RecursiveCreateDirectory@ 0000000180074878     dllmain.obj
 0002:00016898       ??_C@_0BC@OECLENHK@reduce_open_files@ 0000000180074898     dllmain.obj
 0002:000168b0       ??_C@_0P@HHKNBGFC@RefreshToolbar@ 00000001800748b0     dllmain.obj
 0002:000168c0       ??_C@_0BA@GIGCMJLP@RefreshToolbar2@ 00000001800748c0     dllmain.obj
 0002:000168d0       ??_C@_0M@HDMMADGK@relative_fn@ 00000001800748d0     dllmain.obj
 0002:000168e0       ??_C@_0BA@EPEBHCLE@RemoveTrackSend@ 00000001800748e0     dllmain.obj
 0002:000168f0       ??_C@_0BC@NKCEPLHF@RenderFileSection@ 00000001800748f0     dllmain.obj
 0002:00016908       ??_C@_0BG@DPINFAJ@ReorderSelectedTracks@ 0000000180074908     dllmain.obj
 0002:00016920       ??_C@_0BD@IDJDIMGH@Resample_EnumModes@ 0000000180074920     dllmain.obj
 0002:00016938       ??_C@_0BB@BFCFOCCK@Resampler_Create@ 0000000180074938     dllmain.obj
 0002:00016950       ??_C@_0L@CBOIPJCN@resolve_fn@ 0000000180074950     dllmain.obj
 0002:00016960       ??_C@_0M@KIIOOAPN@resolve_fn2@ 0000000180074960     dllmain.obj
 0002:00016970       ??_C@_0BK@GLPELFHH@ReverseNamedCommandLookup@ 0000000180074970     dllmain.obj
 0002:00016990       ??_C@_0BG@ILDFHGNC@ScaleFromEnvelopeMode@ 0000000180074990     dllmain.obj
 0002:000169a8       ??_C@_0BE@OCJAFGBD@ScaleToEnvelopeMode@ 00000001800749a8     dllmain.obj
 0002:000169c0       ??_C@_0BD@KJOIAKCB@screenset_register@ 00000001800749c0     dllmain.obj
 0002:000169d8       ??_C@_0BG@DIBIGHEK@screenset_registerNew@ 00000001800749d8     dllmain.obj
 0002:000169f0       ??_C@_0BF@LJGOCPMJ@screenset_unregister@ 00000001800749f0     dllmain.obj
 0002:00016a08       ??_C@_0BM@LODHPAP@screenset_unregisterByParam@ 0000000180074a08     dllmain.obj
 0002:00016a28       ??_C@_0BK@PGCNPDDH@screenset_updateLastFocus@ 0000000180074a28     dllmain.obj
 0002:00016a48       ??_C@_0BE@LHMMJPAM@SectionFromUniqueID@ 0000000180074a48     dllmain.obj
 0002:00016a60       ??_C@_0BE@PPNEDCKN@SelectAllMediaItems@ 0000000180074a60     dllmain.obj
 0002:00016a78       ??_C@_0BG@IJAIBPPE@SelectProjectInstance@ 0000000180074a78     dllmain.obj
 0002:00016a90       ??_C@_0BE@DKBFJAF@SendLocalOscMessage@ 0000000180074a90     dllmain.obj
 0002:00016aa8       ??_C@_0O@MLMDNCBL@SetActiveTake@ 0000000180074aa8     dllmain.obj
 0002:00016ab8       ??_C@_0BC@ELOLFFMP@SetAutomationMode@ 0000000180074ab8     dllmain.obj
 0002:00016ad0       ??_C@_0O@NBAADDBN@SetCurrentBPM@ 0000000180074ad0     dllmain.obj
 0002:00016ae0       ??_C@_0BB@NCKHJHJH@SetCursorContext@ 0000000180074ae0     dllmain.obj
 0002:00016af8       ??_C@_0O@MHPNOLDJ@SetEditCurPos@ 0000000180074af8     dllmain.obj
 0002:00016b08       ??_C@_0P@LCLCCBJC@SetEditCurPos2@ 0000000180074b08     dllmain.obj
 0002:00016b18       ??_C@_0BB@FOFJEFGO@SetEnvelopePoint@ 0000000180074b18     dllmain.obj
 0002:00016b30       ??_C@_0BD@GMHPBBLK@SetEnvelopePointEx@ 0000000180074b30     dllmain.obj
 0002:00016b48       ??_C@_0BG@KEBEEAPP@SetEnvelopeStateChunk@ 0000000180074b48     dllmain.obj
 0002:00016b60       ??_C@_0M@KMNJGFPP@SetExtState@ 0000000180074b60     dllmain.obj
 0002:00016b70       ??_C@_0BM@MHANGGBN@SetGlobalAutomationOverride@ 0000000180074b70     dllmain.obj
 0002:00016b90       ??_C@_0BC@JMGGGGPN@SetItemStateChunk@ 0000000180074b90     dllmain.obj
 0002:00016ba8       ??_C@_0BJ@GBNMCAD@SetMasterTrackVisibility@ 0000000180074ba8     dllmain.obj
 0002:00016bc8       ??_C@_0BH@ENHCHIDC@SetMediaItemInfo_Value@ 0000000180074bc8     dllmain.obj
 0002:00016be0       ??_C@_0BD@JPALENGA@SetMediaItemLength@ 0000000180074be0     dllmain.obj
 0002:00016bf8       ??_C@_0BF@IKOOFFAD@SetMediaItemPosition@ 0000000180074bf8     dllmain.obj
 0002:00016c10       ??_C@_0BF@EDDMPANO@SetMediaItemSelected@ 0000000180074c10     dllmain.obj
 0002:00016c28       ??_C@_0BI@CNBHFKMP@SetMediaItemTake_Source@ 0000000180074c28     dllmain.obj
 0002:00016c40       ??_C@_0BL@PHPPGIJB@SetMediaItemTakeInfo_Value@ 0000000180074c40     dllmain.obj
 0002:00016c60       ??_C@_0BI@NKJJOAHH@SetMediaTrackInfo_Value@ 0000000180074c60     dllmain.obj
 0002:00016c78       ??_C@_0BC@JCBLGJJO@SetMIDIEditorGrid@ 0000000180074c78     dllmain.obj
 0002:00016c90       ??_C@_0P@KJDOMAAH@SetMixerScroll@ 0000000180074c90     dllmain.obj
 0002:00016ca0       ??_C@_0BB@KGNPILAK@SetMouseModifier@ 0000000180074ca0     dllmain.obj
 0002:00016cb8       ??_C@_0BF@HKMGNHPK@SetOnlyTrackSelected@ 0000000180074cb8     dllmain.obj
 0002:00016cd0       ??_C@_0P@GJPLGFMO@SetProjectGrid@ 0000000180074cd0     dllmain.obj
 0002:00016ce0       ??_C@_0BB@FFNFINON@SetProjectMarker@ 0000000180074ce0     dllmain.obj
 0002:00016cf8       ??_C@_0BC@DDJOBPDJ@SetProjectMarker2@ 0000000180074cf8     dllmain.obj
 0002:00016d10       ??_C@_0BC@CKIFCOHI@SetProjectMarker3@ 0000000180074d10     dllmain.obj
 0002:00016d28       ??_C@_0BC@GFMELILP@SetProjectMarker4@ 0000000180074d28     dllmain.obj
 0002:00016d40       ??_C@_0BI@HMDMJHOJ@SetProjectMarkerByIndex@ 0000000180074d40     dllmain.obj
 0002:00016d58       ??_C@_0BJ@DENKDCDK@SetProjectMarkerByIndex2@ 0000000180074d58     dllmain.obj
 0002:00016d78       ??_C@_0BA@JIKBKFM@SetProjExtState@ 0000000180074d78     dllmain.obj
 0002:00016d88       ??_C@_0BG@NNLIGOAE@SetRegionRenderMatrix@ 0000000180074d88     dllmain.obj
 0002:00016da0       ??_C@_0BD@NLMAGMLI@SetRenderLastError@ 0000000180074da0     dllmain.obj
 0002:00016db8       ??_C@_0O@CLJFNCKC@SetTakeMarker@ 0000000180074db8     dllmain.obj
 0002:00016dc8       ??_C@_0BF@BNONLGKB@SetTakeStretchMarker@ 0000000180074dc8     dllmain.obj
 0002:00016de0       ??_C@_0BK@NCOOHIHN@SetTakeStretchMarkerSlope@ 0000000180074de0     dllmain.obj
 0002:00016e00       ??_C@_0BG@PMIMBOFG@SetTempoTimeSigMarker@ 0000000180074e00     dllmain.obj
 0002:00016e18       ??_C@_0O@HCKBAENF@SetThemeColor@ 0000000180074e18     dllmain.obj
 0002:00016e28       ??_C@_0BG@GCGNGJN@SetToggleCommandState@ 0000000180074e28     dllmain.obj
 0002:00016e40       ??_C@_0BH@DBAAAGJH@SetTrackAutomationMode@ 0000000180074e40     dllmain.obj
 0002:00016e58       ??_C@_0O@FKHECNJH@SetTrackColor@ 0000000180074e58     dllmain.obj
 0002:00016e68       ??_C@_0BD@GLBJDMCG@SetTrackMIDILyrics@ 0000000180074e68     dllmain.obj
 0002:00016e80       ??_C@_0BF@PHEFMCOB@SetTrackMIDINoteName@ 0000000180074e80     dllmain.obj
 0002:00016e98       ??_C@_0BH@KDLICKKB@SetTrackMIDINoteNameEx@ 0000000180074e98     dllmain.obj
 0002:00016eb0       ??_C@_0BB@OFNFBCKL@SetTrackSelected@ 0000000180074eb0     dllmain.obj
 0002:00016ec8       ??_C@_0BH@IMKBDAEB@SetTrackSendInfo_Value@ 0000000180074ec8     dllmain.obj
 0002:00016ee0       ??_C@_0BC@BEGBLHGN@SetTrackSendUIPan@ 0000000180074ee0     dllmain.obj
 0002:00016ef8       ??_C@_0BC@JKCKHDJ@SetTrackSendUIVol@ 0000000180074ef8     dllmain.obj
 0002:00016f10       ??_C@_0BD@JJKCGPKJ@SetTrackStateChunk@ 0000000180074f10     dllmain.obj
 0002:00016f28       ??_C@_0P@LHCJOBFF@ShowActionList@ 0000000180074f28     dllmain.obj
 0002:00016f38       ??_C@_0P@OOEKMIJD@ShowConsoleMsg@ 0000000180074f38     dllmain.obj
 0002:00016f48       ??_C@_0P@EMGMBJDI@ShowMessageBox@ 0000000180074f48     dllmain.obj
 0002:00016f58       ??_C@_0O@DDHHIOPE@ShowPopupMenu@ 0000000180074f58     dllmain.obj
 0002:00016f68       ??_C@_09CNOONLI@SLIDER2DB@ 0000000180074f68     dllmain.obj
 0002:00016f78       ??_C@_0L@BOAIAHOL@SnapToGrid@ 0000000180074f78     dllmain.obj
 0002:00016f88       ??_C@_0O@KCJDOGDC@SoloAllTracks@ 0000000180074f88     dllmain.obj
 0002:00016f98       ??_C@_0O@MFNOGMEF@Splash_GetWnd@ 0000000180074f98     dllmain.obj
 0002:00016fa8       ??_C@_0P@OJIIPHPK@SplitMediaItem@ 0000000180074fa8     dllmain.obj
 0002:00016fb8       ??_C@_0M@DJENOLAE@StopPreview@ 0000000180074fb8     dllmain.obj
 0002:00016fc8       ??_C@_0BB@MENLCPKF@StopTrackPreview@ 0000000180074fc8     dllmain.obj
 0002:00016fe0       ??_C@_0BC@ELAINIDJ@StopTrackPreview2@ 0000000180074fe0     dllmain.obj
 0002:00016ff8       ??_C@_0N@MLFHNOHA@stringToGuid@ 0000000180074ff8     dllmain.obj
 0002:00017008       ??_C@_0BB@KDOLPDDH@StuffMIDIMessage@ 0000000180075008     dllmain.obj
 0002:00017020       ??_C@_0BB@CHPIBLNM@TakeFX_AddByName@ 0000000180075020     dllmain.obj
 0002:00017038       ??_C@_0BC@FFNMMMON@TakeFX_CopyToTake@ 0000000180075038     dllmain.obj
 0002:00017050       ??_C@_0BD@BEJHIBOB@TakeFX_CopyToTrack@ 0000000180075050     dllmain.obj
 0002:00017068       ??_C@_0O@JONIELGK@TakeFX_Delete@ 0000000180075068     dllmain.obj
 0002:00017078       ??_C@_0BE@CLLMALLD@TakeFX_EndParamEdit@ 0000000180075078     dllmain.obj
 0002:00017090       ??_C@_0BI@FPHEHCNK@TakeFX_FormatParamValue@ 0000000180075090     dllmain.obj
 0002:000170a8       ??_C@_0CC@NHFCLLBG@TakeFX_FormatParamValueNormaliz@ 00000001800750a8     dllmain.obj
 0002:000170d0       ??_C@_0BH@DBEBEAGJ@TakeFX_GetChainVisible@ 00000001800750d0     dllmain.obj
 0002:000170e8       ??_C@_0BA@IMGGCGHO@TakeFX_GetCount@ 00000001800750e8     dllmain.obj
 0002:000170f8       ??_C@_0BC@IEDOCKEE@TakeFX_GetEnabled@ 00000001800750f8     dllmain.obj
 0002:00017110       ??_C@_0BD@KCFBFNHB@TakeFX_GetEnvelope@ 0000000180075110     dllmain.obj
 0002:00017128       ??_C@_0BJ@COABIFOG@TakeFX_GetFloatingWindow@ 0000000180075128     dllmain.obj
 0002:00017148       ??_C@_0BO@OBPLNPEN@TakeFX_GetFormattedParamValue@ 0000000180075148     dllmain.obj
 0002:00017168       ??_C@_0BB@LIBLEKCL@TakeFX_GetFXGUID@ 0000000180075168     dllmain.obj
 0002:00017180       ??_C@_0BB@HJJJLMHD@TakeFX_GetFXName@ 0000000180075180     dllmain.obj
 0002:00017198       ??_C@_0BB@NFKPDAJA@TakeFX_GetIOSize@ 0000000180075198     dllmain.obj
 0002:000171b0       ??_C@_0BK@MAEJFOCF@TakeFX_GetNamedConfigParm@ 00000001800751b0     dllmain.obj
 0002:000171d0       ??_C@_0BE@OMBFJLLO@TakeFX_GetNumParams@ 00000001800751d0     dllmain.obj
 0002:000171e8       ??_C@_0BC@KGLENIKA@TakeFX_GetOffline@ 00000001800751e8     dllmain.obj
 0002:00017200       ??_C@_0P@DDJODBMD@TakeFX_GetOpen@ 0000000180075200     dllmain.obj
 0002:00017210       ??_C@_0BA@LLJPDOLG@TakeFX_GetParam@ 0000000180075210     dllmain.obj
 0002:00017220       ??_C@_0BN@HJCAFNNK@TakeFX_GetParameterStepSizes@ 0000000180075220     dllmain.obj
 0002:00017240       ??_C@_0BC@OCEJBDNP@TakeFX_GetParamEx@ 0000000180075240     dllmain.obj
 0002:00017258       ??_C@_0BE@IAFKJENC@TakeFX_GetParamName@ 0000000180075258     dllmain.obj
 0002:00017270       ??_C@_0BK@NHKBEMI@TakeFX_GetParamNormalized@ 0000000180075270     dllmain.obj
 0002:00017290       ??_C@_0BG@KLIKENCB@TakeFX_GetPinMappings@ 0000000180075290     dllmain.obj
 0002:000172a8       ??_C@_0BB@MKGLMAHO@TakeFX_GetPreset@ 00000001800752a8     dllmain.obj
 0002:000172c0       ??_C@_0BG@FGNDKDEE@TakeFX_GetPresetIndex@ 00000001800752c0     dllmain.obj
 0002:000172d8       ??_C@_0BN@FFJDEIC@TakeFX_GetUserPresetFilename@ 00000001800752d8     dllmain.obj
 0002:000172f8       ??_C@_0BH@ODILBJOO@TakeFX_NavigatePresets@ 00000001800752f8     dllmain.obj
 0002:00017310       ??_C@_0BC@JKBBJNAN@TakeFX_SetEnabled@ 0000000180075310     dllmain.obj
 0002:00017328       ??_C@_0BK@DKGDGIMN@TakeFX_SetNamedConfigParm@ 0000000180075328     dllmain.obj
 0002:00017348       ??_C@_0BC@LIJLGPOJ@TakeFX_SetOffline@ 0000000180075348     dllmain.obj
 0002:00017360       ??_C@_0P@MLGPAOBC@TakeFX_SetOpen@ 0000000180075360     dllmain.obj
 0002:00017370       ??_C@_0BA@EKLDCNML@TakeFX_SetParam@ 0000000180075370     dllmain.obj
 0002:00017380       ??_C@_0BK@PHFACCCA@TakeFX_SetParamNormalized@ 0000000180075380     dllmain.obj
 0002:000173a0       ??_C@_0BG@GFJELHAN@TakeFX_SetPinMappings@ 00000001800753a0     dllmain.obj
 0002:000173b8       ??_C@_0BB@OECOOBOM@TakeFX_SetPreset@ 00000001800753b8     dllmain.obj
 0002:000173d0       ??_C@_0BI@DPFHBLMP@TakeFX_SetPresetByIndex@ 00000001800753d0     dllmain.obj
 0002:000173e8       ??_C@_0M@LFDKPFDE@TakeFX_Show@ 00000001800753e8     dllmain.obj
 0002:000173f8       ??_C@_0L@GIHFCLIH@TakeIsMIDI@ 00000001800753f8     dllmain.obj
 0002:00017408       ??_C@_0BG@GHKJBKCJ@ThemeLayout_GetLayout@ 0000000180075408     dllmain.obj
 0002:00017420       ??_C@_0BJ@BNDBIBEC@ThemeLayout_GetParameter@ 0000000180075420     dllmain.obj
 0002:00017440       ??_C@_0BH@MMMFBALH@ThemeLayout_RefreshAll@ 0000000180075440     dllmain.obj
 0002:00017458       ??_C@_0BG@EJOMDLLL@ThemeLayout_SetLayout@ 0000000180075458     dllmain.obj
 0002:00017470       ??_C@_0BJ@GJIPENAO@ThemeLayout_SetParameter@ 0000000180075470     dllmain.obj
 0002:00017490       ??_C@_0N@GHEHFBNO@time_precise@ 0000000180075490     dllmain.obj
 0002:000174a0       ??_C@_0BF@IILJHILP@TimeMap2_beatsToTime@ 00000001800754a0     dllmain.obj
 0002:000174b8       ??_C@_0BN@KKMPGCPK@TimeMap2_GetDividedBpmAtTime@ 00000001800754b8     dllmain.obj
 0002:000174d8       ??_C@_0BL@PPHHMEJN@TimeMap2_GetNextChangeTime@ 00000001800754d8     dllmain.obj
 0002:000174f8       ??_C@_0BC@MJMIOFOG@TimeMap2_QNToTime@ 00000001800754f8     dllmain.obj
 0002:00017510       ??_C@_0BF@HEHOAMCG@TimeMap2_timeToBeats@ 0000000180075510     dllmain.obj
 0002:00017528       ??_C@_0BC@BABHDEOD@TimeMap2_timeToQN@ 0000000180075528     dllmain.obj
 0002:00017540       ??_C@_0BF@PEHGNHAA@TimeMap_curFrameRate@ 0000000180075540     dllmain.obj
 0002:00017558       ??_C@_0BM@DCFONDBB@TimeMap_GetDividedBpmAtTime@ 0000000180075558     dllmain.obj
 0002:00017578       ??_C@_0BH@EGBMJGIF@TimeMap_GetMeasureInfo@ 0000000180075578     dllmain.obj
 0002:00017590       ??_C@_0BM@DGFBCDJE@TimeMap_GetMetronomePattern@ 0000000180075590     dllmain.obj
 0002:000175b0       ??_C@_0BJ@FHNBJBMK@TimeMap_GetTimeSigAtTime@ 00000001800755b0     dllmain.obj
 0002:000175d0       ??_C@_0BF@HMFFINBO@TimeMap_QNToMeasures@ 00000001800755d0     dllmain.obj
 0002:000175e8       ??_C@_0BB@GCODNKA@TimeMap_QNToTime@ 00000001800755e8     dllmain.obj
 0002:00017600       ??_C@_0BF@PFCEDONI@TimeMap_QNToTime_abs@ 0000000180075600     dllmain.obj
 0002:00017618       ??_C@_0BB@NPPBOMKF@TimeMap_timeToQN@ 0000000180075618     dllmain.obj
 0002:00017630       ??_C@_0BF@LHBOCCEN@TimeMap_timeToQN_abs@ 0000000180075630     dllmain.obj
 0002:00017648       ??_C@_0BG@GFDIGPEC@ToggleTrackSendUIMute@ 0000000180075648     dllmain.obj
 0002:00017660       ??_C@_0BE@LMPPBBIO@Track_GetPeakHoldDB@ 0000000180075660     dllmain.obj
 0002:00017678       ??_C@_0BC@IBMLJMAA@Track_GetPeakInfo@ 0000000180075678     dllmain.obj
 0002:00017690       ??_C@_0BE@IAGFGNML@TrackCtl_SetToolTip@ 0000000180075690     dllmain.obj
 0002:000176a8       ??_C@_0BC@JLAPMCKH@TrackFX_AddByName@ 00000001800756a8     dllmain.obj
 0002:000176c0       ??_C@_0BD@JCLHJDIA@TrackFX_CopyToTake@ 00000001800756c0     dllmain.obj
 0002:000176d8       ??_C@_0BE@CHFDPHFL@TrackFX_CopyToTrack@ 00000001800756d8     dllmain.obj
 0002:000176f0       ??_C@_0P@PNIJNOIN@TrackFX_Delete@ 00000001800756f0     dllmain.obj
 0002:00017700       ??_C@_0BF@DLJFFH@TrackFX_EndParamEdit@ 0000000180075700     dllmain.obj
 0002:00017718       ??_C@_0BJ@CJJKMGID@TrackFX_FormatParamValue@ 0000000180075718     dllmain.obj
 0002:00017738       ??_C@_0CD@JODJFFEH@TrackFX_FormatParamValueNormali@ 0000000180075738     dllmain.obj
 0002:00017760       ??_C@_0BC@PNNBJHII@TrackFX_GetByName@ 0000000180075760     dllmain.obj
 0002:00017778       ??_C@_0BI@DLEIJCJ@TrackFX_GetChainVisible@ 0000000180075778     dllmain.obj
 0002:00017790       ??_C@_0BB@BNDMEHMP@TrackFX_GetCount@ 0000000180075790     dllmain.obj
 0002:000177a8       ??_C@_0BD@EDFFHFCJ@TrackFX_GetEnabled@ 00000001800757a8     dllmain.obj
 0002:000177c0       ??_C@_0O@BFHIPJBE@TrackFX_GetEQ@ 00000001800757c0     dllmain.obj
 0002:000177d0       ??_C@_0BJ@KKCGCGFE@TrackFX_GetEQBandEnabled@ 00000001800757d0     dllmain.obj
 0002:000177f0       ??_C@_0BD@PDPFDNHD@TrackFX_GetEQParam@ 00000001800757f0     dllmain.obj
 0002:00017808       ??_C@_0BK@DMMAICAC@TrackFX_GetFloatingWindow@ 0000000180075808     dllmain.obj
 0002:00017828       ??_C@_0BP@EJOBAKEP@TrackFX_GetFormattedParamValue@ 0000000180075828     dllmain.obj
 0002:00017848       ??_C@_0BC@EOMJDFA@TrackFX_GetFXGUID@ 0000000180075848     dllmain.obj
 0002:00017860       ??_C@_0BC@MFGOGFAI@TrackFX_GetFXName@ 0000000180075860     dllmain.obj
 0002:00017878       ??_C@_0BG@HAOIEPOI@TrackFX_GetInstrument@ 0000000180075878     dllmain.obj
 0002:00017890       ??_C@_0BC@GJFIOJOL@TrackFX_GetIOSize@ 0000000180075890     dllmain.obj
 0002:000178a8       ??_C@_0BL@GHDMLJED@TrackFX_GetNamedConfigParm@ 00000001800758a8     dllmain.obj
 0002:000178c8       ??_C@_0BF@MHJCAFFK@TrackFX_GetNumParams@ 00000001800758c8     dllmain.obj
 0002:000178e0       ??_C@_0BD@GBNPIHMN@TrackFX_GetOffline@ 00000001800758e0     dllmain.obj
 0002:000178f8       ??_C@_0BA@NJDBHIN@TrackFX_GetOpen@ 00000001800758f8     dllmain.obj
 0002:00017908       ??_C@_0BB@CKMFFPAH@TrackFX_GetParam@ 0000000180075908     dllmain.obj
 0002:00017920       ??_C@_0BO@ECKAKHH@TrackFX_GetParameterStepSizes@ 0000000180075920     dllmain.obj
 0002:00017940       ??_C@_0BD@CFCCEMLC@TrackFX_GetParamEx@ 0000000180075940     dllmain.obj
 0002:00017958       ??_C@_0BF@KLNNAKDG@TrackFX_GetParamName@ 0000000180075958     dllmain.obj
 0002:00017970       ??_C@_0BL@KKAPPDKO@TrackFX_GetParamNormalized@ 0000000180075970     dllmain.obj
 0002:00017990       ??_C@_0BH@IGCPOOAN@TrackFX_GetPinMappings@ 0000000180075990     dllmain.obj
 0002:000179a8       ??_C@_0BC@HGJMBJAF@TrackFX_GetPreset@ 00000001800759a8     dllmain.obj
 0002:000179c0       ??_C@_0BH@HLHGAAGI@TrackFX_GetPresetIndex@ 00000001800759c0     dllmain.obj
 0002:000179d8       ??_C@_0BL@NPMOJJJF@TrackFX_GetRecChainVisible@ 00000001800759d8     dllmain.obj
 0002:000179f8       ??_C@_0BE@NNCICNCG@TrackFX_GetRecCount@ 00000001800759f8     dllmain.obj
 0002:00017a10       ??_C@_0BO@HIFDGDCP@TrackFX_GetUserPresetFilename@ 0000000180075a10     dllmain.obj
 0002:00017a30       ??_C@_0BI@NBHONAKO@TrackFX_NavigatePresets@ 0000000180075a30     dllmain.obj
 0002:00017a48       ??_C@_0BD@FNHKMCGA@TrackFX_SetEnabled@ 0000000180075a48     dllmain.obj
 0002:00017a60       ??_C@_0BJ@MOHPJIOG@TrackFX_SetEQBandEnabled@ 0000000180075a60     dllmain.obj
 0002:00017a80       ??_C@_0BD@ONNKIKDK@TrackFX_SetEQParam@ 0000000180075a80     dllmain.obj
 0002:00017a98       ??_C@_0BL@JNBGIPKL@TrackFX_SetNamedConfigParm@ 0000000180075a98     dllmain.obj
 0002:00017ab8       ??_C@_0BD@HPPADAIE@TrackFX_SetOffline@ 0000000180075ab8     dllmain.obj
 0002:00017ad0       ??_C@_0BA@PFGCCIFM@TrackFX_SetOpen@ 0000000180075ad0     dllmain.obj
 0002:00017ae0       ??_C@_0BB@NLOJEMHK@TrackFX_SetParam@ 0000000180075ae0     dllmain.obj
 0002:00017af8       ??_C@_0BL@FACFMFEG@TrackFX_SetParamNormalized@ 0000000180075af8     dllmain.obj
 0002:00017b18       ??_C@_0BH@EIDBBECB@TrackFX_SetPinMappings@ 0000000180075b18     dllmain.obj
 0002:00017b30       ??_C@_0BC@FINJDIJH@TrackFX_SetPreset@ 0000000180075b30     dllmain.obj
 0002:00017b48       ??_C@_0BJ@EJLJKPJG@TrackFX_SetPresetByIndex@ 0000000180075b48     dllmain.obj
 0002:00017b68       ??_C@_0N@CELBMNEA@TrackFX_Show@ 0000000180075b68     dllmain.obj
 0002:00017b78       ??_C@_0BI@EFCINEHE@TrackList_AdjustWindows@ 0000000180075b78     dllmain.obj
 0002:00017b90       ??_C@_0CE@EPANKBOF@TrackList_UpdateAllExternalSurf@ 0000000180075b90     dllmain.obj
 0002:00017bb8       ??_C@_0BA@NIFOCIFO@Undo_BeginBlock@ 0000000180075bb8     dllmain.obj
 0002:00017bc8       ??_C@_0BB@GBHLHGKK@Undo_BeginBlock2@ 0000000180075bc8     dllmain.obj
 0002:00017be0       ??_C@_0O@PDGCFMMM@Undo_CanRedo2@ 0000000180075be0     dllmain.obj
 0002:00017bf0       ??_C@_0O@JJLHFNGF@Undo_CanUndo2@ 0000000180075bf0     dllmain.obj
 0002:00017c00       ??_C@_0N@JCEFKPAL@Undo_DoRedo2@ 0000000180075c00     dllmain.obj
 0002:00017c10       ??_C@_0N@PIJAKOKC@Undo_DoUndo2@ 0000000180075c10     dllmain.obj
 0002:00017c20       ??_C@_0O@EGIMJADG@Undo_EndBlock@ 0000000180075c20     dllmain.obj
 0002:00017c30       ??_C@_0P@CCIMENHI@Undo_EndBlock2@ 0000000180075c30     dllmain.obj
 0002:00017c40       ??_C@_0BD@IADMBKHH@Undo_OnStateChange@ 0000000180075c40     dllmain.obj
 0002:00017c58       ??_C@_0BE@CDJBIMPE@Undo_OnStateChange2@ 0000000180075c58     dllmain.obj
 0002:00017c70       ??_C@_0BI@LAINKEGL@Undo_OnStateChange_Item@ 0000000180075c70     dllmain.obj
 0002:00017c88       ??_C@_0BF@MKLCKKC@Undo_OnStateChangeEx@ 0000000180075c88     dllmain.obj
 0002:00017ca0       ??_C@_0BG@NFKEDNJP@Undo_OnStateChangeEx2@ 0000000180075ca0     dllmain.obj
 0002:00017cb8       ??_C@_0BF@BHHAONJN@update_disk_counters@ 0000000180075cb8     dllmain.obj
 0002:00017cd0       ??_C@_0O@JGNDJDPL@UpdateArrange@ 0000000180075cd0     dllmain.obj
 0002:00017ce0       ??_C@_0BE@FFEIBPEA@UpdateItemInProject@ 0000000180075ce0     dllmain.obj
 0002:00017cf8       ??_C@_0P@GJLICICF@UpdateTimeline@ 0000000180075cf8     dllmain.obj
 0002:00017d08       ??_C@_0M@MANANGCF@ValidatePtr@ 0000000180075d08     dllmain.obj
 0002:00017d18       ??_C@_0N@KGLEFAOA@ValidatePtr2@ 0000000180075d18     dllmain.obj
 0002:00017d28       ??_C@_09CCFHDHMN@ViewPrefs@ 0000000180075d28     dllmain.obj
 0002:00017d38       ??_C@_0BM@HEEDKKGI@WDL_VirtualWnd_ScaledBlitBG@ 0000000180075d38     dllmain.obj
 0002:00017d58       ??_C@_0CN@ILMLCELO@DrivenByMoss?3?5Open?5the?5configur@ 0000000180075d58     dllmain.obj
 0002:00017d88       ??_C@_0DA@PDADNNHB@DrivenByMoss?3?5Open?5the?5project?5@ 0000000180075d88     dllmain.obj
 0002:00017db8       ??_C@_0CK@FGIFJMDL@Filled?5when?5the?5dialog?5is?5opene@ 0000000180075db8     dllmain.obj
 0002:00017de8       ??_C@_0BE@OCNCKLEO@DrivenByMoss4Reaper@ 0000000180075de8     dllmain.obj
 0002:00017e00       ??_C@_0BA@BMBAMCCC@?$DMDRIVEN_BY_MOSS@ 0000000180075e00     dllmain.obj
 0002:00017e10       ??_C@_02DKCKIIND@?$CFs@    0000000180075e10     dllmain.obj
 0002:00017e14       ??_C@_01PPODPGHN@?$DO@     0000000180075e14     dllmain.obj
 0002:00017e18       ??_C@_05EGBMJJAG@csurf@    0000000180075e18     dllmain.obj
 0002:00017e20       ??_C@_0DO@NHEJLHAN@Could?5not?5instantiate?5DrivenByM@ 0000000180075e20     dllmain.obj
 0002:00017e60       ??_C@_0O@JKANKLID@projectconfig@ 0000000180075e60     dllmain.obj
 0002:00017e70       ??_C@_0BH@BJGAHMFH@DBM_OPEN_WINDOW_ACTION@ 0000000180075e70     dllmain.obj
 0002:00017e88       ??_C@_0L@DNBEILEA@command_id@ 0000000180075e88     dllmain.obj
 0002:00017ea0       ??_C@_0EJ@GBFGODNN@Could?5not?5register?5ID?5for?5Drive@ 0000000180075ea0     dllmain.obj
 0002:00017eec       ??_C@_06JPHPPGAF@gaccel@   0000000180075eec     dllmain.obj
 0002:00017ef8       ??_C@_0DE@KEBKOFFD@Could?5not?5register?5DrivenByMoss@ 0000000180075ef8     dllmain.obj
 0002:00017f30       ??_C@_0BP@OOIKIKEM@DBM_OPEN_PROJECT_WINDOW_ACTION@ 0000000180075f30     dllmain.obj
 0002:00017f50       ??_C@_0ED@IFGCKIHO@Could?5not?5register?5ID?5for?5Drive@ 0000000180075f50     dllmain.obj
 0002:00017f98       ??_C@_0DF@GMDLPKKG@Could?5not?5register?5DrivenByMoss@ 0000000180075f98     dllmain.obj
 0002:00017fd0       ??_C@_0M@KBJCONNP@hookcommand@ 0000000180075fd0     dllmain.obj
 0002:00017fe0       ??_C@_0DB@IBNHDLIJ@Could?5not?5register?5DrivenByMoss@ 0000000180075fe0     dllmain.obj
 0002:00018018       ??_C@_0DE@NAOJCIPE@DrivenByMoss4Reaper?5?9?5Supports?5@ 0000000180076018     DrivenByMossSurface.obj
 0002:0001804c       ??_C@_05LBJMNBOG@empty@    000000018007604c     DrivenByMossSurface.obj
 0002:00018058       ??_C@_0P@EHLONKHB@IP_TRACKNUMBER@ 0000000180076058     DrivenByMossSurface.obj
 0002:00018070       ??_7IReaperControlSurface@@6B@ 0000000180076070     DrivenByMossSurface.obj
 0002:00018128       ??_7StopProcessor@@6B@     0000000180076128     DrivenByMossSurface.obj
 0002:00018160       ??_7DrivenByMossSurface@@6B@ 0000000180076160     DrivenByMossSurface.obj
 0002:00018218       ??_7OscParser@@6B@         0000000180076218     DrivenByMossSurface.obj
 0002:00018248       ??_7PlayProcessor@@6B@     0000000180076248     DrivenByMossSurface.obj
 0002:00018278       ??_C@_06MDLIGPKC@active@   0000000180076278     GrooveProcessor.obj
 0002:00018280       ??_C@_06LFKBJBLO@amount@   0000000180076280     GrooveProcessor.obj
 0002:00018290       ??_7GrooveProcessor@@6B@   0000000180076290     GrooveProcessor.obj
 0002:000182c8       ??_7IniFileProcessor@@6B@  00000001800762c8     IniFileProcessor.obj
 0002:000182f8       ??_C@_0CP@KCPIDLPG@ERROR?3?5Could?5not?5store?5paramete@ 00000001800762f8     IniFileProcessor.obj
 0002:00018328       ??_C@_01KICIPPFI@?2@       0000000180076328     IniFileProcessor.obj
 0002:00018330       ??_C@_0L@MJCKOOJK@REAPER?4ini@ 0000000180076330     IniFileProcessor.obj
 0002:00018340       ??_C@_0ED@FFCIGCNK@?9agentlib?3jdwp?$DNtransport?$DNdt_soc@ 0000000180076340     JvmManager.obj
 0002:00018384       ??_C@_03GAEACAIP@?$CI?$CJV@ 0000000180076384     JvmManager.obj
 0002:00018388       ??_C@_08FIACBBDA@shutdown@ 0000000180076388     JvmManager.obj
 0002:00018398       ??_C@_0BJ@FAKLGBJH@Could?5not?5call?5shutdown?4@ 0000000180076398     JvmManager.obj
 0002:000183b8       ??_C@_0N@FMPOIJDE@java?9runtime@ 00000001800763b8     JvmManager.obj
 0002:000183c8       ??_C@_0BB@IDHJDMHA@JNI_CreateJavaVM@ 00000001800763c8     JvmManager.obj
 0002:000183e0       ??_C@_0DP@IOAEGLJN@ERROR?3?5Could?5not?5lookup?5CreateJ@ 00000001800763e0     JvmManager.obj
 0002:00018420       ??_C@_0DC@GKECNGJC@ERROR?3?5Could?5not?5start?5Java?5Vir@ 0000000180076420     JvmManager.obj
 0002:00018458       ??_C@_0CF@FGAOHDAP@Could?5not?5find?5Java?5dynamic?5lib@ 0000000180076458     JvmManager.obj
 0002:00018480       ??_C@_0O@HKABLOMK@?5Error?5Code?3?5@ 0000000180076480     JvmManager.obj
 0002:00018490       ??_C@_0CG@CBDFCFGD@Could?5not?5load?5Java?5dynamic?5lib@ 0000000180076490     JvmManager.obj
 0002:000184b8       ??_C@_0BE@NKHIGJCB@?2bin?2server?2jvm?4dll@ 00000001800764b8     JvmManager.obj
 0002:000184d0       ??_C@_0CD@EPLMGNG@Java?5dynamic?5library?5not?5found?5@ 00000001800764d0     JvmManager.obj
 0002:000184f8       ??_C@_0N@OCAIGKLH@processNoArg@ 00000001800764f8     JvmManager.obj
 0002:00018508       ??_C@_0CI@HEGLGDKJ@?$CILjava?1lang?1String?$DLLjava?1lang?1S@ 0000000180076508     JvmManager.obj
 0002:00018530       ??_C@_0BB@IDBKPPEE@processStringArg@ 0000000180076530     JvmManager.obj
 0002:00018548       ??_C@_0DK@FECPGPEK@?$CILjava?1lang?1String?$DLLjava?1lang?1S@ 0000000180076548     JvmManager.obj
 0002:00018588       ??_C@_0O@OABCDPCM@processIntArg@ 0000000180076588     JvmManager.obj
 0002:00018598       ??_C@_0CJ@CHBEFCJD@?$CILjava?1lang?1String?$DLLjava?1lang?1S@ 0000000180076598     JvmManager.obj
 0002:000185c8       ??_C@_0BB@FHDHBGPB@processDoubleArg@ 00000001800765c8     JvmManager.obj
 0002:000185e0       ??_C@_0CJ@NFHOIKEO@?$CILjava?1lang?1String?$DLLjava?1lang?1S@ 00000001800765e0     JvmManager.obj
 0002:00018610       ??_C@_0O@NMIFLEBE@enableUpdates@ 0000000180076610     JvmManager.obj
 0002:00018620       ??_C@_0BH@BOPHNJNA@?$CILjava?1lang?1String?$DLZ?$CJV@ 0000000180076620     JvmManager.obj
 0002:00018638       ??_C@_0N@NOBBCGJP@delayUpdates@ 0000000180076638     JvmManager.obj
 0002:00018648       ??_C@_0BG@IKDDPPGD@?$CILjava?1lang?1String?$DL?$CJV@ 0000000180076648     JvmManager.obj
 0002:00018660       ??_C@_0P@FDHNODEC@processMidiArg@ 0000000180076660     JvmManager.obj
 0002:00018670       ??_C@_06NOBEKGOM@?$CIIII?$CJV@ 0000000180076670     JvmManager.obj
 0002:00018678       ??_C@_0BO@FLIEBOGA@de?1mossgrabers?1reaper?1MainApp@ 0000000180076678     JvmManager.obj
 0002:00018698       ??_C@_0CI@CFKOIPIC@MainFrame?4class?5could?5not?5be?5re@ 0000000180076698     JvmManager.obj
 0002:000186c0       ??_C@_0CL@PCNKPFEB@ERROR?3?5Could?5not?5register?5nativ@ 00000001800766c0     JvmManager.obj
 0002:000186f0       ??_C@_07HJMHMJAL@startup@  00000001800766f0     JvmManager.obj
 0002:000186f8       ??_C@_0BP@PAIGBBBL@ERROR?3?5Could?5not?5call?5startup?4@ 00000001800766f8     JvmManager.obj
 0002:00018718       ??_C@_0O@NEEDOPBG@displayWindow@ 0000000180076718     JvmManager.obj
 0002:00018728       ??_C@_0CF@CDHOJJPA@ERROR?3?5Could?5not?5call?5displayWi@ 0000000180076728     JvmManager.obj
 0002:00018750       ??_C@_0BF@BMIHIHAF@displayProjectWindow@ 0000000180076750     JvmManager.obj
 0002:00018768       ??_C@_0CM@CBLFEPDA@ERROR?3?5Could?5not?5call?5displayPr@ 0000000180076768     JvmManager.obj
 0002:00018798       ??_C@_0M@DPNFOEFI@updateModel@ 0000000180076798     JvmManager.obj
 0002:000187a8       ??_C@_0CD@PDOGHKH@ERROR?3?5Could?5not?5call?5updateMod@ 00000001800767a8     JvmManager.obj
 0002:000187d0       ??_C@_0BL@HHJBJIMF@setDefaultDocumentSettings@ 00000001800767d0     JvmManager.obj
 0002:000187f0       ??_C@_0DC@IJPMALMH@ERROR?3?5Could?5not?5call?5setDefaul@ 00000001800767f0     JvmManager.obj
 0002:00018828       ??_C@_0BF@FOHFOJOB@?$CI?$CJLjava?1lang?1String?$DL@ 0000000180076828     JvmManager.obj
 0002:00018840       ??_C@_0BN@IBCMBBIG@getFormattedDocumentSettings@ 0000000180076840     JvmManager.obj
 0002:00018860       ??_C@_0DE@PFCNDNME@ERROR?3?5Could?5not?5call?5getFormat@ 0000000180076860     JvmManager.obj
 0002:00018898       ??_C@_0BN@FAIKPOFC@setFormattedDocumentSettings@ 0000000180076898     JvmManager.obj
 0002:000188b8       ??_C@_0DE@HEECINOG@ERROR?3?5Could?5not?5call?5setFormat@ 00000001800768b8     JvmManager.obj
 0002:000188f0       ??_C@_0CO@BNCGPLKM@ERROR?3?5Could?5not?5change?5current@ 00000001800768f0     JvmManager.obj
 0002:00018920       ??_C@_0BC@PPNMJDK@drivenbymoss?9libs@ 0000000180076920     JvmManager.obj
 0002:00018934       ??_C@_04EHKLDEID@?4jar@    0000000180076934     JvmManager.obj
 0002:0001893c       ??_C@_01KMDKNFGN@?1@       000000018007693c     JvmManager.obj
 0002:00018940       ??_C@_0CF@EGHKGIFI@No?5JAR?5files?5found?5in?5library?5p@ 0000000180076940     JvmManager.obj
 0002:00018968       ??_C@_0BD@HCEIMOC@?9Djava?4class?4path?$DN@ 0000000180076968     JvmManager.obj
 0002:00018980       ??_C@_0CB@HNKEGBEC@Could?5not?5retrieve?5library?5path@ 0000000180076980     JvmManager.obj
 0002:000189a8       ??_C@_0BI@LBIFOBMO@reaper_drivenbymoss?4dll@ 00000001800769a8     JvmManager.obj
 0002:000189c0       ??_C@_02KHDDNBB@?2?$CK@    00000001800769c0     JvmManager.obj
 0002:000189c8       ??_C@_0CA@PJMFMMOK@Error?5looking?5up?5JAR?5files?5in?3?5@ 00000001800769c8     JvmManager.obj
 0002:000189e8       ??_C@_08JCDFGHAO@toString@ 00000001800769e8     JvmManager.obj
 0002:000189f8       ??_C@_0BB@DDFKOHA@java?1lang?1Object@ 00000001800769f8     JvmManager.obj
 0002:00018a10       ??_C@_0CB@FPBIMHAE@de?1mossgrabers?1reaper?1Controlle@ 0000000180076a10     JvmManager.obj
 0002:00018a38       ??_C@_0CJ@FMMJNCBG@Controller?4class?5could?5not?5be?5r@ 0000000180076a38     JvmManager.obj
 0002:00018a64       ??_C@_06OGCODMJI@exists@   0000000180076a64     Marker.obj
 0002:00018a6c       ??_C@_06EBGNBFIA@number@   0000000180076a6c     Marker.obj
 0002:00018a74       ??_C@_04MEMAJGDJ@name@     0000000180076a74     Marker.obj
 0002:00018a88       ??_7Marker@@6B@            0000000180076a88     Marker.obj
 0002:00018a98       ??_7MarkerProcessor@@6B@   0000000180076a98     MarkerProcessor.obj
 0002:00018ac8       ??_C@_07GDIFMFMA@Marker?5@ 0000000180076ac8     MarkerProcessor.obj
 0002:00018ad0       ??_C@_06OAFDKBLG@launch@   0000000180076ad0     MarkerProcessor.obj
 0002:00018ad8       ??_C@_04EHECDAIE@solo@     0000000180076ad8     MastertrackProcessor.obj
 0002:00018ae0       ??_C@_06PMHNHABH@I_SOLO@   0000000180076ae0     MastertrackProcessor.obj
 0002:00018ae8       ??_C@_04EPOMLENO@mute@     0000000180076ae8     MastertrackProcessor.obj
 0002:00018af0       ??_C@_08NOKGDKI@autotrim@  0000000180076af0     MastertrackProcessor.obj
 0002:00018b00       ??_C@_08JALFBDNP@autoread@ 0000000180076b00     MastertrackProcessor.obj
 0002:00018b10       ??_C@_09PNAFLGAI@autotouch@ 0000000180076b10     MastertrackProcessor.obj
 0002:00018b20       ??_C@_09FFOJLEAK@autowrite@ 0000000180076b20     MastertrackProcessor.obj
 0002:00018b30       ??_C@_09BFAMOPPK@autolatch@ 0000000180076b30     MastertrackProcessor.obj
 0002:00018b3c       ??_C@_06EMCPHFGM@volume@   0000000180076b3c     MastertrackProcessor.obj
 0002:00018b44       ??_C@_03HOPGHEB@pan@       0000000180076b44     MastertrackProcessor.obj
 0002:00018b48       ??_C@_04CCHAHKJA@user@     0000000180076b48     MastertrackProcessor.obj
 0002:00018b50       ??_C@_0BH@FFJGIILI@Set?5master?5track?5color@ 0000000180076b50     MastertrackProcessor.obj
 0002:00018b70       ??_7MastertrackProcessor@@6B@ 0000000180076b70     MastertrackProcessor.obj
 0002:00018ba0       ??_C@_0CA@ILLJIJGB@Could?5not?5add?5function?4?5Cause?3?5@ 0000000180076ba0     Model.obj
 0002:00018bc0       ??_C@_0BI@GNBIJBIC@Could?5not?5add?5function?4@ 0000000180076bc0     Model.obj
 0002:00018bd8       ??_C@_0P@ODALKAKM@?1device?1param?1@ 0000000180076bd8     Model.obj
 0002:00018be8       ??_C@_0L@MAHBCFJ@?1eq?1param?1@ 0000000180076be8     Model.obj
 0002:00018bf8       ??_C@_0N@LDKPODF@?1user?1param?1@ 0000000180076bf8     Model.obj
 0002:00018c10       ??_7?$_Ref_count_obj2@VMarker@@@std@@6B@ 0000000180076c10     Model.obj
 0002:00018c38       ??_7?$_Ref_count_obj2@VParameter@@@std@@6B@ 0000000180076c38     Model.obj
 0002:00018c60       ??_7?$_Ref_count_obj2@VTrack@@@std@@6B@ 0000000180076c60     Model.obj
 0002:00018c80       ??_C@_04HCCHHEEF@rate@     0000000180076c80     NoteRepeatProcessor.obj
 0002:00018c88       ??_C@_0L@OJHCAPBL@notelength@ 0000000180076c88     NoteRepeatProcessor.obj
 0002:00018c94       ??_C@_04GMGOKAFF@mode@     0000000180076c94     NoteRepeatProcessor.obj
 0002:00018ca0       ??_C@_08ICEJNDOI@velocity@ 0000000180076ca0     NoteRepeatProcessor.obj
 0002:00018cb8       ??_7NoteRepeatProcessor@@6B@ 0000000180076cb8     NoteRepeatProcessor.obj
 0002:00018cf0       ??_7ProjectProcessor@@6B@  0000000180076cf0     OscParser.obj
 0002:00018d28       ??_7TimeProcessor@@6B@     0000000180076d28     OscParser.obj
 0002:00018d60       ??_7RepeatProcessor@@6B@   0000000180076d60     OscParser.obj
 0002:00018d98       ??_7RecordProcessor@@6B@   0000000180076d98     OscParser.obj
 0002:00018dd0       ??_7UndoProcessor@@6B@     0000000180076dd0     OscParser.obj
 0002:00018e40       ??_7CursorProcessor@@6B@   0000000180076e40     OscParser.obj
 0002:00018ee8       ??_7MetronomeVolumeProcessor@@6B@ 0000000180076ee8     OscParser.obj
 0002:00018f20       ??_7QuantizeProcessor@@6B@ 0000000180076f20     OscParser.obj
 0002:00018f58       ??_7TempoProcessor@@6B@    0000000180076f58     OscParser.obj
 0002:00018fc0       ??_8?$basic_istringstream@DU?$char_traits@D@std@@V?$allocator@D@2@@std@@7B@ 0000000180076fc0     OscParser.obj
 0002:00018fd0       ??_7RedoProcessor@@6B@     0000000180076fd0     OscParser.obj
 0002:00019008       ??_7?$basic_istringstream@DU?$char_traits@D@std@@V?$allocator@D@2@@std@@6B@ 0000000180077008     OscParser.obj
 0002:00019018       ??_7RefreshProcessor@@6B@  0000000180077018     OscParser.obj
 0002:00019048       ??_C@_02ECNGHCIF@?$CL?$CL@ 0000000180077048     OscParser.obj
 0002:0001904c       ??_C@_02BAABKJLB@?9?9@     000000018007704c     OscParser.obj
 0002:00019050       ??_C@_06LOBMEHPF@engine@   0000000180077050     OscParser.obj
 0002:00019058       ??_C@_04GBHMDDO@play@      0000000180077058     OscParser.obj
 0002:00019060       ??_C@_04PEGFANN@stop@      0000000180077060     OscParser.obj
 0002:00019068       ??_C@_06KKGOIHDP@record@   0000000180077068     OscParser.obj
 0002:00019070       ??_C@_06LGDBIFHB@repeat@   0000000180077070     OscParser.obj
 0002:00019078       ??_C@_04CLCEDBPF@time@     0000000180077078     OscParser.obj
 0002:00019080       ??_C@_05PAIENJFA@tempo@    0000000180077080     OscParser.obj
 0002:00019088       ??_C@_06DDLLCOJG@action@   0000000180077088     OscParser.obj
 0002:00019090       ??_C@_08ODBAGKK@quantize@  0000000180077090     OscParser.obj
 0002:000190a0       ??_C@_09PKADDAKJ@metro_vol@ 00000001800770a0     OscParser.obj
 0002:000190ac       ??_C@_04HOKNPDPJ@undo@     00000001800770ac     OscParser.obj
 0002:000190b4       ??_C@_04BLIMKIOI@redo@     00000001800770b4     OscParser.obj
 0002:000190bc       ??_C@_06CHDIMBDP@cursor@   00000001800770bc     OscParser.obj
 0002:000190c8       ??_C@_07HPCLKEG@refresh@   00000001800770c8     OscParser.obj
 0002:000190d0       ??_C@_07KIBAGFOO@inifile@  00000001800770d0     OscParser.obj
 0002:000190d8       ??_C@_0N@MCFBDBKC@No?5function?5@ 00000001800770d8     OscParser.obj
 0002:000190e8       ??_C@_0N@EHJGMBEM@?5registered?$CB@ 00000001800770e8     OscParser.obj
 0002:000190f8       ??_C@_0BG@BBKNOMOH@invalid?5map?$DMK?0?5T?$DO?5key@ 00000001800770f8     OscParser.obj
 0002:00019110       ??_C@_0BC@KBDMBKEH@deque?$DMT?$DO?5too?5long@ 0000000180077110     OscParser.obj
 0002:00019128       ??_C@_09LJPNEPHP@value?1str@ 0000000180077128     Parameter.obj
 0002:00019138       ??_C@_0CH@NFNGGIIP@Could?5not?5create?5parameter?5addr@ 0000000180077138     Parameter.obj
 0002:00019160       ??_C@_0CL@PNFFFBBA@Could?5not?5display?5error?5message@ 0000000180077160     ReaDebug.obj
 0002:00019190       ??_C@_0P@OOBKDDNB@drivenbymoss?3?5@ 0000000180077190     ReaDebug.obj
 0002:000191d8       ??_C@_0P@CDIKMADL@Delete?5region?4@ 00000001800771d8     SceneProcessor.obj
 0002:000191f0       ??_7SceneProcessor@@6B@    00000001800771f0     SceneProcessor.obj
 0002:00019220       ??_C@_09NECIFLDG@projsrate@ 0000000180077220     Send.obj
 0002:0001922c       ??_C@_05BEGCACKP@send?1@   000000018007722c     Send.obj
 0002:00019238       ??_C@_0L@DKFGLLIJ@volume?1str@ 0000000180077238     Send.obj
 0002:00019248       ??_C@_07FBJIEFMP@?$DMVOLENV@ 0000000180077248     Send.obj
 0002:00019250       ??_C@_05MCNPPMKG@P_ENV@    0000000180077250     Send.obj
 0002:00019260       ??_7Send@@6B@              0000000180077260     Send.obj
 0002:00019268       ??_C@_0N@BFLOIAEN@LOCK?2s?$CL?$CI?2d?$CL?$CJ@ 0000000180077268     Track.obj
 0002:00019280       ??_C@_0GB@NNIKFFMB@INQ?2s?$CL?$CI?$FL0?99?$FN?$CL?$CI?2?4?$FL0?99?$FN?$CL?$CJ?$DP?$CJ?2s?$CL?$CI?9?$DP@ 0000000180077280     Track.obj
 0002:000192e4       ??_C@_05BJGJGKJC@depth@    00000001800772e4     Track.obj
 0002:000192ec       ??_C@_05NAIABEH@GROUP@     00000001800772ec     Track.obj
 0002:000192f4       ??_C@_06JGJPLCOO@HYBRID@   00000001800772f4     Track.obj
 0002:000192fc       ??_C@_04GPMDFGEJ@type@     00000001800772fc     Track.obj
 0002:00019304       ??_C@_06JLHDELEF@recarm@   0000000180077304     Track.obj
 0002:00019310       ??_C@_08GPAPNGCJ@I_RECMON@ 0000000180077310     Track.obj
 0002:00019320       ??_C@_07LAMOHCEE@monitor@  0000000180077320     Track.obj
 0002:00019328       ??_C@_0M@BHLFLMFF@autoMonitor@ 0000000180077328     Track.obj
 0002:00019338       ??_C@_07FNFIPECC@pan?1str@ 0000000180077338     Track.obj
 0002:00019340       ??_C@_02CIKLPLM@vu@        0000000180077340     Track.obj
 0002:00019344       ??_C@_06OBPHMPPP@vuleft@   0000000180077344     Track.obj
 0002:00019350       ??_C@_07DHBMBHCL@vuright@  0000000180077350     Track.obj
 0002:00019358       ??_C@_08CGIAAEC@automode@  0000000180077358     Track.obj
 0002:00019368       ??_C@_0L@PNHKJPMJ@send?1count@ 0000000180077368     Track.obj
 0002:00019374       ??_C@_06IDJCEMPA@Volume@   0000000180077374     Track.obj
 0002:0001937c       ??_C@_03KHNNMIHP@Pan@      000000018007737c     Track.obj
 0002:00019380       ??_C@_04IOCNJLNK@Mute@     0000000180077380     Track.obj
 0002:00019388       ??_C@_0BF@OIEKEAOG@inQuantLengthEnabled@ 0000000180077388     Track.obj
 0002:000193a0       ??_C@_0BC@BGAFBIPI@inQuantResolution@ 00000001800773a0     Track.obj
 0002:000193c0       ??_7TrackProcessor@@6B@    00000001800773c0     TrackProcessor.obj
 0002:000193f0       ??_C@_08JAEGKKIH@scrollto@ 00000001800773f0     TrackProcessor.obj
 0002:00019400       ??_C@_0N@PGBEDMAC@Delete?5track@ 0000000180077400     TrackProcessor.obj
 0002:00019410       ??_C@_0BA@GPAOPBHJ@clearAutomation@ 0000000180077410     TrackProcessor.obj
 0002:00019420       ??_C@_0L@IHNFAKFG@recordClip@ 0000000180077420     TrackProcessor.obj
 0002:00019430       ??_C@_0M@FDOLGILI@Delete?5item@ 0000000180077430     TrackProcessor.obj
 0002:00019440       ??_C@_0P@NDJCCHMC@Duplicate?5item@ 0000000180077440     TrackProcessor.obj
 0002:00019450       ??_C@_0L@ODMDAGOL@createClip@ 0000000180077450     TrackProcessor.obj
 0002:00019460       ??_C@_0O@ECKJKGIJ@autotrim_read@ 0000000180077460     TrackProcessor.obj
 0002:00019470       ??_C@_0BC@HICKANDF@autolatch_preview@ 0000000180077470     TrackProcessor.obj
 0002:00019484       ??_C@_05HOLIDFGP@touch@    0000000180077484     TrackProcessor.obj
 0002:0001948c       ??_C@_04MIIPNNEF@send@     000000018007748c     TrackProcessor.obj
 0002:00019498       ??_C@_0P@HPBJLGE@Set?5track?5name@ 0000000180077498     TrackProcessor.obj
 0002:000194a8       ??_C@_08BKAKAKHB@I_RECARM@ 00000001800774a8     TrackProcessor.obj
 0002:000194b8       ??_C@_09MCEEKJCM@I_RECMODE@ 00000001800774b8     TrackProcessor.obj
 0002:000194c8       ??_C@_0BM@GGAHKAEH@Create?5Midi?5Clip?5and?5Record@ 00000001800774c8     TrackProcessor.obj
 0002:000194e8       ??_C@_0BB@MFHEMNGC@Record?5Midi?5Clip@ 00000001800774e8     TrackProcessor.obj
 0002:00019500       ??_C@_0BA@OBFEAAKC@Set?5track?5color@ 0000000180077500     TrackProcessor.obj
 0002:00019510       ??_C@_0N@GEEAPHJO@Enable?5track@ 0000000180077510     TrackProcessor.obj
 0002:00019520       ??_C@_0O@FJOJKOCN@Disable?5track@ 0000000180077520     TrackProcessor.obj
 0002:00019530       ??_C@_0CK@CMGONCKF@Delete?5all?5automation?5envelopes@ 0000000180077530     TrackProcessor.obj
 0002:00019560       __real@3ddb7cdfd9d7bdbb    0000000180077560     DataCollector.obj
 0002:00019568       __real@3e60000000000000    0000000180077568     DataCollector.obj
 0002:00019570       __real@3f1a36e2eb1c432d    0000000180077570     ClipProcessor.obj
 0002:00019578       __real@3f50624dd2f1a9fc    0000000180077578     DataCollector.obj
 0002:00019580       __real@3fbd791c5f888822    0000000180077580     MastertrackProcessor.obj
 0002:00019588       __real@3fc0000000000000    0000000180077588     TrackProcessor.obj
 0002:00019590       __real@3fd0000000000000    0000000180077590     TrackProcessor.obj
 0002:00019598       __real@3fe0000000000000    0000000180077598     TrackProcessor.obj
 0002:000195a0       __real@3ff0000000000000    00000001800775a0     TrackProcessor.obj
 0002:000195a8       __real@4000000000000000    00000001800775a8     MastertrackProcessor.obj
 0002:000195b0       __real@4008000000000000    00000001800775b0     MastertrackProcessor.obj
 0002:000195b8       __real@4010000000000000    00000001800775b8     MastertrackProcessor.obj
 0002:000195c0       __real@4018000000000000    00000001800775c0     DataCollector.obj
 0002:000195c8       __real@401c000000000000    00000001800775c8     TrackProcessor.obj
 0002:000195d0       __real@4020000000000000    00000001800775d0     DeviceProcessor.obj
 0002:000195d8       __real@40215f2ced384f29    00000001800775d8     DataCollector.obj
 0002:000195e0       __real@404e000000000000    00000001800775e0     TrackProcessor.obj
 0002:000195e8       __real@4050800000000000    00000001800775e8     DataCollector.obj
 0002:000195f0       __real@4059000000000000    00000001800775f0     DataCollector.obj
 0002:000195f8       __real@408f400000000000    00000001800775f8     MastertrackProcessor.obj
 0002:00019600       __real@4202a05f20000000    0000000180077600     ActionProcessor.obj
 0002:00019608       __real@bff0000000000000    0000000180077608     ClipProcessor.obj
 0002:00019610       __real@c04e000000000000    0000000180077610     DataCollector.obj
 0002:00019618       __real@c059000000000000    0000000180077618     DataCollector.obj
 0002:00019620       __real@c062c00000000000    0000000180077620     DataCollector.obj
 0002:00019630       __xmm@7fffffffffffffff7fffffffffffffff 0000000180077630     ClipProcessor.obj
 0002:000199c0       _load_config_used          00000001800779c0     LIBCMT:loadcfg.obj
 0002:00019b00       ??_R4bad_function_call@std@@6B@ 0000000180077b00     libcpmt:xthrow.obj
 0002:00019b28       ??_R3bad_function_call@std@@8 0000000180077b28     libcpmt:xthrow.obj
 0002:00019b40       ??_R2bad_function_call@std@@8 0000000180077b40     libcpmt:xthrow.obj
 0002:00019b58       ??_R1A@?0A@EA@bad_function_call@std@@8 0000000180077b58     libcpmt:xthrow.obj
 0002:00019b80       ??_R4logic_error@std@@6B@  0000000180077b80     libcpmt:xthrow.obj
 0002:00019ba8       ??_R3logic_error@std@@8    0000000180077ba8     libcpmt:xthrow.obj
 0002:00019bc0       ??_R2logic_error@std@@8    0000000180077bc0     libcpmt:xthrow.obj
 0002:00019bd8       ??_R1A@?0A@EA@logic_error@std@@8 0000000180077bd8     libcpmt:xthrow.obj
 0002:00019c00       ??_R4length_error@std@@6B@ 0000000180077c00     libcpmt:xthrow.obj
 0002:00019c28       ??_R3length_error@std@@8   0000000180077c28     libcpmt:xthrow.obj
 0002:00019c40       ??_R2length_error@std@@8   0000000180077c40     libcpmt:xthrow.obj
 0002:00019c60       ??_R1A@?0A@EA@length_error@std@@8 0000000180077c60     libcpmt:xthrow.obj
 0002:00019c88       ??_R4out_of_range@std@@6B@ 0000000180077c88     libcpmt:xthrow.obj
 0002:00019cb0       ??_R3out_of_range@std@@8   0000000180077cb0     libcpmt:xthrow.obj
 0002:00019cc8       ??_R2out_of_range@std@@8   0000000180077cc8     libcpmt:xthrow.obj
 0002:00019ce8       ??_R1A@?0A@EA@out_of_range@std@@8 0000000180077ce8     libcpmt:xthrow.obj
 0002:00019d10       ??_R4regex_error@std@@6B@  0000000180077d10     libcpmt:xthrow.obj
 0002:00019d38       ??_R3regex_error@std@@8    0000000180077d38     libcpmt:xthrow.obj
 0002:00019d50       ??_R2regex_error@std@@8    0000000180077d50     libcpmt:xthrow.obj
 0002:00019d70       ??_R1A@?0A@EA@regex_error@std@@8 0000000180077d70     libcpmt:xthrow.obj
 0002:00019d98       ??_R4_Locimp@locale@std@@6B@ 0000000180077d98     libcpmt:locale0.obj
 0002:00019dc0       ??_R3_Locimp@locale@std@@8 0000000180077dc0     libcpmt:locale0.obj
 0002:00019dd8       ??_R2_Locimp@locale@std@@8 0000000180077dd8     libcpmt:locale0.obj
 0002:00019e00       ??_R1A@?0A@EA@_Locimp@locale@std@@8 0000000180077e00     libcpmt:locale0.obj
 0002:00019e28       ??_R4_Generic_error_category@std@@6B@ 0000000180077e28     libcpmt:thread0.obj
 0002:00019e50       ??_R3_Generic_error_category@std@@8 0000000180077e50     libcpmt:thread0.obj
 0002:00019e68       ??_R2_Generic_error_category@std@@8 0000000180077e68     libcpmt:thread0.obj
 0002:00019e80       ??_R1A@?0A@EA@_Generic_error_category@std@@8 0000000180077e80     libcpmt:thread0.obj
 0002:00019ea8       ??_R3stl_critical_section_interface@details@Concurrency@@8 0000000180077ea8     libcpmt:mutex.obj
 0002:00019ec0       ??_R2stl_critical_section_interface@details@Concurrency@@8 0000000180077ec0     libcpmt:mutex.obj
 0002:00019ed0       ??_R1A@?0A@EA@stl_critical_section_interface@details@Concurrency@@8 0000000180077ed0     libcpmt:mutex.obj
 0002:00019ef8       ??_R4stl_critical_section_vista@details@Concurrency@@6B@ 0000000180077ef8     libcpmt:mutex.obj
 0002:00019f20       ??_R3stl_critical_section_vista@details@Concurrency@@8 0000000180077f20     libcpmt:mutex.obj
 0002:00019f38       ??_R2stl_critical_section_vista@details@Concurrency@@8 0000000180077f38     libcpmt:mutex.obj
 0002:00019f50       ??_R1A@?0A@EA@stl_critical_section_vista@details@Concurrency@@8 0000000180077f50     libcpmt:mutex.obj
 0002:00019f78       ??_R4stl_critical_section_win7@details@Concurrency@@6B@ 0000000180077f78     libcpmt:mutex.obj
 0002:00019fa0       ??_R3stl_critical_section_win7@details@Concurrency@@8 0000000180077fa0     libcpmt:mutex.obj
 0002:00019fb8       ??_R2stl_critical_section_win7@details@Concurrency@@8 0000000180077fb8     libcpmt:mutex.obj
 0002:00019fd0       ??_R1A@?0A@EA@stl_critical_section_win7@details@Concurrency@@8 0000000180077fd0     libcpmt:mutex.obj
 0002:00019ff8       ??_R4type_info@@6B@        0000000180077ff8     LIBCMT:std_type_info_static.obj
 0002:0001a020       ??_R3type_info@@8          0000000180078020     LIBCMT:std_type_info_static.obj
 0002:0001a038       ??_R2type_info@@8          0000000180078038     LIBCMT:std_type_info_static.obj
 0002:0001a048       ??_R1A@?0A@EA@type_info@@8 0000000180078048     LIBCMT:std_type_info_static.obj
 0002:0001a070       ??_R4bad_exception@std@@6B@ 0000000180078070     libvcruntime:frame.obj
 0002:0001a098       ??_R3bad_exception@std@@8  0000000180078098     libvcruntime:frame.obj
 0002:0001a0b0       ??_R2bad_exception@std@@8  00000001800780b0     libvcruntime:frame.obj
 0002:0001a0c8       ??_R1A@?0A@EA@bad_exception@std@@8 00000001800780c8     libvcruntime:frame.obj
 0002:0001a0f0       ??_R3_Node_back@std@@8     00000001800780f0     ActionProcessor.obj
 0002:0001a108       ??_R4exception@std@@6B@    0000000180078108     ActionProcessor.obj
 0002:0001a130       ??_R4_Node_assert@std@@6B@ 0000000180078130     ActionProcessor.obj
 0002:0001a158       ??_R2bad_array_new_length@std@@8 0000000180078158     ActionProcessor.obj
 0002:0001a178       ??_R2system_error@std@@8   0000000180078178     ActionProcessor.obj
 0002:0001a1a0       ??_R1A@?0A@EA@system_error@std@@8 00000001800781a0     ActionProcessor.obj
 0002:0001a1c8       ??_R3?$ctype@D@std@@8      00000001800781c8     ActionProcessor.obj
 0002:0001a1e0       ??_R3_Node_assert@std@@8   00000001800781e0     ActionProcessor.obj
 0002:0001a1f8       ??_R1A@?0A@EA@?$_Node_str@D@std@@8 00000001800781f8     ActionProcessor.obj
 0002:0001a220       ??_R2?$num_put@DV?$ostreambuf_iterator@DU?$char_traits@D@std@@@std@@@std@@8 0000000180078220     ActionProcessor.obj
 0002:0001a248       ??_R4runtime_error@std@@6B@ 0000000180078248     ActionProcessor.obj
 0002:0001a270       ??_R1A@?0A@EA@_Node_end_rep@std@@8 0000000180078270     ActionProcessor.obj
 0002:0001a298       ??_R3_Node_if@std@@8       0000000180078298     ActionProcessor.obj
 0002:0001a2b0       ??_R3_Node_rep@std@@8      00000001800782b0     ActionProcessor.obj
 0002:0001a2c8       ??_R4_System_error@std@@6B@ 00000001800782c8     ActionProcessor.obj
 0002:0001a2f0       ??_R3_Facet_base@std@@8    00000001800782f0     ActionProcessor.obj
 0002:0001a308       ??_R1A@?0A@EA@_Node_if@std@@8 0000000180078308     ActionProcessor.obj
 0002:0001a330       ??_R1A@?0A@EA@_Node_endif@std@@8 0000000180078330     ActionProcessor.obj
 0002:0001a358       ??_R1A@?0A@EA@_Node_back@std@@8 0000000180078358     ActionProcessor.obj
 0002:0001a380       ??_R1A@?0A@EA@bad_cast@std@@8 0000000180078380     ActionProcessor.obj
 0002:0001a3a8       ??_R2bad_alloc@std@@8      00000001800783a8     ActionProcessor.obj
 0002:0001a3c0       ??_R4_Root_node@std@@6B@   00000001800783c0     ActionProcessor.obj
 0002:0001a3e8       ??_R1A@?0A@EA@_Node_rep@std@@8 00000001800783e8     ActionProcessor.obj
 0002:0001a410       ??_R3_Crt_new_delete@std@@8 0000000180078410     ActionProcessor.obj
 0002:0001a428       ??_R1A@?0A@EA@runtime_error@std@@8 0000000180078428     ActionProcessor.obj
 0002:0001a450       ??_R2_System_error@std@@8  0000000180078450     ActionProcessor.obj
 0002:0001a470       ??_R2?$_Node_str@D@std@@8  0000000180078470     ActionProcessor.obj
 0002:0001a488       ??_R2_Node_end_group@std@@8 0000000180078488     ActionProcessor.obj
 0002:0001a4a0       ??_R4?$_Node_str@D@std@@6B@ 00000001800784a0     ActionProcessor.obj
 0002:0001a4c8       ??_R3_Node_capture@std@@8  00000001800784c8     ActionProcessor.obj
 0002:0001a4e0       ??_R1A@?0A@EA@exception@std@@8 00000001800784e0     ActionProcessor.obj
 0002:0001a508       ??_R2_Node_capture@std@@8  0000000180078508     ActionProcessor.obj
 0002:0001a520       ??_R4system_error@std@@6B@ 0000000180078520     ActionProcessor.obj
 0002:0001a548       ??_R4_Node_end_rep@std@@6B@ 0000000180078548     ActionProcessor.obj
 0002:0001a570       ??_R2_Node_assert@std@@8   0000000180078570     ActionProcessor.obj
 0002:0001a588       ??_R2?$_Node_class@DV?$regex_traits@D@std@@@std@@8 0000000180078588     ActionProcessor.obj
 0002:0001a5a0       ??_R1A@?0A@EA@_Facet_base@std@@8 00000001800785a0     ActionProcessor.obj
 0002:0001a5c8       ??_R1A@?0A@EA@bad_alloc@std@@8 00000001800785c8     ActionProcessor.obj
 0002:0001a5f0       ??_R4_Node_back@std@@6B@   00000001800785f0     ActionProcessor.obj
 0002:0001a618       ??_R2_Node_rep@std@@8      0000000180078618     ActionProcessor.obj
 0002:0001a630       ??_R2_Root_node@std@@8     0000000180078630     ActionProcessor.obj
 0002:0001a648       ??_R3_System_error@std@@8  0000000180078648     ActionProcessor.obj
 0002:0001a660       ??_R2_Node_back@std@@8     0000000180078660     ActionProcessor.obj
 0002:0001a678       ??_R17?0A@EA@_Crt_new_delete@std@@8 0000000180078678     ActionProcessor.obj
 0002:0001a6a0       ??_R3_Node_end_group@std@@8 00000001800786a0     ActionProcessor.obj
 0002:0001a6b8       ??_R4_Node_endif@std@@6B@  00000001800786b8     ActionProcessor.obj
 0002:0001a6e0       ??_R4_Node_rep@std@@6B@    00000001800786e0     ActionProcessor.obj
 0002:0001a708       ??_R1A@?0A@EA@?$collate@D@std@@8 0000000180078708     ActionProcessor.obj
 0002:0001a730       ??_R3OscProcessor@@8       0000000180078730     ActionProcessor.obj
 0002:0001a748       ??_R4_Node_end_group@std@@6B@ 0000000180078748     ActionProcessor.obj
 0002:0001a770       ??_R2bad_cast@std@@8       0000000180078770     ActionProcessor.obj
 0002:0001a788       ??_R2exception@std@@8      0000000180078788     ActionProcessor.obj
 0002:0001a798       ??_R3_Node_base@std@@8     0000000180078798     ActionProcessor.obj
 0002:0001a7b0       ??_R4failure@ios_base@std@@6B@ 00000001800787b0     ActionProcessor.obj
 0002:0001a7d8       ??_R2_Node_if@std@@8       00000001800787d8     ActionProcessor.obj
 0002:0001a7f0       ??_R2ActionProcessor@@8    00000001800787f0     ActionProcessor.obj
 0002:0001a808       ??_R4?$collate@D@std@@6B@  0000000180078808     ActionProcessor.obj
 0002:0001a830       ??_R4_Iostream_error_category2@std@@6B@ 0000000180078830     ActionProcessor.obj
 0002:0001a858       ??_R4ActionProcessor@@6B@  0000000180078858     ActionProcessor.obj
 0002:0001a880       ??_R2_Node_end_rep@std@@8  0000000180078880     ActionProcessor.obj
 0002:0001a898       ??_R2error_category@std@@8 0000000180078898     ActionProcessor.obj
 0002:0001a8a8       ??_R1A@?0A@EA@_Iostream_error_category2@std@@8 00000001800788a8     ActionProcessor.obj
 0002:0001a8d0       ??_R1A@?0A@EA@facet@locale@std@@8 00000001800788d0     ActionProcessor.obj
 0002:0001a8f8       ??_R2?$collate@D@std@@8    00000001800788f8     ActionProcessor.obj
 0002:0001a920       ??_R3?$_Node_class@DV?$regex_traits@D@std@@@std@@8 0000000180078920     ActionProcessor.obj
 0002:0001a938       ??_R2failure@ios_base@std@@8 0000000180078938     ActionProcessor.obj
 0002:0001a968       ??_R1A@?0A@EA@_Node_base@std@@8 0000000180078968     ActionProcessor.obj
 0002:0001a990       ??_R1A@?0A@EA@OscProcessor@@8 0000000180078990     ActionProcessor.obj
 0002:0001a9b8       ??_R4OscProcessor@@6B@     00000001800789b8     ActionProcessor.obj
 0002:0001a9e0       ??_R3failure@ios_base@std@@8 00000001800789e0     ActionProcessor.obj
 0002:0001a9f8       ??_R2?$ctype@D@std@@8      00000001800789f8     ActionProcessor.obj
 0002:0001aa28       ??_R2_Node_endif@std@@8    0000000180078a28     ActionProcessor.obj
 0002:0001aa40       ??_R3exception@std@@8      0000000180078a40     ActionProcessor.obj
 0002:0001aa58       ??_R4_Node_base@std@@6B@   0000000180078a58     ActionProcessor.obj
 0002:0001aa80       ??_R1A@?0A@EA@failure@ios_base@std@@8 0000000180078a80     ActionProcessor.obj
 0002:0001aaa8       ??_R1A@?0A@EA@_Node_end_group@std@@8 0000000180078aa8     ActionProcessor.obj
 0002:0001aad0       ??_R2?$numpunct@D@std@@8   0000000180078ad0     ActionProcessor.obj
 0002:0001aaf8       ??_R3facet@locale@std@@8   0000000180078af8     ActionProcessor.obj
 0002:0001ab10       ??_R1A@?0A@EA@_Node_capture@std@@8 0000000180078b10     ActionProcessor.obj
 0002:0001ab38       ??_R3ctype_base@std@@8     0000000180078b38     ActionProcessor.obj
 0002:0001ab50       ??_R4_Node_capture@std@@6B@ 0000000180078b50     ActionProcessor.obj
 0002:0001ab78       ??_R1A@?0A@EA@_System_error@std@@8 0000000180078b78     ActionProcessor.obj
 0002:0001aba0       ??_R3bad_cast@std@@8       0000000180078ba0     ActionProcessor.obj
 0002:0001abb8       ??_R3_Node_end_rep@std@@8  0000000180078bb8     ActionProcessor.obj
 0002:0001abd0       ??_R3error_category@std@@8 0000000180078bd0     ActionProcessor.obj
 0002:0001abe8       ??_R4bad_alloc@std@@6B@    0000000180078be8     ActionProcessor.obj
 0002:0001ac10       ??_R3ActionProcessor@@8    0000000180078c10     ActionProcessor.obj
 0002:0001ac28       ??_R4bad_cast@std@@6B@     0000000180078c28     ActionProcessor.obj
 0002:0001ac50       ??_R1A@?0A@EA@_Crt_new_delete@std@@8 0000000180078c50     ActionProcessor.obj
 0002:0001ac78       ??_R3bad_array_new_length@std@@8 0000000180078c78     ActionProcessor.obj
 0002:0001ac90       ??_R3bad_alloc@std@@8      0000000180078c90     ActionProcessor.obj
 0002:0001aca8       ??_R3_Node_endif@std@@8    0000000180078ca8     ActionProcessor.obj
 0002:0001acc0       ??_R4_Facet_base@std@@6B@  0000000180078cc0     ActionProcessor.obj
 0002:0001ace8       ??_R1A@?0A@EA@ActionProcessor@@8 0000000180078ce8     ActionProcessor.obj
 0002:0001ad10       ??_R2OscProcessor@@8       0000000180078d10     ActionProcessor.obj
 0002:0001ad20       ??_R3?$numpunct@D@std@@8   0000000180078d20     ActionProcessor.obj
 0002:0001ad38       ??_R3_Iostream_error_category2@std@@8 0000000180078d38     ActionProcessor.obj
 0002:0001ad50       ??_R4?$numpunct@D@std@@6B@ 0000000180078d50     ActionProcessor.obj
 0002:0001ad78       ??_R2runtime_error@std@@8  0000000180078d78     ActionProcessor.obj
 0002:0001ad90       ??_R4bad_array_new_length@std@@6B@ 0000000180078d90     ActionProcessor.obj
 0002:0001adb8       ??_R1A@?0A@EA@?$num_put@DV?$ostreambuf_iterator@DU?$char_traits@D@std@@@std@@@std@@8 0000000180078db8     ActionProcessor.obj
 0002:0001ade0       ??_R1A@?0A@EA@ctype_base@std@@8 0000000180078de0     ActionProcessor.obj
 0002:0001ae08       ??_R1A@?0A@EA@?$numpunct@D@std@@8 0000000180078e08     ActionProcessor.obj
 0002:0001ae30       ??_R2_Iostream_error_category2@std@@8 0000000180078e30     ActionProcessor.obj
 0002:0001ae48       ??_R2_Crt_new_delete@std@@8 0000000180078e48     ActionProcessor.obj
 0002:0001ae58       ??_R1A@?0A@EA@?$ctype@D@std@@8 0000000180078e58     ActionProcessor.obj
 0002:0001ae80       ??_R4?$_Node_class@DV?$regex_traits@D@std@@@std@@6B@ 0000000180078e80     ActionProcessor.obj
 0002:0001aea8       ??_R1A@?0A@EA@bad_array_new_length@std@@8 0000000180078ea8     ActionProcessor.obj
 0002:0001aed0       ??_R3?$collate@D@std@@8    0000000180078ed0     ActionProcessor.obj
 0002:0001aee8       ??_R3?$_Node_str@D@std@@8  0000000180078ee8     ActionProcessor.obj
 0002:0001af00       ??_R1A@?0A@EA@_Root_node@std@@8 0000000180078f00     ActionProcessor.obj
 0002:0001af28       ??_R3system_error@std@@8   0000000180078f28     ActionProcessor.obj
 0002:0001af40       ??_R1A@?0A@EA@?$_Node_class@DV?$regex_traits@D@std@@@std@@8 0000000180078f40     ActionProcessor.obj
 0002:0001af68       ??_R2_Facet_base@std@@8    0000000180078f68     ActionProcessor.obj
 0002:0001af78       ??_R2facet@locale@std@@8   0000000180078f78     ActionProcessor.obj
 0002:0001af98       ??_R3_Root_node@std@@8     0000000180078f98     ActionProcessor.obj
 0002:0001afb0       ??_R4?$ctype@D@std@@6B@    0000000180078fb0     ActionProcessor.obj
 0002:0001afd8       ??_R3runtime_error@std@@8  0000000180078fd8     ActionProcessor.obj
 0002:0001aff0       ??_R4_Node_if@std@@6B@     0000000180078ff0     ActionProcessor.obj
 0002:0001b018       ??_R2ctype_base@std@@8     0000000180079018     ActionProcessor.obj
 0002:0001b040       ??_R4?$num_put@DV?$ostreambuf_iterator@DU?$char_traits@D@std@@@std@@@std@@6B@ 0000000180079040     ActionProcessor.obj
 0002:0001b068       ??_R3?$num_put@DV?$ostreambuf_iterator@DU?$char_traits@D@std@@@std@@@std@@8 0000000180079068     ActionProcessor.obj
 0002:0001b080       ??_R2_Node_base@std@@8     0000000180079080     ActionProcessor.obj
 0002:0001b090       ??_R1A@?0A@EA@_Node_assert@std@@8 0000000180079090     ActionProcessor.obj
 0002:0001b0b8       ??_R1A@?0A@EA@error_category@std@@8 00000001800790b8     ActionProcessor.obj
 0002:0001b0e0       ??_R1A@?0A@EA@ClipProcessor@@8 00000001800790e0     ClipProcessor.obj
 0002:0001b108       ??_R3ClipProcessor@@8      0000000180079108     ClipProcessor.obj
 0002:0001b120       ??_R4ClipProcessor@@6B@    0000000180079120     ClipProcessor.obj
 0002:0001b148       ??_R2ClipProcessor@@8      0000000180079148     ClipProcessor.obj
 0002:0001b160       ??_R3?$basic_istream@DU?$char_traits@D@std@@@std@@8 0000000180079160     DataCollector.obj
 0002:0001b178       ??_R4?$basic_ostringstream@DU?$char_traits@D@std@@V?$allocator@D@2@@std@@6B@ 0000000180079178     DataCollector.obj
 0002:0001b1a0       ??_R4DataCollector@@6B@    00000001800791a0     DataCollector.obj
 0002:0001b1c8       ??_R4?$basic_ostream@DU?$char_traits@D@std@@@std@@6B@ 00000001800791c8     DataCollector.obj
 0002:0001b1f0       ??_R1A@?0A@EA@?$basic_istream@DU?$char_traits@D@std@@@std@@8 00000001800791f0     DataCollector.obj
 0002:0001b218       ??_R3?$basic_ifstream@DU?$char_traits@D@std@@@std@@8 0000000180079218     DataCollector.obj
 0002:0001b230       ??_R2?$basic_stringbuf@DU?$char_traits@D@std@@V?$allocator@D@2@@std@@8 0000000180079230     DataCollector.obj
 0002:0001b248       ??_R3?$basic_ostringstream@DU?$char_traits@D@std@@V?$allocator@D@2@@std@@8 0000000180079248     DataCollector.obj
 0002:0001b260       ??_R2?$codecvt@DDU_Mbstatet@@@std@@8 0000000180079260     DataCollector.obj
 0002:0001b290       ??_R1A@?0A@EA@?$basic_ifstream@DU?$char_traits@D@std@@@std@@8 0000000180079290     DataCollector.obj
 0002:0001b2b8       ??_R17A@3EA@?$_Iosb@H@std@@8 00000001800792b8     DataCollector.obj
 0002:0001b2e0       ??_R4ios_base@std@@6B@     00000001800792e0     DataCollector.obj
 0002:0001b308       ??_R1A@?0A@EA@?$basic_streambuf@DU?$char_traits@D@std@@@std@@8 0000000180079308     DataCollector.obj
 0002:0001b330       ??_R2?$basic_istream@DU?$char_traits@D@std@@@std@@8 0000000180079330     DataCollector.obj
 0002:0001b358       ??_R4?$basic_ios@DU?$char_traits@D@std@@@std@@6B@ 0000000180079358     DataCollector.obj
 0002:0001b380       ??_R1A@?0A@EA@?$basic_ostringstream@DU?$char_traits@D@std@@V?$allocator@D@2@@std@@8 0000000180079380     DataCollector.obj
 0002:0001b3a8       ??_R3?$basic_stringbuf@DU?$char_traits@D@std@@V?$allocator@D@2@@std@@8 00000001800793a8     DataCollector.obj
 0002:0001b3c0       ??_R2?$basic_ostream@DU?$char_traits@D@std@@@std@@8 00000001800793c0     DataCollector.obj
 0002:0001b3e8       ??_R3?$basic_ios@DU?$char_traits@D@std@@@std@@8 00000001800793e8     DataCollector.obj
 0002:0001b400       ??_R2codecvt_base@std@@8   0000000180079400     DataCollector.obj
 0002:0001b428       ??_R1A@?0A@EA@codecvt_base@std@@8 0000000180079428     DataCollector.obj
 0002:0001b450       ??_R4?$basic_ifstream@DU?$char_traits@D@std@@@std@@6B@ 0000000180079450     DataCollector.obj
 0002:0001b478       ??_R1A@?0A@EA@ios_base@std@@8 0000000180079478     DataCollector.obj
 0002:0001b4a0       ??_R1A@?0A@EA@?$basic_ostream@DU?$char_traits@D@std@@@std@@8 00000001800794a0     DataCollector.obj
 0002:0001b4c8       ??_R3codecvt_base@std@@8   00000001800794c8     DataCollector.obj
 0002:0001b4e0       ??_R2DataCollector@@8      00000001800794e0     DataCollector.obj
 0002:0001b4f0       ??_R4?$basic_filebuf@DU?$char_traits@D@std@@@std@@6B@ 00000001800794f0     DataCollector.obj
 0002:0001b518       ??_R3DataCollector@@8      0000000180079518     DataCollector.obj
 0002:0001b530       ??_R2?$basic_streambuf@DU?$char_traits@D@std@@@std@@8 0000000180079530     DataCollector.obj
 0002:0001b540       ??_R1A@?0A@EA@?$_Iosb@H@std@@8 0000000180079540     DataCollector.obj
 0002:0001b568       ??_R1A@?0A@EA@?$basic_stringbuf@DU?$char_traits@D@std@@V?$allocator@D@2@@std@@8 0000000180079568     DataCollector.obj
 0002:0001b590       ??_R4?$basic_stringbuf@DU?$char_traits@D@std@@V?$allocator@D@2@@std@@6B@ 0000000180079590     DataCollector.obj
 0002:0001b5b8       ??_R3?$codecvt@DDU_Mbstatet@@@std@@8 00000001800795b8     DataCollector.obj
 0002:0001b5d0       ??_R1A@?0A@EA@?$basic_filebuf@DU?$char_traits@D@std@@@std@@8 00000001800795d0     DataCollector.obj
 0002:0001b5f8       ??_R1A@A@3FA@?$basic_ios@DU?$char_traits@D@std@@@std@@8 00000001800795f8     DataCollector.obj
 0002:0001b620       ??_R3?$basic_filebuf@DU?$char_traits@D@std@@@std@@8 0000000180079620     DataCollector.obj
 0002:0001b638       ??_R4?$basic_streambuf@DU?$char_traits@D@std@@@std@@6B@ 0000000180079638     DataCollector.obj
 0002:0001b660       ??_R2ios_base@std@@8       0000000180079660     DataCollector.obj
 0002:0001b678       ??_R4?$codecvt@DDU_Mbstatet@@@std@@6B@ 0000000180079678     DataCollector.obj
 0002:0001b6a0       ??_R3?$basic_ostream@DU?$char_traits@D@std@@@std@@8 00000001800796a0     DataCollector.obj
 0002:0001b6b8       ??_R3ios_base@std@@8       00000001800796b8     DataCollector.obj
 0002:0001b6d0       ??_R2?$basic_filebuf@DU?$char_traits@D@std@@@std@@8 00000001800796d0     DataCollector.obj
 0002:0001b6e8       ??_R3?$basic_streambuf@DU?$char_traits@D@std@@@std@@8 00000001800796e8     DataCollector.obj
 0002:0001b700       ??_R2?$_Iosb@H@std@@8      0000000180079700     DataCollector.obj
 0002:0001b710       ??_R1A@A@3EA@ios_base@std@@8 0000000180079710     DataCollector.obj
 0002:0001b738       ??_R1A@?0A@EA@?$basic_ios@DU?$char_traits@D@std@@@std@@8 0000000180079738     DataCollector.obj
 0002:0001b760       ??_R2?$basic_ifstream@DU?$char_traits@D@std@@@std@@8 0000000180079760     DataCollector.obj
 0002:0001b790       ??_R3?$_Iosb@H@std@@8      0000000180079790     DataCollector.obj
 0002:0001b7a8       ??_R17?0A@EA@?$_Iosb@H@std@@8 00000001800797a8     DataCollector.obj
 0002:0001b7d0       ??_R4?$basic_istream@DU?$char_traits@D@std@@@std@@6B@ 00000001800797d0     DataCollector.obj
 0002:0001b7f8       ??_R1A@?0A@EA@DataCollector@@8 00000001800797f8     DataCollector.obj
 0002:0001b820       ??_R2?$basic_ios@DU?$char_traits@D@std@@@std@@8 0000000180079820     DataCollector.obj
 0002:0001b840       ??_R2?$basic_ostringstream@DU?$char_traits@D@std@@V?$allocator@D@2@@std@@8 0000000180079840     DataCollector.obj
 0002:0001b870       ??_R1A@?0A@EA@?$codecvt@DDU_Mbstatet@@@std@@8 0000000180079870     DataCollector.obj
 0002:0001b898       ??_R2DeviceProcessor@@8    0000000180079898     DeviceProcessor.obj
 0002:0001b8b0       ??_R1A@?0A@EA@DeviceProcessor@@8 00000001800798b0     DeviceProcessor.obj
 0002:0001b8d8       ??_R4DeviceProcessor@@6B@  00000001800798d8     DeviceProcessor.obj
 0002:0001b900       ??_R3DeviceProcessor@@8    0000000180079900     DeviceProcessor.obj
 0002:0001b918       ??_R4DrivenByMossSurface@@6B@ 0000000180079918     DrivenByMossSurface.obj
 0002:0001b940       ??_R1A@?0A@EA@OscParser@@8 0000000180079940     DrivenByMossSurface.obj
 0002:0001b968       ??_R2StopProcessor@@8      0000000180079968     DrivenByMossSurface.obj
 0002:0001b980       ??_R1A@?0A@EA@PlayProcessor@@8 0000000180079980     DrivenByMossSurface.obj
 0002:0001b9a8       ??_R2PlayProcessor@@8      00000001800799a8     DrivenByMossSurface.obj
 0002:0001b9c0       ??_R2OscParser@@8          00000001800799c0     DrivenByMossSurface.obj
 0002:0001b9d0       ??_R3PlayProcessor@@8      00000001800799d0     DrivenByMossSurface.obj
 0002:0001b9e8       ??_R1A@?0A@EA@StopProcessor@@8 00000001800799e8     DrivenByMossSurface.obj
 0002:0001ba10       ??_R3DrivenByMossSurface@@8 0000000180079a10     DrivenByMossSurface.obj
 0002:0001ba28       ??_R4IReaperControlSurface@@6B@ 0000000180079a28     DrivenByMossSurface.obj
 0002:0001ba50       ??_R4OscParser@@6B@        0000000180079a50     DrivenByMossSurface.obj
 0002:0001ba78       ??_R3OscParser@@8          0000000180079a78     DrivenByMossSurface.obj
 0002:0001ba90       ??_R1A@?0A@EA@DrivenByMossSurface@@8 0000000180079a90     DrivenByMossSurface.obj
 0002:0001bab8       ??_R3IReaperControlSurface@@8 0000000180079ab8     DrivenByMossSurface.obj
 0002:0001bad0       ??_R4PlayProcessor@@6B@    0000000180079ad0     DrivenByMossSurface.obj
 0002:0001baf8       ??_R1A@?0A@EA@IReaperControlSurface@@8 0000000180079af8     DrivenByMossSurface.obj
 0002:0001bb20       ??_R2DrivenByMossSurface@@8 0000000180079b20     DrivenByMossSurface.obj
 0002:0001bb38       ??_R3StopProcessor@@8      0000000180079b38     DrivenByMossSurface.obj
 0002:0001bb50       ??_R4StopProcessor@@6B@    0000000180079b50     DrivenByMossSurface.obj
 0002:0001bb78       ??_R2IReaperControlSurface@@8 0000000180079b78     DrivenByMossSurface.obj
 0002:0001bb88       ??_R2GrooveProcessor@@8    0000000180079b88     GrooveProcessor.obj
 0002:0001bba0       ??_R3GrooveProcessor@@8    0000000180079ba0     GrooveProcessor.obj
 0002:0001bbb8       ??_R1A@?0A@EA@GrooveProcessor@@8 0000000180079bb8     GrooveProcessor.obj
 0002:0001bbe0       ??_R4GrooveProcessor@@6B@  0000000180079be0     GrooveProcessor.obj
 0002:0001bc08       ??_R3IniFileProcessor@@8   0000000180079c08     IniFileProcessor.obj
 0002:0001bc20       ??_R4IniFileProcessor@@6B@ 0000000180079c20     IniFileProcessor.obj
 0002:0001bc48       ??_R2IniFileProcessor@@8   0000000180079c48     IniFileProcessor.obj
 0002:0001bc60       ??_R1A@?0A@EA@IniFileProcessor@@8 0000000180079c60     IniFileProcessor.obj
 0002:0001bc88       ??_R3Marker@@8             0000000180079c88     Marker.obj
 0002:0001bca0       ??_R4Marker@@6B@           0000000180079ca0     Marker.obj
 0002:0001bcc8       ??_R1A@?0A@EA@Marker@@8    0000000180079cc8     Marker.obj
 0002:0001bcf0       ??_R2Marker@@8             0000000180079cf0     Marker.obj
 0002:0001bd00       ??_R3MarkerProcessor@@8    0000000180079d00     MarkerProcessor.obj
 0002:0001bd18       ??_R4MarkerProcessor@@6B@  0000000180079d18     MarkerProcessor.obj
 0002:0001bd40       ??_R2MarkerProcessor@@8    0000000180079d40     MarkerProcessor.obj
 0002:0001bd58       ??_R1A@?0A@EA@MarkerProcessor@@8 0000000180079d58     MarkerProcessor.obj
 0002:0001bd80       ??_R1A@?0A@EA@MastertrackProcessor@@8 0000000180079d80     MastertrackProcessor.obj
 0002:0001bda8       ??_R4MastertrackProcessor@@6B@ 0000000180079da8     MastertrackProcessor.obj
 0002:0001bdd0       ??_R3MastertrackProcessor@@8 0000000180079dd0     MastertrackProcessor.obj
 0002:0001bde8       ??_R2MastertrackProcessor@@8 0000000180079de8     MastertrackProcessor.obj
 0002:0001be00       ??_R3?$_Ref_count_obj2@VTrack@@@std@@8 0000000180079e00     Model.obj
 0002:0001be18       ??_R1A@?0A@EA@?$_Ref_count_obj2@VMarker@@@std@@8 0000000180079e18     Model.obj
 0002:0001be40       ??_R3?$_Ref_count_obj2@VParameter@@@std@@8 0000000180079e40     Model.obj
 0002:0001be58       ??_R1A@?0A@EA@?$_Ref_count_obj2@VTrack@@@std@@8 0000000180079e58     Model.obj
 0002:0001be80       ??_R1A@?0A@EA@_Ref_count_base@std@@8 0000000180079e80     Model.obj
 0002:0001bea8       ??_R3?$_Ref_count_obj2@VMarker@@@std@@8 0000000180079ea8     Model.obj
 0002:0001bec0       ??_R4?$_Ref_count_obj2@VTrack@@@std@@6B@ 0000000180079ec0     Model.obj
 0002:0001bee8       ??_R4?$_Ref_count_obj2@VMarker@@@std@@6B@ 0000000180079ee8     Model.obj
 0002:0001bf10       ??_R2?$_Ref_count_obj2@VParameter@@@std@@8 0000000180079f10     Model.obj
 0002:0001bf28       ??_R4?$_Ref_count_obj2@VParameter@@@std@@6B@ 0000000180079f28     Model.obj
 0002:0001bf50       ??_R2?$_Ref_count_obj2@VTrack@@@std@@8 0000000180079f50     Model.obj
 0002:0001bf68       ??_R1A@?0A@EA@?$_Ref_count_obj2@VParameter@@@std@@8 0000000180079f68     Model.obj
 0002:0001bf90       ??_R3_Ref_count_base@std@@8 0000000180079f90     Model.obj
 0002:0001bfa8       ??_R2_Ref_count_base@std@@8 0000000180079fa8     Model.obj
 0002:0001bfb8       ??_R2?$_Ref_count_obj2@VMarker@@@std@@8 0000000180079fb8     Model.obj
 0002:0001bfd0       ??_R4NoteRepeatProcessor@@6B@ 0000000180079fd0     NoteRepeatProcessor.obj
 0002:0001bff8       ??_R3NoteRepeatProcessor@@8 0000000180079ff8     NoteRepeatProcessor.obj
 0002:0001c010       ??_R2NoteRepeatProcessor@@8 000000018007a010     NoteRepeatProcessor.obj
 0002:0001c028       ??_R1A@?0A@EA@NoteRepeatProcessor@@8 000000018007a028     NoteRepeatProcessor.obj
 0002:0001c050       ??_R4RedoProcessor@@6B@    000000018007a050     OscParser.obj
 0002:0001c090       ??_R1A@?0A@EA@?$basic_istringstream@DU?$char_traits@D@std@@V?$allocator@D@2@@std@@8 000000018007a090     OscParser.obj
 0002:0001c0d0       ??_R3UndoProcessor@@8      000000018007a0d0     OscParser.obj
 0002:0001c0e8       ??_R2?$basic_istringstream@DU?$char_traits@D@std@@V?$allocator@D@2@@std@@8 000000018007a0e8     OscParser.obj
 0002:0001c118       ??_R4MetronomeVolumeProcessor@@6B@ 000000018007a118     OscParser.obj
 0002:0001c168       ??_R3RefreshProcessor@@8   000000018007a168     OscParser.obj
 0002:0001c180       ??_R1A@?0A@EA@RepeatProcessor@@8 000000018007a180     OscParser.obj
 0002:0001c1a8       ??_R1A@?0A@EA@TempoProcessor@@8 000000018007a1a8     OscParser.obj
 0002:0001c1d0       ??_R3RepeatProcessor@@8    000000018007a1d0     OscParser.obj
 0002:0001c268       ??_R3?$_Func_base@X$$V@std@@8 000000018007a268     OscParser.obj
 0002:0001c280       ??_R2TempoProcessor@@8     000000018007a280     OscParser.obj
 0002:0001c298       ??_R4RecordProcessor@@6B@  000000018007a298     OscParser.obj
 0002:0001c2c0       ??_R3MetronomeVolumeProcessor@@8 000000018007a2c0     OscParser.obj
 0002:0001c2d8       ??_R4TempoProcessor@@6B@   000000018007a2d8     OscParser.obj
 0002:0001c300       ??_R2RepeatProcessor@@8    000000018007a300     OscParser.obj
 0002:0001c318       ??_R1A@?0A@EA@RedoProcessor@@8 000000018007a318     OscParser.obj
 0002:0001c340       ??_R4RefreshProcessor@@6B@ 000000018007a340     OscParser.obj
 0002:0001c3b8       ??_R4RepeatProcessor@@6B@  000000018007a3b8     OscParser.obj
 0002:0001c3e0       ??_R3RedoProcessor@@8      000000018007a3e0     OscParser.obj
 0002:0001c3f8       ??_R3CursorProcessor@@8    000000018007a3f8     OscParser.obj
 0002:0001c410       ??_R1A@?0A@EA@CursorProcessor@@8 000000018007a410     OscParser.obj
 0002:0001c438       ??_R3TempoProcessor@@8     000000018007a438     OscParser.obj
 0002:0001c450       ??_R3?$basic_istringstream@DU?$char_traits@D@std@@V?$allocator@D@2@@std@@8 000000018007a450     OscParser.obj
 0002:0001c490       ??_R1A@?0A@EA@ProjectProcessor@@8 000000018007a490     OscParser.obj
 0002:0001c4b8       ??_R2RecordProcessor@@8    000000018007a4b8     OscParser.obj
 0002:0001c4d0       ??_R3TimeProcessor@@8      000000018007a4d0     OscParser.obj
 0002:0001c500       ??_R2UndoProcessor@@8      000000018007a500     OscParser.obj
 0002:0001c518       ??_R2RedoProcessor@@8      000000018007a518     OscParser.obj
 0002:0001c530       ??_R2MetronomeVolumeProcessor@@8 000000018007a530     OscParser.obj
 0002:0001c548       ??_R2RefreshProcessor@@8   000000018007a548     OscParser.obj
 0002:0001c560       ??_R2?$_Func_base@X$$V@std@@8 000000018007a560     OscParser.obj
 0002:0001c570       ??_R1A@?0A@EA@?$_Func_base@X$$V@std@@8 000000018007a570     OscParser.obj
 0002:0001c598       ??_R4ProjectProcessor@@6B@ 000000018007a598     OscParser.obj
 0002:0001c5c0       ??_R1A@?0A@EA@RefreshProcessor@@8 000000018007a5c0     OscParser.obj
 0002:0001c5e8       ??_R4UndoProcessor@@6B@    000000018007a5e8     OscParser.obj
 0002:0001c610       ??_R3QuantizeProcessor@@8  000000018007a610     OscParser.obj
 0002:0001c628       ??_R2TimeProcessor@@8      000000018007a628     OscParser.obj
 0002:0001c640       ??_R4TimeProcessor@@6B@    000000018007a640     OscParser.obj
 0002:0001c668       ??_R1A@?0A@EA@TimeProcessor@@8 000000018007a668     OscParser.obj
 0002:0001c690       ??_R2ProjectProcessor@@8   000000018007a690     OscParser.obj
 0002:0001c6a8       ??_R4CursorProcessor@@6B@  000000018007a6a8     OscParser.obj
 0002:0001c6d0       ??_R1A@?0A@EA@QuantizeProcessor@@8 000000018007a6d0     OscParser.obj
 0002:0001c6f8       ??_R2QuantizeProcessor@@8  000000018007a6f8     OscParser.obj
 0002:0001c710       ??_R4?$basic_istringstream@DU?$char_traits@D@std@@V?$allocator@D@2@@std@@6B@ 000000018007a710     OscParser.obj
 0002:0001c738       ??_R1A@?0A@EA@UndoProcessor@@8 000000018007a738     OscParser.obj
 0002:0001c760       ??_R3RecordProcessor@@8    000000018007a760     OscParser.obj
 0002:0001c7a8       ??_R4QuantizeProcessor@@6B@ 000000018007a7a8     OscParser.obj
 0002:0001c7e8       ??_R1A@?0A@EA@RecordProcessor@@8 000000018007a7e8     OscParser.obj
 0002:0001c810       ??_R1A@?0A@EA@MetronomeVolumeProcessor@@8 000000018007a810     OscParser.obj
 0002:0001c888       ??_R3ProjectProcessor@@8   000000018007a888     OscParser.obj
 0002:0001c8a0       ??_R2CursorProcessor@@8    000000018007a8a0     OscParser.obj
 0002:0001c938       ??_R4SceneProcessor@@6B@   000000018007a938     SceneProcessor.obj
 0002:0001c960       ??_R2SceneProcessor@@8     000000018007a960     SceneProcessor.obj
 0002:0001c978       ??_R3SceneProcessor@@8     000000018007a978     SceneProcessor.obj
 0002:0001c990       ??_R1A@?0A@EA@SceneProcessor@@8 000000018007a990     SceneProcessor.obj
 0002:0001c9b8       ??_R1A@?0A@EA@Send@@8      000000018007a9b8     Send.obj
 0002:0001c9e0       ??_R2Send@@8               000000018007a9e0     Send.obj
 0002:0001c9f0       ??_R4Send@@6B@             000000018007a9f0     Send.obj
 0002:0001ca18       ??_R3Send@@8               000000018007aa18     Send.obj
 0002:0001ca30       ??_R4TrackProcessor@@6B@   000000018007aa30     TrackProcessor.obj
 0002:0001ca58       ??_R2TrackProcessor@@8     000000018007aa58     TrackProcessor.obj
 0002:0001ca70       ??_R3TrackProcessor@@8     000000018007aa70     TrackProcessor.obj
 0002:0001ca88       ??_R1A@?0A@EA@TrackProcessor@@8 000000018007aa88     TrackProcessor.obj
 0002:0001caac       __volatile_metadata        000000018007aaac     <linker-defined>
 0002:0001cfd8       __rtc_iaa                  000000018007afd8     LIBCMT:initsect.obj
 0002:0001cfe0       __rtc_izz                  000000018007afe0     LIBCMT:initsect.obj
 0002:0001cfe8       __rtc_taa                  000000018007afe8     LIBCMT:initsect.obj
 0002:0001cff0       __rtc_tzz                  000000018007aff0     LIBCMT:initsect.obj
 0002:00023700       _TI2?AVbad_alloc@std@@     0000000180081700     libcpmt:xthrow.obj
 0002:00023720       _CTA2?AVbad_alloc@std@@    0000000180081720     libcpmt:xthrow.obj
 0002:00023738       _CT??_R0?AVlogic_error@std@@@8??0logic_error@std@@QEAA@AEBV01@@Z24 0000000180081738     libcpmt:xthrow.obj
 0002:00023760       _TI3?AVlength_error@std@@  0000000180081760     libcpmt:xthrow.obj
 0002:00023780       _CTA3?AVlength_error@std@@ 0000000180081780     libcpmt:xthrow.obj
 0002:000237a0       _CT??_R0?AVlength_error@std@@@8??0length_error@std@@QEAA@AEBV01@@Z24 00000001800817a0     libcpmt:xthrow.obj
 0002:000237c8       _TI3?AVout_of_range@std@@  00000001800817c8     libcpmt:xthrow.obj
 0002:000237e8       _CTA3?AVout_of_range@std@@ 00000001800817e8     libcpmt:xthrow.obj
 0002:00023808       _CT??_R0?AVout_of_range@std@@@8??0out_of_range@std@@QEAA@AEBV01@@Z24 0000000180081808     libcpmt:xthrow.obj
 0002:00023830       _TI2?AVruntime_error@std@@ 0000000180081830     libcpmt:xthrow.obj
 0002:00023850       _CTA2?AVruntime_error@std@@ 0000000180081850     libcpmt:xthrow.obj
 0002:00023868       _TI2?AVbad_function_call@std@@ 0000000180081868     libcpmt:xthrow.obj
 0002:00023888       _CTA2?AVbad_function_call@std@@ 0000000180081888     libcpmt:xthrow.obj
 0002:000238a0       _CT??_R0?AVbad_function_call@std@@@8??0bad_function_call@std@@QEAA@AEBV01@@Z24 00000001800818a0     libcpmt:xthrow.obj
 0002:000238c8       _TI3?AVregex_error@std@@   00000001800818c8     libcpmt:xthrow.obj
 0002:000238e8       _CTA3?AVregex_error@std@@  00000001800818e8     libcpmt:xthrow.obj
 0002:00023908       _CT??_R0?AVregex_error@std@@@8??0regex_error@std@@QEAA@AEBV01@@Z32 0000000180081908     libcpmt:xthrow.obj
 0002:00023930       _TI4?AVsystem_error@std@@  0000000180081930     libcpmt:thread0.obj
 0002:00023950       _CTA4?AVsystem_error@std@@ 0000000180081950     libcpmt:thread0.obj
 0002:00023978       _TI2?AVbad_exception@std@@ 0000000180081978     libvcruntime:frame.obj
 0002:00023998       _CTA2?AVbad_exception@std@@ 0000000180081998     libvcruntime:frame.obj
 0002:000239b0       _CT??_R0?AVbad_exception@std@@@8??0bad_exception@std@@QEAA@AEBV01@@Z24 00000001800819b0     libvcruntime:frame.obj
 0002:000239d8       _CTA3?AVbad_array_new_length@std@@ 00000001800819d8     ActionProcessor.obj
 0002:000239f8       _CTA2?AVbad_cast@std@@     00000001800819f8     ActionProcessor.obj
 0002:00023a10       _CT??_R0?AVsystem_error@std@@@8??0system_error@std@@QEAA@AEBV01@@Z40 0000000180081a10     ActionProcessor.obj
 0002:00023a38       _TI2?AVbad_cast@std@@      0000000180081a38     ActionProcessor.obj
 0002:00023a58       _TI5?AVfailure@ios_base@std@@ 0000000180081a58     ActionProcessor.obj
 0002:00023a78       _CT??_R0?AVbad_array_new_length@std@@@8??0bad_array_new_length@std@@QEAA@AEBV01@@Z24 0000000180081a78     ActionProcessor.obj
 0002:00023aa0       _CT??_R0?AVruntime_error@std@@@8??0runtime_error@std@@QEAA@AEBV01@@Z24 0000000180081aa0     ActionProcessor.obj
 0002:00023ac8       _CT??_R0?AVbad_cast@std@@@8??0bad_cast@std@@QEAA@AEBV01@@Z24 0000000180081ac8     ActionProcessor.obj
 0002:00023af0       _CT??_R0?AVbad_alloc@std@@@8??0bad_alloc@std@@QEAA@AEBV01@@Z24 0000000180081af0     ActionProcessor.obj
 0002:00023b18       _CT??_R0?AV_System_error@std@@@8??0_System_error@std@@QEAA@AEBV01@@Z40 0000000180081b18     ActionProcessor.obj
 0002:00023b40       _CTA5?AVfailure@ios_base@std@@ 0000000180081b40     ActionProcessor.obj
 0002:00023b70       _CT??_R0?AVfailure@ios_base@std@@@8??0failure@ios_base@std@@QEAA@AEBV012@@Z40 0000000180081b70     ActionProcessor.obj
 0002:00023b98       _CT??_R0?AVexception@std@@@8??0exception@std@@QEAA@AEBV01@@Z24 0000000180081b98     ActionProcessor.obj
 0002:00023bc0       _TI3?AVbad_array_new_length@std@@ 0000000180081bc0     ActionProcessor.obj
 0002:00023c3c       __IMPORT_DESCRIPTOR_KERNEL32 0000000180081c3c     kernel32:KERNEL32.dll
 0002:00023c50       __IMPORT_DESCRIPTOR_USER32 0000000180081c50     user32:USER32.dll
 0002:00023c64       __NULL_IMPORT_DESCRIPTOR   0000000180081c64     kernel32:KERNEL32.dll
 0003:00000004       ?_Sync@ios_base@std@@0_NA  0000000180083004     libcpmt:ios.obj
 0003:00000008       ?_Static@?1???$_Immortalize_memcpy_image@V_Generic_error_category@std@@@std@@YAAEBV_Generic_error_category@1@XZ@4V21@B 0000000180083008     libcpmt:thread0.obj
 0003:00000018       ?valid@?1???$_Xfiopen@D@std@@YAPEAU_iobuf@@PEBDHH@Z@4QBHB 0000000180083018     libcpmt:fiopen.obj
 0003:00000060       __scrt_native_dllmain_reason 0000000180083060     LIBCMT:utility.obj
 0003:00000068       __security_cookie_complement 0000000180083068     LIBCMT:gs_cookie.obj
 0003:00000070       __security_cookie          0000000180083070     LIBCMT:gs_cookie.obj
 0003:00000080       _fltused                   0000000180083080     LIBCMT:fltused.obj
 0003:00000088       __isa_available            0000000180083088     LIBCMT:cpu_disp.obj
 0003:0000008c       __isa_enabled              000000018008308c     LIBCMT:cpu_disp.obj
 0003:00000090       __memcpy_nt_iters          0000000180083090     LIBCMT:cpu_disp.obj
 0003:00000098       __memset_nt_iters          0000000180083098     LIBCMT:cpu_disp.obj
 0003:000000b0       __acrt_lconv_c             00000001800830b0     libucrt:localeconv.obj
 0003:00000148       __acrt_lconv               0000000180083148     libucrt:localeconv.obj
 0003:00000150       __acrt_lconv_static_decimal 0000000180083150     libucrt:localeconv.obj
 0003:00000154       __acrt_lconv_static_W_decimal 0000000180083154     libucrt:localeconv.obj
 0003:00000160       _iob                       0000000180083160     libucrt:_file.obj
 0003:00000268       _pctype                    0000000180083268     libucrt:ctype.obj
 0003:00000270       _pwctype                   0000000180083270     libucrt:ctype.obj
 0003:00000280       __abort_behavior           0000000180083280     libucrt:abort.obj
 0003:000002a0       __acrt_initial_locale_data 00000001800832a0     libucrt:nlsdata.obj
 0003:000003f8       __acrt_initial_locale_pointers 00000001800833f8     libucrt:nlsdata.obj
 0003:00000408       __acrt_wide_c_locale_string 0000000180083408     libucrt:nlsdata.obj
 0003:0000040c       __mb_cur_max               000000018008340c     libucrt:nlsdata.obj
 0003:00000410       __badioinfo                0000000180083410     libucrt:ioinit.obj
 0003:00000460       _lookuptrailbytes          0000000180083460     libucrt:read.obj
 0003:00000560       __globallocalestatus       0000000180083560     libucrt:glstatus.obj
 0003:00000710       __acrt_initial_multibyte_data 0000000180083710     libucrt:mbctype.obj
 0003:00000c60       ?_Static@?1???$_Immortalize_memcpy_image@V_Iostream_error_category2@std@@@std@@YAAEBV_Iostream_error_category2@1@XZ@4U?$_Constexpr_immortalize_impl@V_Iostream_error_category2@std@@@1@A 0000000180083c60     ActionProcessor.obj
 0003:00000c70       ?openDBMProjectWindowAccel@@3Ugaccel_register_t@@A 0000000180083c70     dllmain.obj
 0003:00000c80       ?pcreg@@3Uproject_config_extension_t@@A 0000000180083c80     dllmain.obj
 0003:00000ca0       ?openDBMConfigureWindowAccel@@3Ugaccel_register_t@@A 0000000180083ca0     dllmain.obj
 0003:00000cd0       ??_R0?AVlogic_error@std@@@8 0000000180083cd0     libcpmt:xthrow.obj
 0003:00000cf8       ??_R0?AVlength_error@std@@@8 0000000180083cf8     libcpmt:xthrow.obj
 0003:00000d20       ??_R0?AVbad_function_call@std@@@8 0000000180083d20     libcpmt:xthrow.obj
 0003:00000d50       ??_R0?AVregex_error@std@@@8 0000000180083d50     libcpmt:xthrow.obj
 0003:00000d78       ??_R0?AVbad_exception@std@@@8 0000000180083d78     libvcruntime:frame.obj
 0003:00000da0       ??_R0?AVfailure@ios_base@std@@@8 0000000180083da0     ActionProcessor.obj
 0003:00000dd0       ??_R0?AVruntime_error@std@@@8 0000000180083dd0     ActionProcessor.obj
 0003:00000df8       ??_R0?AVbad_alloc@std@@@8  0000000180083df8     ActionProcessor.obj
 0003:00000e20       ??_R0?AVsystem_error@std@@@8 0000000180083e20     ActionProcessor.obj
 0003:00000e48       ??_R0?AVbad_cast@std@@@8   0000000180083e48     ActionProcessor.obj
 0003:00000e70       ??_R0?AV_System_error@std@@@8 0000000180083e70     ActionProcessor.obj
 0003:00000e98       ??_R0?AVexception@std@@@8  0000000180083e98     ActionProcessor.obj
 0003:00000ec0       ??_R0?AVbad_array_new_length@std@@@8 0000000180083ec0     ActionProcessor.obj
 0003:00000ef0       ??_R0?AVout_of_range@std@@@8 0000000180083ef0     DataCollector.obj
 0003:00000f20       ??_R0?AV?$basic_string@DU?$char_traits@D@std@@V?$allocator@D@2@@std@@@8 0000000180083f20     Model.obj
 0003:000010c0       ??_R0?AV_Locimp@locale@std@@@8 00000001800840c0     libcpmt:locale0.obj
 0003:000010f0       ??_R0?AV_Generic_error_category@std@@@8 00000001800840f0     libcpmt:thread0.obj
 0003:00001130       ??_R0?AVstl_critical_section_interface@details@Concurrency@@@8 0000000180084130     libcpmt:mutex.obj
 0003:00001180       ??_R0?AVstl_critical_section_vista@details@Concurrency@@@8 0000000180084180     libcpmt:mutex.obj
 0003:000011d0       ??_R0?AVstl_critical_section_win7@details@Concurrency@@@8 00000001800841d0     libcpmt:mutex.obj
 0003:00001218       ??_R0?AVtype_info@@@8      0000000180084218     LIBCMT:std_type_info_static.obj
 0003:00001238       ??_R0?AV_Node_if@std@@@8   0000000180084238     ActionProcessor.obj
 0003:00001260       ??_R0?AV?$collate@D@std@@@8 0000000180084260     ActionProcessor.obj
 0003:00001288       ??_R0?AVActionProcessor@@@8 0000000180084288     ActionProcessor.obj
 0003:000012b0       ??_R0?AV?$_Node_str@D@std@@@8 00000001800842b0     ActionProcessor.obj
 0003:000012d8       ??_R0?AVerror_category@std@@@8 00000001800842d8     ActionProcessor.obj
 0003:00001308       ??_R0?AV?$ctype@D@std@@@8  0000000180084308     ActionProcessor.obj
 0003:00001330       ??_R0?AV_Node_end_rep@std@@@8 0000000180084330     ActionProcessor.obj
 0003:00001358       ??_R0?AV_Node_end_group@std@@@8 0000000180084358     ActionProcessor.obj
 0003:00001388       ??_R0?AV_Node_back@std@@@8 0000000180084388     ActionProcessor.obj
 0003:000013b0       ??_R0?AV_Facet_base@std@@@8 00000001800843b0     ActionProcessor.obj
 0003:000013d8       ??_R0?AVOscProcessor@@@8   00000001800843d8     ActionProcessor.obj
 0003:00001400       ??_R0?AU_Crt_new_delete@std@@@8 0000000180084400     ActionProcessor.obj
 0003:00001430       ??_R0?AV_Iostream_error_category2@std@@@8 0000000180084430     ActionProcessor.obj
 0003:00001468       ??_R0?AV?$numpunct@D@std@@@8 0000000180084468     ActionProcessor.obj
 0003:00001490       ??_R0?AV_Node_base@std@@@8 0000000180084490     ActionProcessor.obj
 0003:000014b8       ??_R0?AUctype_base@std@@@8 00000001800844b8     ActionProcessor.obj
 0003:000014e0       ??_R0?AV_Root_node@std@@@8 00000001800844e0     ActionProcessor.obj
 0003:00001508       ??_R0?AVfacet@locale@std@@@8 0000000180084508     ActionProcessor.obj
 0003:00001530       ??_R0?AV_Node_assert@std@@@8 0000000180084530     ActionProcessor.obj
 0003:00001558       ??_R0?AV_Node_rep@std@@@8  0000000180084558     ActionProcessor.obj
 0003:00001580       ??_R0?AV?$_Node_class@DV?$regex_traits@D@std@@@std@@@8 0000000180084580     ActionProcessor.obj
 0003:000015c8       ??_R0?AV_Node_capture@std@@@8 00000001800845c8     ActionProcessor.obj
 0003:000015f0       ??_R0?AV_Node_endif@std@@@8 00000001800845f0     ActionProcessor.obj
 0003:00001620       ??_R0?AV?$num_put@DV?$ostreambuf_iterator@DU?$char_traits@D@std@@@std@@@std@@@8 0000000180084620     ActionProcessor.obj
 0003:00001680       ??_R0?AVClipProcessor@@@8  0000000180084680     ClipProcessor.obj
 0003:000016b0       ??_R0?AV?$basic_filebuf@DU?$char_traits@D@std@@@std@@@8 00000001800846b0     DataCollector.obj
 0003:000016f8       ??_R0?AV?$codecvt@DDU_Mbstatet@@@std@@@8 00000001800846f8     DataCollector.obj
 0003:00001730       ??_R0?AV?$basic_ifstream@DU?$char_traits@D@std@@@std@@@8 0000000180084730     DataCollector.obj
 0003:00001780       ??_R0?AV?$basic_stringbuf@DU?$char_traits@D@std@@V?$allocator@D@2@@std@@@8 0000000180084780     DataCollector.obj
 0003:000017d8       ??_R0?AVios_base@std@@@8   00000001800847d8     DataCollector.obj
 0003:00001800       ??_R0?AVcodecvt_base@std@@@8 0000000180084800     DataCollector.obj
 0003:00001828       ??_R0?AV?$_Iosb@H@std@@@8  0000000180084828     DataCollector.obj
 0003:00001850       ??_R0?AV?$basic_streambuf@DU?$char_traits@D@std@@@std@@@8 0000000180084850     DataCollector.obj
 0003:000018a0       ??_R0?AV?$basic_ostringstream@DU?$char_traits@D@std@@V?$allocator@D@2@@std@@@8 00000001800848a0     DataCollector.obj
 0003:00001900       ??_R0?AV?$basic_istream@DU?$char_traits@D@std@@@std@@@8 0000000180084900     DataCollector.obj
 0003:00001948       ??_R0?AV?$basic_ios@DU?$char_traits@D@std@@@std@@@8 0000000180084948     DataCollector.obj
 0003:00001988       ??_R0?AVDataCollector@@@8  0000000180084988     DataCollector.obj
 0003:000019b0       ??_R0?AV?$basic_ostream@DU?$char_traits@D@std@@@std@@@8 00000001800849b0     DataCollector.obj
 0003:000019f8       ??_R0?AVDeviceProcessor@@@8 00000001800849f8     DeviceProcessor.obj
 0003:00001a20       ??_R0?AVIReaperControlSurface@@@8 0000000180084a20     DrivenByMossSurface.obj
 0003:00001a50       ??_R0?AVDrivenByMossSurface@@@8 0000000180084a50     DrivenByMossSurface.obj
 0003:00001a80       ??_R0?AVPlayProcessor@@@8  0000000180084a80     DrivenByMossSurface.obj
 0003:00001aa8       ??_R0?AVStopProcessor@@@8  0000000180084aa8     DrivenByMossSurface.obj
 0003:00001ad0       ??_R0?AVOscParser@@@8      0000000180084ad0     DrivenByMossSurface.obj
 0003:00001af0       ??_R0?AVGrooveProcessor@@@8 0000000180084af0     GrooveProcessor.obj
 0003:00001b18       ??_R0?AVIniFileProcessor@@@8 0000000180084b18     IniFileProcessor.obj
 0003:00001b40       ??_R0?AVMarker@@@8         0000000180084b40     Marker.obj
 0003:00001b60       ??_R0?AVMarkerProcessor@@@8 0000000180084b60     MarkerProcessor.obj
 0003:00001b88       ??_R0?AVMastertrackProcessor@@@8 0000000180084b88     MastertrackProcessor.obj
 0003:00001bb8       ??_R0?AV?$_Ref_count_obj2@VParameter@@@std@@@8 0000000180084bb8     Model.obj
 0003:00001bf8       ??_R0?AV?$_Ref_count_obj2@VTrack@@@std@@@8 0000000180084bf8     Model.obj
 0003:00001c30       ??_R0?AV_Ref_count_base@std@@@8 0000000180084c30     Model.obj
 0003:00001c60       ??_R0?AV?$_Ref_count_obj2@VMarker@@@std@@@8 0000000180084c60     Model.obj
 0003:00001c98       ??_R0?AVNoteRepeatProcessor@@@8 0000000180084c98     NoteRepeatProcessor.obj
 0003:00001cc8       ??_R0?AVProjectProcessor@@@8 0000000180084cc8     OscParser.obj
 0003:00001cf0       ??_R0?AVQuantizeProcessor@@@8 0000000180084cf0     OscParser.obj
 0003:00001d18       ??_R0?AVUndoProcessor@@@8  0000000180084d18     OscParser.obj
 0003:00001da8       ??_R0?AVRecordProcessor@@@8 0000000180084da8     OscParser.obj
 0003:00001dd0       ??_R0?AVRepeatProcessor@@@8 0000000180084dd0     OscParser.obj
 0003:00001df8       ??_R0?AVRedoProcessor@@@8  0000000180084df8     OscParser.obj
 0003:00001e20       ??_R0?AVRefreshProcessor@@@8 0000000180084e20     OscParser.obj
 0003:00001e48       ??_R0?AV?$_Func_base@X$$V@std@@@8 0000000180084e48     OscParser.obj
 0003:00001e80       ??_R0?AV?$basic_istringstream@DU?$char_traits@D@std@@V?$allocator@D@2@@std@@@8 0000000180084e80     OscParser.obj
 0003:00001f48       ??_R0?AVTempoProcessor@@@8 0000000180084f48     OscParser.obj
 0003:00001f70       ??_R0?AVCursorProcessor@@@8 0000000180084f70     OscParser.obj
 0003:00002078       ??_R0?AVTimeProcessor@@@8  0000000180085078     OscParser.obj
 0003:000020a0       ??_R0?AVMetronomeVolumeProcessor@@@8 00000001800850a0     OscParser.obj
 0003:00002138       ??_R0?AVSceneProcessor@@@8 0000000180085138     SceneProcessor.obj
 0003:00002160       ??_R0?AVSend@@@8           0000000180085160     Send.obj
 0003:00002180       ??_R0?AVTrackProcessor@@@8 0000000180085180     TrackProcessor.obj
 0003:00002300       ?_Id_cnt@id@locale@std@@0HA 0000000180085300     libcpmt:locale0.obj
 0003:00002308       ?_Clocptr@_Locimp@locale@std@@0PEAV123@EA 0000000180085308     libcpmt:locale0.obj
 0003:00002310       ?id@?$ctype@_W@std@@2V0locale@2@A 0000000180085310     libcpmt:locale0.obj
 0003:00002318       ?id@?$ctype@D@std@@2V0locale@2@A 0000000180085318     libcpmt:locale0.obj
 0003:00002320       ?id@?$codecvt@GDU_Mbstatet@@@std@@2V0locale@2@A 0000000180085320     libcpmt:locale0.obj
 0003:00002328       ?id@?$ctype@G@std@@2V0locale@2@A 0000000180085328     libcpmt:locale0.obj
 0003:00002340       ?id@?$codecvt@_WDU_Mbstatet@@@std@@2V0locale@2@A 0000000180085340     libcpmt:locale0.obj
 0003:00002370       ?_Index@ios_base@std@@0HA  0000000180085370     libcpmt:ios.obj
 0003:000023dc       ?__stl_sync_api_impl_mode@@3W4__stl_sync_api_modes_enum@@A 00000001800853dc     libcpmt:mutex.obj
 0003:000023e8       ?id@?$num_get@DV?$istreambuf_iterator@DU?$char_traits@D@std@@@std@@@std@@2V0locale@2@A 00000001800853e8     libcpmt:locale.obj
 0003:000023f0       ?_Ptr_cin@std@@3PEAV?$basic_istream@DU?$char_traits@D@std@@@1@EA 00000001800853f0     libcpmt:iosptrs.obj
 0003:000023f8       ?_Ptr_cout@std@@3PEAV?$basic_ostream@DU?$char_traits@D@std@@@1@EA 00000001800853f8     libcpmt:iosptrs.obj
 0003:00002400       ?_Ptr_cerr@std@@3PEAV?$basic_ostream@DU?$char_traits@D@std@@@1@EA 0000000180085400     libcpmt:iosptrs.obj
 0003:00002408       ?_Ptr_clog@std@@3PEAV?$basic_ostream@DU?$char_traits@D@std@@@1@EA 0000000180085408     libcpmt:iosptrs.obj
 0003:00002410       ?_Ptr_wcin@std@@3PEAV?$basic_istream@_WU?$char_traits@_W@std@@@1@EA 0000000180085410     libcpmt:iosptrs.obj
 0003:00002418       ?_Ptr_wcout@std@@3PEAV?$basic_ostream@_WU?$char_traits@_W@std@@@1@EA 0000000180085418     libcpmt:iosptrs.obj
 0003:00002420       ?_Ptr_wcerr@std@@3PEAV?$basic_ostream@_WU?$char_traits@_W@std@@@1@EA 0000000180085420     libcpmt:iosptrs.obj
 0003:00002428       ?_Ptr_wclog@std@@3PEAV?$basic_ostream@_WU?$char_traits@_W@std@@@1@EA 0000000180085428     libcpmt:iosptrs.obj
 0003:00002490       __KERNEL32Functions        0000000180085490     libcpmt:winapisupp.obj
 0003:000025d0       ?id@?$time_put@_WV?$ostreambuf_iterator@_WU?$char_traits@_W@std@@@std@@@std@@2V0locale@2@A 00000001800855d0     libcpmt:wlocale.obj
 0003:000025d8       ?id@?$num_get@_WV?$istreambuf_iterator@_WU?$char_traits@_W@std@@@std@@@std@@2V0locale@2@A 00000001800855d8     libcpmt:wlocale.obj
 0003:000025e0       ?id@?$num_put@_WV?$ostreambuf_iterator@_WU?$char_traits@_W@std@@@std@@@std@@2V0locale@2@A 00000001800855e0     libcpmt:wlocale.obj
 0003:000025e8       ?id@?$numpunct@_W@std@@2V0locale@2@A 00000001800855e8     libcpmt:wlocale.obj
 0003:000025f0       ?id@?$collate@_W@std@@2V0locale@2@A 00000001800855f0     libcpmt:wlocale.obj
 0003:000025f8       ?id@?$messages@_W@std@@2V0locale@2@A 00000001800855f8     libcpmt:wlocale.obj
 0003:00002600       ?id@?$money_get@_WV?$istreambuf_iterator@_WU?$char_traits@_W@std@@@std@@@std@@2V0locale@2@A 0000000180085600     libcpmt:wlocale.obj
 0003:00002608       ?id@?$money_put@_WV?$ostreambuf_iterator@_WU?$char_traits@_W@std@@@std@@@std@@2V0locale@2@A 0000000180085608     libcpmt:wlocale.obj
 0003:00002610       ?id@?$moneypunct@_W$0A@@std@@2V0locale@2@A 0000000180085610     libcpmt:wlocale.obj
 0003:00002618       ?id@?$moneypunct@_W$00@std@@2V0locale@2@A 0000000180085618     libcpmt:wlocale.obj
 0003:00002620       ?id@?$time_get@_WV?$istreambuf_iterator@_WU?$char_traits@_W@std@@@std@@@std@@2V0locale@2@A 0000000180085620     libcpmt:wlocale.obj
 0003:00002628       ?id@?$num_get@GV?$istreambuf_iterator@GU?$char_traits@G@std@@@std@@@std@@2V0locale@2@A 0000000180085628     libcpmt:wlocale.obj
 0003:00002630       ?id@?$num_put@GV?$ostreambuf_iterator@GU?$char_traits@G@std@@@std@@@std@@2V0locale@2@A 0000000180085630     libcpmt:wlocale.obj
 0003:00002638       ?id@?$numpunct@G@std@@2V0locale@2@A 0000000180085638     libcpmt:wlocale.obj
 0003:00002640       ?id@?$collate@G@std@@2V0locale@2@A 0000000180085640     libcpmt:wlocale.obj
 0003:00002648       ?id@?$messages@G@std@@2V0locale@2@A 0000000180085648     libcpmt:wlocale.obj
 0003:00002650       ?id@?$money_get@GV?$istreambuf_iterator@GU?$char_traits@G@std@@@std@@@std@@2V0locale@2@A 0000000180085650     libcpmt:wlocale.obj
 0003:00002658       ?id@?$money_put@GV?$ostreambuf_iterator@GU?$char_traits@G@std@@@std@@@std@@2V0locale@2@A 0000000180085658     libcpmt:wlocale.obj
 0003:00002660       ?id@?$moneypunct@G$0A@@std@@2V0locale@2@A 0000000180085660     libcpmt:wlocale.obj
 0003:00002668       ?id@?$moneypunct@G$00@std@@2V0locale@2@A 0000000180085668     libcpmt:wlocale.obj
 0003:00002670       ?id@?$time_get@GV?$istreambuf_iterator@GU?$char_traits@G@std@@@std@@@std@@2V0locale@2@A 0000000180085670     libcpmt:wlocale.obj
 0003:00002678       ?id@?$time_put@GV?$ostreambuf_iterator@GU?$char_traits@G@std@@@std@@@std@@2V0locale@2@A 0000000180085678     libcpmt:wlocale.obj
 0003:00002680       ?id@?$messages@D@std@@2V0locale@2@A 0000000180085680     libcpmt:xlocale.obj
 0003:00002688       ?id@?$money_get@DV?$istreambuf_iterator@DU?$char_traits@D@std@@@std@@@std@@2V0locale@2@A 0000000180085688     libcpmt:xlocale.obj
 0003:00002690       ?id@?$money_put@DV?$ostreambuf_iterator@DU?$char_traits@D@std@@@std@@@std@@2V0locale@2@A 0000000180085690     libcpmt:xlocale.obj
 0003:00002698       ?id@?$moneypunct@D$0A@@std@@2V0locale@2@A 0000000180085698     libcpmt:xlocale.obj
 0003:000026a0       ?id@?$moneypunct@D$00@std@@2V0locale@2@A 00000001800856a0     libcpmt:xlocale.obj
 0003:000026a8       ?id@?$time_get@DV?$istreambuf_iterator@DU?$char_traits@D@std@@@std@@@std@@2V0locale@2@A 00000001800856a8     libcpmt:xlocale.obj
 0003:000026b0       ?id@?$time_put@DV?$ostreambuf_iterator@DU?$char_traits@D@std@@@std@@@std@@2V0locale@2@A 00000001800856b0     libcpmt:xlocale.obj
 0003:000026b8       __scrt_current_native_startup_state 00000001800856b8     LIBCMT:utility.obj
 0003:000026c0       __scrt_native_startup_lock 00000001800856c0     LIBCMT:utility.obj
 0003:00002708       __castguard_check_failure_os_handled_fptr 0000000180085708     LIBCMT:guard_support.obj
 0003:00002c80       __favor                    0000000180085c80     LIBCMT:cpu_disp.obj
 0003:00002c84       __scrt_debugger_hook_flag  0000000180085c84     LIBCMT:utility_desktop.obj
 0003:00002c90       ?__type_info_root_node@@3U__type_info_node@@A 0000000180085c90     LIBCMT:tncleanup.obj
 0003:00002ca0       ?_OptionsStorage@?1??__local_stdio_scanf_options@@9@4_KA 0000000180085ca0     LIBCMT:default_local_stdio_options.obj
 0003:00002ca8       ?__WinRTOutOfMemoryExceptionCallback@@3P6APEAXXZEA 0000000180085ca8     libvcruntime:ehhelpers.obj
 0003:00002d30       __pPurecall                0000000180085d30     libvcruntime:purevirt_data.obj
 0003:00002d68       ?pArgList@UnDecorator@@0PEAVReplicator@@EA 0000000180085d68     libvcruntime:undname.obj
 0003:00002d70       ?pZNameList@UnDecorator@@0PEAVReplicator@@EA 0000000180085d70     libvcruntime:undname.obj
 0003:00002d78       ?pTemplateArgList@UnDecorator@@0PEAVReplicator@@EA 0000000180085d78     libvcruntime:undname.obj
 0003:00002d80       ?gName@UnDecorator@@0PEBDEB 0000000180085d80     libvcruntime:undname.obj
 0003:00002d88       ?name@UnDecorator@@0PEBDEB 0000000180085d88     libvcruntime:undname.obj
 0003:00002d90       ?disableFlags@UnDecorator@@0KA 0000000180085d90     libvcruntime:undname.obj
 0003:00002d94       ?fExplicitTemplateParams@UnDecorator@@0_NA 0000000180085d94     libvcruntime:undname.obj
 0003:00002d95       ?fGetTemplateArgumentList@UnDecorator@@0_NA 0000000180085d95     libvcruntime:undname.obj
 0003:00002d98       ?m_pGetParameter@UnDecorator@@0P6APEADJ@ZEA 0000000180085d98     libvcruntime:undname.obj
 0003:00002da0       ?m_CHPENameOffset@UnDecorator@@0KA 0000000180085da0     libvcruntime:undname.obj
 0003:00002da4       ?m_recursionLevel@UnDecorator@@0KA 0000000180085da4     libvcruntime:undname.obj
 0003:00002e10       __acrt_lconv_static_null   0000000180085e10     libucrt:localeconv.obj
 0003:00002e14       __acrt_lconv_static_W_null 0000000180085e14     libucrt:localeconv.obj
 0003:00002e20       _nstream                   0000000180085e20     libucrt:_file.obj
 0003:00002e28       __piob                     0000000180085e28     libucrt:_file.obj
 0003:00002e30       _cflush                    0000000180085e30     libucrt:_file.obj
 0003:00003090       ?c_exit_complete@?1???R<lambda_6e4b09c48022b2350581041d5f6b0c4c>@@QEBA@XZ@4_NA 0000000180086090     libucrt:exit.obj
 0003:000031a8       _environ_table             00000001800861a8     libucrt:environment_initialization.obj
 0003:000031b0       _wenviron_table            00000001800861b0     libucrt:environment_initialization.obj
 0003:000031b8       __dcrt_initial_wide_environment 00000001800861b8     libucrt:environment_initialization.obj
 0003:000031c0       __dcrt_initial_narrow_environment 00000001800861c0     libucrt:environment_initialization.obj
 0003:000031c8       __acrt_atexit_table        00000001800861c8     libucrt:onexit.obj
 0003:000031e0       __acrt_at_quick_exit_table 00000001800861e0     libucrt:onexit.obj
 0003:00003208       __acrt_stdout_buffer       0000000180086208     libucrt:_sftbuf.obj
 0003:00003210       __acrt_stderr_buffer       0000000180086210     libucrt:_sftbuf.obj
 0003:00003218       __acrt_locale_changed_data 0000000180086218     libucrt:wsetlocale.obj
 0003:00003220       __acrt_current_locale_data 0000000180086220     libucrt:nlsdata.obj
 0003:00003230       __pioinfo                  0000000180086230     libucrt:ioinit.obj
 0003:00003630       _nhandle                   0000000180086630     libucrt:ioinit.obj
 0003:00003818       __fma3_is_available        0000000180086818     libucrt:fma3_available.obj
 0003:0000381c       __use_fma3_lib             000000018008681c     libucrt:fma3_available.obj
 0003:00003820       ?_timezone@@3V?$dual_state_global@J@__crt_state_management@@A 0000000180086820     libucrt:timeset.obj
 0003:00003824       ?_daylight@@3V?$dual_state_global@H@__crt_state_management@@A 0000000180086824     libucrt:timeset.obj
 0003:00003828       ?_dstbias@@3V?$dual_state_global@J@__crt_state_management@@A 0000000180086828     libucrt:timeset.obj
 0003:00003900       _mbctype                   0000000180086900     libucrt:mbctype.obj
 0003:00003908       _mbcasemap                 0000000180086908     libucrt:mbctype.obj
 0003:00003910       __acrt_current_multibyte_data 0000000180086910     libucrt:mbctype.obj
 0003:00003920       _pgmptr                    0000000180086920     libucrt:argv_data.obj
 0003:00003928       __argc                     0000000180086928     libucrt:argv_data.obj
 0003:00003930       __argv                     0000000180086930     libucrt:argv_data.obj
 0003:00003938       __wargv                    0000000180086938     libucrt:argv_data.obj
 0003:00003940       _acmdln                    0000000180086940     libucrt:argv_data.obj
 0003:00003948       _wcmdln                    0000000180086948     libucrt:argv_data.obj
 0003:00003950       __acrt_heap                0000000180086950     libucrt:heap_handle.obj
 0003:00003964       _commode                   0000000180086964     libucrt:ncommode.obj
 0003:00003980       _umaskval                  0000000180086980     libucrt:umask.obj
 0003:00003984       _fmode                     0000000180086984     libucrt:txtmode.obj
 0003:00003988       ?_OptionsStorage@?1??__local_stdio_printf_options@@9@4_KA 0000000180086988     ActionProcessor.obj
 0003:00003990       ?_Psave@?$_Facetptr@V?$numpunct@D@std@@@std@@2PEBVfacet@locale@2@EB 0000000180086990     ActionProcessor.obj
 0003:00003998       ?_Psave@?$_Facetptr@V?$collate@D@std@@@std@@2PEBVfacet@locale@2@EB 0000000180086998     ActionProcessor.obj
 0003:000039a0       ?_Psave@?$_Facetptr@V?$num_put@DV?$ostreambuf_iterator@DU?$char_traits@D@std@@@std@@@std@@@std@@2PEBVfacet@locale@2@EB 00000001800869a0     ActionProcessor.obj
 0003:000039a8       ?_Psave@?$_Facetptr@V?$ctype@D@std@@@std@@2PEBVfacet@locale@2@EB 00000001800869a8     ActionProcessor.obj
 0003:000039b0       ?_Stinit@?1??_Init@?$basic_filebuf@DU?$char_traits@D@std@@@std@@IEAAXPEAU_iobuf@@W4_Initfl@23@@Z@4U_Mbstatet@@A 00000001800869b0     DataCollector.obj
 0003:000039b8       ?_Psave@?$_Facetptr@V?$codecvt@DDU_Mbstatet@@@std@@@std@@2PEBVfacet@locale@2@EB 00000001800869b8     DataCollector.obj
 0003:000039c0       ?Undo_DoRedo2@@3P6AHPEAVReaProject@@@ZEA 00000001800869c0     dllmain.obj
 0003:000039c8       ?mkpanstr@@3P6AXPEADN@ZEA  00000001800869c8     dllmain.obj
 0003:000039d0       ?MIDIEditor_SetSetting_int@@3P6A_NPEAUHWND__@@PEBDH@ZEA 00000001800869d0     dllmain.obj
 0003:000039d8       ?MIDI_SetEvt@@3P6A_NPEAVMediaItem_Take@@HPEB_N1PEBNPEBDH1@ZEA 00000001800869d8     dllmain.obj
 0003:000039e0       ?CreateTrackAudioAccessor@@3P6APEAVAudioAccessor@@PEAVMediaTrack@@@ZEA 00000001800869e0     dllmain.obj
 0003:000039e8       ?CountSelectedTracks2@@3P6AHPEAVReaProject@@_N@ZEA 00000001800869e8     dllmain.obj
 0003:000039f0       ?GetMediaItemTake_Item@@3P6APEAVMediaItem@@PEAVMediaItem_Take@@@ZEA 00000001800869f0     dllmain.obj
 0003:000039f8       ?GetMediaSourceType@@3P6AXPEAVPCM_source@@PEADH@ZEA 00000001800869f8     dllmain.obj
 0003:00003a00       ?PCM_Source_CreateFromType@@3P6APEAVPCM_source@@PEBD@ZEA 0000000180086a00     dllmain.obj
 0003:00003a08       ?GetPlayPosition2Ex@@3P6ANPEAVReaProject@@@ZEA 0000000180086a08     dllmain.obj
 0003:00003a10       ?GetDisplayedMediaItemColor2@@3P6AHPEAVMediaItem@@PEAVMediaItem_Take@@@ZEA 0000000180086a10     dllmain.obj
 0003:00003a18       ?parsepanstr@@3P6ANPEBD@ZEA 0000000180086a18     dllmain.obj
 0003:00003a20       ?ClearAllRecArmed@@3P6AXXZEA 0000000180086a20     dllmain.obj
 0003:00003a28       ?LICE_ClipLine@@3P6A_NPEAH000HHHH@ZEA 0000000180086a28     dllmain.obj
 0003:00003a30       ?Resample_EnumModes@@3P6APEBDH@ZEA 0000000180086a30     dllmain.obj
 0003:00003a38       ?SetMasterTrackVisibility@@3P6AHH@ZEA 0000000180086a38     dllmain.obj
 0003:00003a40       ?GetNumAudioOutputs@@3P6AHXZEA 0000000180086a40     dllmain.obj
 0003:00003a48       ?SetAutomationMode@@3P6AXH_N@ZEA 0000000180086a48     dllmain.obj
 0003:00003a50       ?GetTrackDepth@@3P6AHPEAVMediaTrack@@@ZEA 0000000180086a50     dllmain.obj
 0003:00003a58       ?GetMediaItemTake_Source@@3P6APEAVPCM_source@@PEAVMediaItem_Take@@@ZEA 0000000180086a58     dllmain.obj
 0003:00003a60       ?midi_reinit@@3P6AXXZEA    0000000180086a60     dllmain.obj
 0003:00003a68       ?Loop_OnArrow@@3P6A_NPEAVReaProject@@H@ZEA 0000000180086a68     dllmain.obj
 0003:00003a70       ?LICE_DrawGlyph@@3P6AXPEAVLICE_IBitmap@@HHIPEAEHHMH@ZEA 0000000180086a70     dllmain.obj
 0003:00003a78       ?joystick_getbuttonmask@@3P6AIPEAVjoystick_device@@@ZEA 0000000180086a78     dllmain.obj
 0003:00003a80       ?TrackFX_SetEQParam@@3P6A_NPEAVMediaTrack@@HHHHN_N@ZEA 0000000180086a80     dllmain.obj
 0003:00003a88       ?GetTrackReceiveName@@3P6A_NPEAVMediaTrack@@HPEADH@ZEA 0000000180086a88     dllmain.obj
 0003:00003a90       ?InsertEnvelopePoint@@3P6A_NPEAVTrackEnvelope@@NNHN_NPEA_N@ZEA 0000000180086a90     dllmain.obj
 0003:00003a98       ?DeleteTakeMarker@@3P6A_NPEAVMediaItem_Take@@H@ZEA 0000000180086a98     dllmain.obj
 0003:00003aa0       ?SnapToGrid@@3P6ANPEAVReaProject@@N@ZEA 0000000180086aa0     dllmain.obj
 0003:00003aa8       ?MIDI_DisableSort@@3P6AXPEAVMediaItem_Take@@@ZEA 0000000180086aa8     dllmain.obj
 0003:00003ab0       ?SetCurrentBPM@@3P6AXPEAVReaProject@@N_N@ZEA 0000000180086ab0     dllmain.obj
 0003:00003ab8       ?PluginWantsAlwaysRunFx@@3P6AXH@ZEA 0000000180086ab8     dllmain.obj
 0003:00003ac0       ?TrackFX_GetRecCount@@3P6AHPEAVMediaTrack@@@ZEA 0000000180086ac0     dllmain.obj
 0003:00003ac8       ?SetProjectMarker@@3P6A_NH_NNNPEBD@ZEA 0000000180086ac8     dllmain.obj
 0003:00003ad0       ?SetTrackSendInfo_Value@@3P6A_NPEAVMediaTrack@@HHPEBDN@ZEA 0000000180086ad0     dllmain.obj
 0003:00003ad8       ?GetProjExtState@@3P6AHPEAVReaProject@@PEBD1PEADH@ZEA 0000000180086ad8     dllmain.obj
 0003:00003ae0       ?screenset_register@@3P6AXPEADPEAX1@ZEA 0000000180086ae0     dllmain.obj
 0003:00003ae8       ?GetTrackColor@@3P6AHPEAVMediaTrack@@@ZEA 0000000180086ae8     dllmain.obj
 0003:00003af0       ?CSurf_OnScroll@@3P6AXHH@ZEA 0000000180086af0     dllmain.obj
 0003:00003af8       ?GetProjectPathEx@@3P6AXPEAVReaProject@@PEADH@ZEA 0000000180086af8     dllmain.obj
 0003:00003b00       ?Undo_BeginBlock@@3P6AXXZEA 0000000180086b00     dllmain.obj
 0003:00003b08       ?APIExists@@3P6A_NPEBD@ZEA 0000000180086b08     dllmain.obj
 0003:00003b10       ?EnumTrackMIDIProgramNames@@3P6A_NHHPEADH@ZEA 0000000180086b10     dllmain.obj
 0003:00003b18       ?GetMIDIInputName@@3P6A_NHPEADH@ZEA 0000000180086b18     dllmain.obj
 0003:00003b20       ?PCM_Sink_ShowConfig@@3P6APEAUHWND__@@PEBDHPEAU1@@ZEA 0000000180086b20     dllmain.obj
 0003:00003b28       ?TakeFX_GetPresetIndex@@3P6AHPEAVMediaItem_Take@@HPEAH@ZEA 0000000180086b28     dllmain.obj
 0003:00003b30       ?GetSetTrackSendInfo_String@@3P6A_NPEAVMediaTrack@@HHPEBDPEAD_N@ZEA 0000000180086b30     dllmain.obj
 0003:00003b38       ?GetEnvelopePointByTimeEx@@3P6AHPEAVTrackEnvelope@@HN@ZEA 0000000180086b38     dllmain.obj
 0003:00003b40       ?LICE_ClearRect@@3P6AXPEAVLICE_IBitmap@@HHHHII@ZEA 0000000180086b40     dllmain.obj
 0003:00003b48       ?TakeFX_GetIOSize@@3P6AHPEAVMediaItem_Take@@HPEAH1@ZEA 0000000180086b48     dllmain.obj
 0003:00003b50       ?FreeHeapPtr@@3P6AXPEAX@ZEA 0000000180086b50     dllmain.obj
 0003:00003b58       ?CreateNewMIDIItemInProj@@3P6APEAVMediaItem@@PEAVMediaTrack@@NNPEB_N@ZEA 0000000180086b58     dllmain.obj
 0003:00003b60       ?projectconfig_var_getoffs@@3P6AHPEBDPEAH@ZEA 0000000180086b60     dllmain.obj
 0003:00003b68       ?CSurf_OnSendPanChange@@3P6ANPEAVMediaTrack@@HN_N@ZEA 0000000180086b68     dllmain.obj
 0003:00003b70       ?CSurf_OnRecvPanChange@@3P6ANPEAVMediaTrack@@HN_N@ZEA 0000000180086b70     dllmain.obj
 0003:00003b78       ?kbd_OnMidiList@@3P6AXPEAVMIDI_eventlist@@H@ZEA 0000000180086b78     dllmain.obj
 0003:00003b80       ?Main_SaveProject@@3P6AXPEAVReaProject@@_N@ZEA 0000000180086b80     dllmain.obj
 0003:00003b88       ?TrackFX_FormatParamValue@@3P6A_NPEAVMediaTrack@@HHNPEADH@ZEA 0000000180086b88     dllmain.obj
 0003:00003b90       ?MIDI_DeleteEvt@@3P6A_NPEAVMediaItem_Take@@H@ZEA 0000000180086b90     dllmain.obj
 0003:00003b98       ?LICE_Copy@@3P6AXPEAVLICE_IBitmap@@0@ZEA 0000000180086b98     dllmain.obj
 0003:00003ba0       ?StuffMIDIMessage@@3P6AXHHHH@ZEA 0000000180086ba0     dllmain.obj
 0003:00003ba8       ?PlayTrackPreview2@@3P6AHPEAVReaProject@@PEAUpreview_register_t@@@ZEA 0000000180086ba8     dllmain.obj
 0003:00003bb0       ?GetTrackUIPan@@3P6A_NPEAVMediaTrack@@PEAN1PEAH@ZEA 0000000180086bb0     dllmain.obj
 0003:00003bb8       ?TimeMap2_GetDividedBpmAtTime@@3P6ANPEAVReaProject@@N@ZEA 0000000180086bb8     dllmain.obj
 0003:00003bc0       ?LICE_CreateFont@@3P6APEAVLICE_IFont@@XZEA 0000000180086bc0     dllmain.obj
 0003:00003bc8       ?Main_openProject@@3P6AXPEBD@ZEA 0000000180086bc8     dllmain.obj
 0003:00003bd0       ?CountProjectMarkers@@3P6AHPEAVReaProject@@PEAH1@ZEA 0000000180086bd0     dllmain.obj
 0003:00003bd8       ?LICE_Line@@3P6AXPEAVLICE_IBitmap@@MMMMIMH_N@ZEA 0000000180086bd8     dllmain.obj
 0003:00003be0       ?GetHZoomLevel@@3P6ANXZEA  0000000180086be0     dllmain.obj
 0003:00003be8       ?DeleteProjectMarker@@3P6A_NPEAVReaProject@@H_N@ZEA 0000000180086be8     dllmain.obj
 0003:00003bf0       ?joystick_enum@@3P6APEBDHPEAPEBD@ZEA 0000000180086bf0     dllmain.obj
 0003:00003bf8       ?kbd_ProcessActionsMenu@@3P6AXPEAUHMENU__@@PEAUKbdSectionInfo@@@ZEA 0000000180086bf8     dllmain.obj
 0003:00003c00       ?GetSetMediaTrackInfo@@3P6APEAXPEAVMediaTrack@@PEBDPEAX@ZEA 0000000180086c00     dllmain.obj
 0003:00003c08       ?TakeFX_GetParamNormalized@@3P6ANPEAVMediaItem_Take@@HH@ZEA 0000000180086c08     dllmain.obj
 0003:00003c10       ?CreateMIDIInput@@3P6APEAVmidi_Input@@H@ZEA 0000000180086c10     dllmain.obj
 0003:00003c18       ?LICE__GetBits@@3P6APEAXPEAVLICE_IBitmap@@@ZEA 0000000180086c18     dllmain.obj
 0003:00003c20       ?screenset_unregisterByParam@@3P6AXPEAX@ZEA 0000000180086c20     dllmain.obj
